   1               		.file	"test.c"
   2               	__SP_H__ = 0x3e
   3               	__SP_L__ = 0x3d
   4               	__SREG__ = 0x3f
   5               	__RAMPZ__ = 0x3b
   6               	__RAMPY__ = 0x3a
   7               	__RAMPX__ = 0x39
   8               	__RAMPD__ = 0x38
   9               	__CCP__ = 0x34
  10               	__tmp_reg__ = 0
  11               	__zero_reg__ = 1
  13               		.text
  14               	.Ltext0:
 462               		.section	.text.generateRandomPolyTable_12289_512,"ax",@progbits
 465               	.global	generateRandomPolyTable_12289_512
 467               	generateRandomPolyTable_12289_512:
   1:test/test.c   **** #include <avr/io.h> 
   2:test/test.c   **** #include <avr/pgmspace.h>
   3:test/test.c   **** 
   4:test/test.c   **** #include "../device/usart_driver.h"
   5:test/test.c   **** #include "../device/clksys_driver.h"
   6:test/test.c   **** #include "../device/measureRAM.h"
   7:test/test.c   **** #include "../crypto/p4093/ksuba_4093.h"
   8:test/test.c   **** #include "../crypto/p4096/ksuba_4096.h"
   9:test/test.c   **** #include "../crypto/p4093/school_4093.h"
  10:test/test.c   **** #include "../crypto/p12289/ntt_12289_512.h"
  11:test/test.c   **** #include "../crypto/p7681/ntt_7681_256.h"
  12:test/test.c   **** #include "../crypto/p12289/mm12289.h"
  13:test/test.c   **** #include "../crypto/rng/avr_trng.h"
  14:test/test.c   **** #include "../crypto/rng/aes_prng.h"
  15:test/test.c   **** #include "../crypto/rng/des_bak/des_prng.h"
  16:test/test.c   **** 
  17:test/test.c   **** 
  18:test/test.c   **** //include key files
  19:test/test.c   **** #include "../keys/keypair_N_256_7681_1132.data"
  20:test/test.c   **** #include "../keys/keypair_N_512_12289_1218.data"
  21:test/test.c   **** 
  22:test/test.c   **** #include "../keys/keypair_S_192_4093_8000.data"
  23:test/test.c   **** #include "../keys/keypair_S_256_4093_8000.data"
  24:test/test.c   **** #include "../keys/keypair_S_320_4093_8000.data"
  25:test/test.c   **** 
  26:test/test.c   **** #include "../keys/keypair_K_192_4096_8000.data"
  27:test/test.c   **** #include "../keys/keypair_K_256_4096_8000.data"
  28:test/test.c   **** #include "../keys/keypair_K_320_4096_8000.data"
  29:test/test.c   **** 
  30:test/test.c   **** 
  31:test/test.c   **** void test_ksuba_school(uint16_t paramN);
  32:test/test.c   **** void testEncryptionAndDecryption_Karatsuba_4093_192(void);
  33:test/test.c   **** void testEncryptionAndDecryption_Karatsuba_4093_256(void);
  34:test/test.c   **** void testEncryptionAndDecryption_Karatsuba_4093_320(void);
  35:test/test.c   **** void testEncryptionAndDecryption_Karatsuba_4096_192(void);
  36:test/test.c   **** void testEncryptionAndDecryption_Karatsuba_4096_256(void);
  37:test/test.c   **** void testEncryptionAndDecryption_Karatsuba_4096_320(void);
  38:test/test.c   **** void testEncryptionAndDecryption_School_4093_192(void);
  39:test/test.c   **** void testEncryptionAndDecryption_School_4093_256(void);
  40:test/test.c   **** void testEncryptionAndDecryption_School_4093_320(void);
  41:test/test.c   **** void testEncryptionAndDecryption_NTT_7681_256(void);
  42:test/test.c   **** void testEncryptionAndDecryption_NTT_12289_512(void);
  43:test/test.c   **** 
  44:test/test.c   **** 
  45:test/test.c   **** 
  46:test/test.c   **** 
  47:test/test.c   **** 
  48:test/test.c   **** void generateRandomPolyTable_12289_512(uint16_t* retpoly){
 469               	.LM0:
 470               	.LFBB1:
 471 0000 CF92      		push r12
 472 0002 DF92      		push r13
 473 0004 EF92      		push r14
 474 0006 FF92      		push r15
 475 0008 0F93      		push r16
 476 000a 1F93      		push r17
 477 000c CF93      		push r28
 478 000e DF93      		push r29
 479 0010 00D0      		rcall .
 480 0012 00D0      		rcall .
 481 0014 CDB7      		in r28,__SP_L__
 482 0016 DEB7      		in r29,__SP_H__
 483               	/* prologue: function */
 484               	/* frame size = 6 */
 485               	/* stack size = 14 */
 486               	.L__stack_usage = 14
 487 0018 8D83      		std Y+5,r24
 488 001a 9E83      		std Y+6,r25
 489 001c 0D81      		ldd r16,Y+5
 490 001e 1E81      		ldd r17,Y+6
 491 0020 1C5F      		subi r17,-4
 492               	.LBB7:
  49:test/test.c   ****   for(int i = 0; i<512; i++)
  50:test/test.c   ****     {
  51:test/test.c   ****       retpoly[i] = get_random_bits25() % 12289;
 494               	.LM1:
 495 0022 CC24      		clr r12
 496 0024 C394      		inc r12
 497 0026 80E3      		ldi r24,lo8(48)
 498 0028 D82E      		mov r13,r24
 499 002a E12C      		mov r14,__zero_reg__
 500 002c F12C      		mov r15,__zero_reg__
 501               	.L2:
 503               	.LM2:
 504 002e 0E94 0000 		call get_random_bits25
 506               	.LM3:
 507 0032 A701      		movw r20,r14
 508 0034 9601      		movw r18,r12
 509 0036 0E94 0000 		call __udivmodsi4
 510 003a 6983      		std Y+1,r22
 511 003c 7A83      		std Y+2,r23
 512 003e 8B83      		std Y+3,r24
 513 0040 9C83      		std Y+4,r25
 515               	.LM4:
 516 0042 ED81      		ldd r30,Y+5
 517 0044 FE81      		ldd r31,Y+6
 518 0046 8981      		ldd r24,Y+1
 519 0048 9A81      		ldd r25,Y+2
 520 004a 8193      		st Z+,r24
 521 004c 9193      		st Z+,r25
 522 004e ED83      		std Y+5,r30
 523 0050 FE83      		std Y+6,r31
  49:test/test.c   ****   for(int i = 0; i<512; i++)
 525               	.LM5:
 526 0052 E017      		cp r30,r16
 527 0054 F107      		cpc r31,r17
 528 0056 01F4      		brne .L2
 529               	/* epilogue start */
 530               	.LBE7:
  52:test/test.c   ****     }  
  53:test/test.c   **** }
 532               	.LM6:
 533 0058 2696      		adiw r28,6
 534 005a CDBF      		out __SP_L__,r28
 535 005c DEBF      		out __SP_H__,r29
 536 005e DF91      		pop r29
 537 0060 CF91      		pop r28
 538 0062 1F91      		pop r17
 539 0064 0F91      		pop r16
 540 0066 FF90      		pop r15
 541 0068 EF90      		pop r14
 542 006a DF90      		pop r13
 543 006c CF90      		pop r12
 544 006e 0895      		ret
 546               	.Lscope1:
 547               		.section	.text.generateRandomPolyTable_4093,"ax",@progbits
 551               	.global	generateRandomPolyTable_4093
 553               	generateRandomPolyTable_4093:
  54:test/test.c   **** 
  55:test/test.c   **** void generateRandomPolyTable_4093(uint16_t* retpoly, uint16_t n){
 555               	.LM7:
 556               	.LFBB2:
 557 0000 CF92      		push r12
 558 0002 DF92      		push r13
 559 0004 EF92      		push r14
 560 0006 FF92      		push r15
 561 0008 0F93      		push r16
 562 000a 1F93      		push r17
 563 000c CF93      		push r28
 564 000e DF93      		push r29
 565 0010 00D0      		rcall .
 566 0012 00D0      		rcall .
 567 0014 CDB7      		in r28,__SP_L__
 568 0016 DEB7      		in r29,__SP_H__
 569               	/* prologue: function */
 570               	/* frame size = 6 */
 571               	/* stack size = 14 */
 572               	.L__stack_usage = 14
 573 0018 8D83      		std Y+5,r24
 574 001a 9E83      		std Y+6,r25
 575 001c 660F      		lsl r22
 576 001e 771F      		rol r23
 577 0020 0D81      		ldd r16,Y+5
 578 0022 1E81      		ldd r17,Y+6
 579 0024 060F      		add r16,r22
 580 0026 171F      		adc r17,r23
 581               	.LBB8:
  56:test/test.c   ****   for(int i = 0; i<n; i++)
  57:test/test.c   ****     {
  58:test/test.c   ****       retpoly[i] = get_random_bits25() % 4093;
 583               	.LM8:
 584 0028 9DEF      		ldi r25,lo8(-3)
 585 002a C92E      		mov r12,r25
 586 002c 9FE0      		ldi r25,lo8(15)
 587 002e D92E      		mov r13,r25
 588 0030 E12C      		mov r14,__zero_reg__
 589 0032 F12C      		mov r15,__zero_reg__
 590               	.L5:
  56:test/test.c   ****   for(int i = 0; i<n; i++)
 592               	.LM9:
 593 0034 ED81      		ldd r30,Y+5
 594 0036 FE81      		ldd r31,Y+6
 595 0038 E017      		cp r30,r16
 596 003a F107      		cpc r31,r17
 597 003c 01F4      		brne .L6
 598               	/* epilogue start */
 599               	.LBE8:
  59:test/test.c   ****     }  
  60:test/test.c   **** }
 601               	.LM10:
 602 003e 2696      		adiw r28,6
 603 0040 CDBF      		out __SP_L__,r28
 604 0042 DEBF      		out __SP_H__,r29
 605 0044 DF91      		pop r29
 606 0046 CF91      		pop r28
 607 0048 1F91      		pop r17
 608 004a 0F91      		pop r16
 609 004c FF90      		pop r15
 610 004e EF90      		pop r14
 611 0050 DF90      		pop r13
 612 0052 CF90      		pop r12
 613 0054 0895      		ret
 614               	.L6:
 615               	.LBB9:
  58:test/test.c   ****     }  
 617               	.LM11:
 618 0056 0E94 0000 		call get_random_bits25
  58:test/test.c   ****     }  
 620               	.LM12:
 621 005a A701      		movw r20,r14
 622 005c 9601      		movw r18,r12
 623 005e 0E94 0000 		call __udivmodsi4
 624 0062 6983      		std Y+1,r22
 625 0064 7A83      		std Y+2,r23
 626 0066 8B83      		std Y+3,r24
 627 0068 9C83      		std Y+4,r25
  58:test/test.c   ****     }  
 629               	.LM13:
 630 006a ED81      		ldd r30,Y+5
 631 006c FE81      		ldd r31,Y+6
 632 006e 8981      		ldd r24,Y+1
 633 0070 9A81      		ldd r25,Y+2
 634 0072 8193      		st Z+,r24
 635 0074 9193      		st Z+,r25
 636 0076 ED83      		std Y+5,r30
 637 0078 FE83      		std Y+6,r31
 638 007a 00C0      		rjmp .L5
 639               	.LBE9:
 641               	.Lscope2:
 642               		.section	.rodata.test_passed.str1.1,"aMS",@progbits,1
 643               	.LC0:
 644 0000 7061 7373 		.string	"passed.\n\r"
 644      6564 2E0A 
 644      0D00 
 645               		.section	.text.test_passed,"ax",@progbits
 647               	.global	test_passed
 649               	test_passed:
  61:test/test.c   **** 
  62:test/test.c   **** 
  63:test/test.c   **** // void testbitrev(void);
  64:test/test.c   **** // void testpwmul(void);
  65:test/test.c   **** // void testEncodingAndDecoding(void);
  66:test/test.c   **** // void testinterleavedntt(void);
  67:test/test.c   **** // void check_bitrev(uint16_t* in);
  68:test/test.c   **** // void check_pw_mul(uint16_t * first, uint16_t* second, uint16_t* res);
  69:test/test.c   **** // void check_encode(uint8_t* msg, uint16_t* encodedpoly);
  70:test/test.c   **** // void check_decode(uint16_t* cipherpoly, uint8_t* plaintext);
  71:test/test.c   **** // void check_mul(int16_t* first, int16_t* second, int16_t* res);
  72:test/test.c   **** 
  73:test/test.c   **** static int mod_errors=0;
  74:test/test.c   **** static int mod_tests=0;
  75:test/test.c   **** 
  76:test/test.c   **** void test_passed(void){
 651               	.LM14:
 652               	.LFBB3:
 653               	/* prologue: function */
 654               	/* frame size = 0 */
 655               	/* stack size = 0 */
 656               	.L__stack_usage = 0
  77:test/test.c   **** 	printf("passed.\n\r");
 658               	.LM15:
 659 0000 80E0      		ldi r24,lo8(.LC0)
 660 0002 90E0      		ldi r25,hi8(.LC0)
 661 0004 9F93      		push r25
 662 0006 8F93      		push r24
 663 0008 0E94 0000 		call printf
  78:test/test.c   **** }
 665               	.LM16:
 666 000c 0F90      		pop __tmp_reg__
 667 000e 0F90      		pop __tmp_reg__
 668               	/* epilogue start */
 669 0010 0895      		ret
 671               	.Lscope3:
 672               		.section	.rodata.test_failed.str1.1,"aMS",@progbits,1
 673               	.LC1:
 674 0000 4641 494C 		.string	"FAILED.\n\r"
 674      4544 2E0A 
 674      0D00 
 675               		.section	.text.test_failed,"ax",@progbits
 677               	.global	test_failed
 679               	test_failed:
  79:test/test.c   **** 
  80:test/test.c   **** void test_failed(void){
 681               	.LM17:
 682               	.LFBB4:
 683               	/* prologue: function */
 684               	/* frame size = 0 */
 685               	/* stack size = 0 */
 686               	.L__stack_usage = 0
  81:test/test.c   ****   printf("FAILED.\n\r");
 688               	.LM18:
 689 0000 80E0      		ldi r24,lo8(.LC1)
 690 0002 90E0      		ldi r25,hi8(.LC1)
 691 0004 9F93      		push r25
 692 0006 8F93      		push r24
 693 0008 0E94 0000 		call printf
  82:test/test.c   ****   mod_errors++;
 695               	.LM19:
 696 000c 8091 0000 		lds r24,mod_errors
 697 0010 9091 0000 		lds r25,mod_errors+1
 698 0014 0196      		adiw r24,1
 699 0016 8093 0000 		sts mod_errors,r24
 700 001a 9093 0000 		sts mod_errors+1,r25
  83:test/test.c   **** }
 702               	.LM20:
 703 001e 0F90      		pop __tmp_reg__
 704 0020 0F90      		pop __tmp_reg__
 705               	/* epilogue start */
 706 0022 0895      		ret
 708               	.Lscope4:
 709               		.section	.rodata.test_start.str1.1,"aMS",@progbits,1
 710               	.LC2:
 711 0000 2573 00   		.string	"%s"
 712               		.section	.text.test_start,"ax",@progbits
 714               	.global	test_start
 716               	test_start:
  84:test/test.c   **** 
  85:test/test.c   **** void test_start(char* str){
 718               	.LM21:
 719               	.LFBB5:
 720               	/* prologue: function */
 721               	/* frame size = 0 */
 722               	/* stack size = 0 */
 723               	.L__stack_usage = 0
  86:test/test.c   ****   printf("%s", str);
 725               	.LM22:
 726 0000 9F93      		push r25
 727 0002 8F93      		push r24
 728 0004 80E0      		ldi r24,lo8(.LC2)
 729 0006 90E0      		ldi r25,hi8(.LC2)
 730 0008 9F93      		push r25
 731 000a 8F93      		push r24
 732 000c 0E94 0000 		call printf
  87:test/test.c   ****   mod_tests++;
 734               	.LM23:
 735 0010 8091 0000 		lds r24,mod_tests
 736 0014 9091 0000 		lds r25,mod_tests+1
 737 0018 0196      		adiw r24,1
 738 001a 8093 0000 		sts mod_tests,r24
 739 001e 9093 0000 		sts mod_tests+1,r25
  88:test/test.c   **** }
 741               	.LM24:
 742 0022 0F90      		pop __tmp_reg__
 743 0024 0F90      		pop __tmp_reg__
 744 0026 0F90      		pop __tmp_reg__
 745 0028 0F90      		pop __tmp_reg__
 746               	/* epilogue start */
 747 002a 0895      		ret
 749               	.Lscope5:
 750               		.section	.rodata.test_end.str1.1,"aMS",@progbits,1
 751               	.LC3:
 752 0000 4669 6E69 		.string	"Finished testing.\n\r"
 752      7368 6564 
 752      2074 6573 
 752      7469 6E67 
 752      2E0A 0D00 
 753               	.LC4:
 754 0014 5061 7373 		.string	"Passed: %d/%d, FAILED: %d \n\r"
 754      6564 3A20 
 754      2564 2F25 
 754      642C 2046 
 754      4149 4C45 
 755               	.LC5:
 756 0031 0A0D 00   		.string	"\n\r"
 757               		.section	.text.test_end,"ax",@progbits
 759               	.global	test_end
 761               	test_end:
  89:test/test.c   **** 
  90:test/test.c   **** void test_end(void){
 763               	.LM25:
 764               	.LFBB6:
 765 0000 CF93      		push r28
 766 0002 DF93      		push r29
 767               	/* prologue: function */
 768               	/* frame size = 0 */
 769               	/* stack size = 2 */
 770               	.L__stack_usage = 2
  91:test/test.c   ****   printf("Finished testing.\n\r");
 772               	.LM26:
 773 0004 80E0      		ldi r24,lo8(.LC3)
 774 0006 90E0      		ldi r25,hi8(.LC3)
 775 0008 9F93      		push r25
 776 000a 8F93      		push r24
 777 000c 0E94 0000 		call printf
  92:test/test.c   ****   printf("Passed: %d/%d, FAILED: %d \n\r",mod_tests-mod_errors, mod_tests, mod_errors);
 779               	.LM27:
 780 0010 2091 0000 		lds r18,mod_errors
 781 0014 3091 0000 		lds r19,mod_errors+1
 782 0018 8091 0000 		lds r24,mod_tests
 783 001c 9091 0000 		lds r25,mod_tests+1
 784 0020 3F93      		push r19
 785 0022 2F93      		push r18
 786 0024 9F93      		push r25
 787 0026 8F93      		push r24
 788 0028 821B      		sub r24,r18
 789 002a 930B      		sbc r25,r19
 790 002c 9F93      		push r25
 791 002e 8F93      		push r24
 792 0030 80E0      		ldi r24,lo8(.LC4)
 793 0032 90E0      		ldi r25,hi8(.LC4)
 794 0034 9F93      		push r25
 795 0036 8F93      		push r24
 796 0038 0E94 0000 		call printf
  93:test/test.c   ****   printf("\n\r");
 798               	.LM28:
 799 003c C0E0      		ldi r28,lo8(.LC5)
 800 003e D0E0      		ldi r29,hi8(.LC5)
 801 0040 DF93      		push r29
 802 0042 CF93      		push r28
 803 0044 0E94 0000 		call printf
  94:test/test.c   ****   printf("\n\r");
 805               	.LM29:
 806 0048 DF93      		push r29
 807 004a CF93      		push r28
 808 004c 0E94 0000 		call printf
  95:test/test.c   ****   printf("\n\r");
 810               	.LM30:
 811 0050 DF93      		push r29
 812 0052 CF93      		push r28
 813 0054 0E94 0000 		call printf
  96:test/test.c   **** }
 815               	.LM31:
 816 0058 8DB7      		in r24,__SP_L__
 817 005a 9EB7      		in r25,__SP_H__
 818 005c 4096      		adiw r24,16
 819 005e 8DBF      		out __SP_L__,r24
 820 0060 9EBF      		out __SP_H__,r25
 821               	/* epilogue start */
 822 0062 DF91      		pop r29
 823 0064 CF91      		pop r28
 824 0066 0895      		ret
 826               	.Lscope6:
 827               		.section	.rodata.test_ksuba_school.str1.1,"aMS",@progbits,1
 828               	.LC6:
 829 0000 5465 7374 		.string	"Testing Karatsuba and schoolbook multiplication with n = 192... "
 829      696E 6720 
 829      4B61 7261 
 829      7473 7562 
 829      6120 616E 
 830               	.LC7:
 831 0041 5465 7374 		.string	"Testing Karatsuba and schoolbook multiplication with n = 256... "
 831      696E 6720 
 831      4B61 7261 
 831      7473 7562 
 831      6120 616E 
 832               	.LC8:
 833 0082 5465 7374 		.string	"Testing Karatsuba and schoolbook multiplication with n = 320... "
 833      696E 6720 
 833      4B61 7261 
 833      7473 7562 
 833      6120 616E 
 834               		.section	.text.test_ksuba_school,"ax",@progbits
 837               	.global	test_ksuba_school
 839               	test_ksuba_school:
  97:test/test.c   **** 
  98:test/test.c   **** 
  99:test/test.c   **** int main(void ){
 100:test/test.c   **** 
 101:test/test.c   ****   // Set frequency to 32 MHz
 102:test/test.c   ****   CLKSYS_Enable( OSC_RC32MEN_bm );
 103:test/test.c   ****   do {} while ( CLKSYS_IsReady( OSC_RC32MRDY_bm ) == 0 );
 104:test/test.c   ****   CLKSYS_Main_ClockSource_Select( CLK_SCLKSEL_RC32M_gc );
 105:test/test.c   ****   CLKSYS_Disable( OSC_RC2MEN_bm | OSC_RC32KEN_bm );
 106:test/test.c   **** 	
 107:test/test.c   ****   USARTinit();
 108:test/test.c   ****   avr_trng_init();
 109:test/test.c   **** 
 110:test/test.c   ****   printf("\n");
 111:test/test.c   ****   
 112:test/test.c   ****   //Currently not working - why?
 113:test/test.c   ****   //printf("Ksuba RAM\n");
 114:test/test.c   ****   //test_ksuba_ram();
 115:test/test.c   ****   //test_ksuba_school(192);
 116:test/test.c   ****   //test_ksuba_school(256);
 117:test/test.c   ****   //test_ksuba_school(320);
 118:test/test.c   ****   //printf("dadsadsadsad\n");
 119:test/test.c   **** 
 120:test/test.c   **** /*
 121:test/test.c   **** 	uint16_t a = 1234;
 122:test/test.c   **** 	uint16_t b = 6789;
 123:test/test.c   **** 	printf("Result of %d * %d: %u...expected: %u...\n\n", a, b, mm12289(a,b), (((uint32_t)a)*b)%12289)
 124:test/test.c   **** 
 125:test/test.c   **** 	a = 1234;
 126:test/test.c   **** 	b = 9999;
 127:test/test.c   **** 	printf("Result of %d * %d: %u...expected: %u...\n\n", a, b, mm12289(a,b), (((uint32_t)a)*b)%12289)
 128:test/test.c   **** 
 129:test/test.c   **** 	a = 12217;
 130:test/test.c   **** 	b = 5000;
 131:test/test.c   **** 	printf("Result of %d * %d: %u...expected: %u...\n\n", a, b, mm12289(a,b), (((uint32_t)a)*b)%12289)
 132:test/test.c   **** 
 133:test/test.c   **** 	a = 2713;
 134:test/test.c   **** 	b = 1001;
 135:test/test.c   **** 	printf("Result of %d * %d: %u...expected: %u...\n\n", a, b, mm12289(a,b), (((uint32_t)a)*b)%12289)
 136:test/test.c   **** */
 137:test/test.c   **** /*
 138:test/test.c   **** 	uint16_t a=6789;
 139:test/test.c   **** 	uint16_t b;
 140:test/test.c   **** 
 141:test/test.c   **** 	for(b=1;b<12289;b++)
 142:test/test.c   **** 	{
 143:test/test.c   **** 		if(mm12289(a,b) != (((uint32_t)a)*b)%12289)
 144:test/test.c   **** 		{
 145:test/test.c   **** 			printf("Result of %d * %d: %u...expected: %u...\n\n", a, b, mm12289(a,b), (((uint32_t)a)*b)%1228
 146:test/test.c   **** 			while(1);
 147:test/test.c   **** 		}
 148:test/test.c   **** 	}
 149:test/test.c   **** 	printf("Success!\n");
 150:test/test.c   **** 
 151:test/test.c   **** 	while(1);
 152:test/test.c   **** */
 153:test/test.c   **** 
 154:test/test.c   **** 
 155:test/test.c   ****   testEncryptionAndDecryption_NTT_7681_256();
 156:test/test.c   ****   testEncryptionAndDecryption_NTT_12289_512();
 157:test/test.c   ****   testEncryptionAndDecryption_School_4093_192();
 158:test/test.c   ****   testEncryptionAndDecryption_School_4093_256();
 159:test/test.c   ****   testEncryptionAndDecryption_School_4093_320();
 160:test/test.c   **** 
 161:test/test.c   ****   set_max_recursion_stages(5);
 162:test/test.c   ****   set_max_recursion_stages4096(5);
 163:test/test.c   **** 
 164:test/test.c   ****   for(int i = 0; i<1;i++)
 165:test/test.c   ****   {
 166:test/test.c   ****   	testEncryptionAndDecryption_Karatsuba_4093_192();
 167:test/test.c   ****   	testEncryptionAndDecryption_Karatsuba_4093_256();
 168:test/test.c   ****   	testEncryptionAndDecryption_Karatsuba_4093_320();
 169:test/test.c   ****   }
 170:test/test.c   **** 
 171:test/test.c   ****   for(int i = 0; i<1;i++)
 172:test/test.c   ****   {
 173:test/test.c   ****   	testEncryptionAndDecryption_Karatsuba_4096_192();
 174:test/test.c   ****   	testEncryptionAndDecryption_Karatsuba_4096_256();
 175:test/test.c   ****   	testEncryptionAndDecryption_Karatsuba_4096_320();
 176:test/test.c   ****   }
 177:test/test.c   **** 
 178:test/test.c   **** 
 179:test/test.c   **** 
 180:test/test.c   **** /*
 181:test/test.c   ****   // testing asm multiplier
 182:test/test.c   ****   printf("%d * %d = %d (expected: %d)\n", -5, 1111, call_mulRed_asm_4093(-5, 1111), ((-5*1111)%4093
 183:test/test.c   ****   printf("%d * %d = %d (expected: %d)\n", 5, 1111, call_mulRed_asm_4093(5, 1111), ((5*1111)%4093));
 184:test/test.c   ****   printf("%d * %d = %d (expected: %d)\n", -10, 1234, call_mulRed_asm_4093(-10, 1234), ((-10*1234)%4
 185:test/test.c   ****   printf("%d * %d = %d (expected: %d)\n", 10, 1234, call_mulRed_asm_4093(10, 1234), ((10*1234)%4093
 186:test/test.c   ****   printf("%d * %d = %d (expected: %d)\n", -27, 3234, call_mulRed_asm_4093(-27, 3234), ((-27*3234L)%
 187:test/test.c   ****   printf("%d * %d = %d (expected: %d)\n", 27, 3234, call_mulRed_asm_4093(27, 3234), ((27*3234L)%409
 188:test/test.c   ****   printf("%d * %d = %d (expected: %d)\n", -33, 4001, call_mulRed_asm_4093(-33, 4001), ((-33*4001L)%
 189:test/test.c   ****   printf("%d * %d = %d (expected: %d)\n", 33, 4001, call_mulRed_asm_4093(33, 4001), ((33*4001L)%409
 190:test/test.c   **** */	
 191:test/test.c   **** 
 192:test/test.c   ****   test_end();
 193:test/test.c   **** 
 194:test/test.c   ****   printf("\n");
 195:test/test.c   ****   fflush(stdout);
 196:test/test.c   ****   printf("\n");
 197:test/test.c   **** 
 198:test/test.c   ****   for(int i=0; i<500;i++){
 199:test/test.c   ****     printf(" ");
 200:test/test.c   ****   }
 201:test/test.c   **** 
 202:test/test.c   **** }
 203:test/test.c   **** 
 204:test/test.c   **** 
 205:test/test.c   **** void test_ksuba_school(uint16_t paramN)
 206:test/test.c   **** {
 841               	.LM32:
 842               	.LFBB7:
 843 0000 2F92      		push r2
 844 0002 3F92      		push r3
 845 0004 4F92      		push r4
 846 0006 5F92      		push r5
 847 0008 6F92      		push r6
 848 000a 7F92      		push r7
 849 000c 8F92      		push r8
 850 000e 9F92      		push r9
 851 0010 AF92      		push r10
 852 0012 BF92      		push r11
 853 0014 CF92      		push r12
 854 0016 DF92      		push r13
 855 0018 EF92      		push r14
 856 001a FF92      		push r15
 857 001c 0F93      		push r16
 858 001e 1F93      		push r17
 859 0020 CF93      		push r28
 860 0022 DF93      		push r29
 861 0024 0F92      		push __tmp_reg__
 862 0026 0F92      		push __tmp_reg__
 863 0028 CDB7      		in r28,__SP_L__
 864 002a DEB7      		in r29,__SP_H__
 865               	/* prologue: function */
 866               	/* frame size = 2 */
 867               	/* stack size = 20 */
 868               	.L__stack_usage = 20
 869 002c 8C01      		movw r16,r24
 207:test/test.c   ****   uint16_t resksuba[paramN];
 208:test/test.c   ****   uint16_t resschoolbook[paramN];
 209:test/test.c   **** 
 210:test/test.c   ****   uint16_t testpoly[paramN];
 211:test/test.c   **** 	
 212:test/test.c   ****   set_max_recursion_stages(5);
 213:test/test.c   **** 	
 214:test/test.c   ****   if(paramN == 192)
 215:test/test.c   ****     {
 216:test/test.c   ****       test_start("Testing Karatsuba and schoolbook multiplication with n = 192... ");
 217:test/test.c   ****     }
 218:test/test.c   ****   else if(paramN == 256)
 219:test/test.c   ****     {
 220:test/test.c   ****       test_start("Testing Karatsuba and schoolbook multiplication with n = 256... ");
 221:test/test.c   ****     }
 222:test/test.c   ****   else if(paramN == 320)
 223:test/test.c   ****     {
 224:test/test.c   ****       test_start("Testing Karatsuba and schoolbook multiplication with n = 320... ");
 225:test/test.c   ****     }	
 226:test/test.c   **** 	
 227:test/test.c   ****   for(int j = 0; j < 5; j++)
 228:test/test.c   ****     {
 229:test/test.c   ****       generateRandomPolyTable_4093(testpoly,paramN);
 230:test/test.c   **** 
 231:test/test.c   ****       // prvKeyR2_4093_320 -> flash adress is required, content doesnt matter
 232:test/test.c   ****       if(paramN == 192)
 233:test/test.c   **** 	{
 234:test/test.c   **** 	  karatsuba_4093_192(testpoly, prvKeyR2_4093_320, resksuba,0);
 235:test/test.c   **** 	  school_4093_192(testpoly, prvKeyR2_4093_320, resschoolbook);
 236:test/test.c   **** 					
 237:test/test.c   **** 	  for(int i = 0; i<paramN;i++){
 238:test/test.c   **** 	    if(resksuba[i] != resschoolbook[i]){
 239:test/test.c   **** 	      test_failed();
 240:test/test.c   **** 	      return;
 241:test/test.c   **** 	    }
 242:test/test.c   **** 	  }
 243:test/test.c   **** 	}
 244:test/test.c   **** 
 245:test/test.c   ****       else if(paramN == 256)
 246:test/test.c   **** 	{
 247:test/test.c   **** 	  karatsuba_4093_256(testpoly, prvKeyR2_4093_320, resksuba,0);
 248:test/test.c   **** 	  school_4093_256(testpoly, prvKeyR2_4093_320, resschoolbook);
 249:test/test.c   **** 			
 250:test/test.c   **** 	  for(int i = 0; i<paramN;i++){
 251:test/test.c   **** 	    if(resksuba[i] != resschoolbook[i]){
 252:test/test.c   **** 	      test_failed();
 253:test/test.c   **** 	      return;
 254:test/test.c   **** 	    }
 255:test/test.c   **** 	  }
 256:test/test.c   **** 	}
 257:test/test.c   **** 		
 258:test/test.c   ****       else if(paramN == 320)
 259:test/test.c   **** 	{
 260:test/test.c   **** 	  karatsuba_4093_320(testpoly, prvKeyR2_4093_320, resksuba,0);
 261:test/test.c   **** 	  school_4093_320(testpoly, prvKeyR2_4093_320, resschoolbook);
 262:test/test.c   **** 			
 263:test/test.c   **** 	  for(int i = 0; i<paramN;i++){
 264:test/test.c   **** 	    if(resksuba[i] != resschoolbook[i]){
 265:test/test.c   **** 	      test_failed();
 266:test/test.c   **** 	      return;
 267:test/test.c   **** 	    }
 268:test/test.c   **** 	  }
 269:test/test.c   **** 	}
 270:test/test.c   ****     }
 271:test/test.c   **** 	
 272:test/test.c   ****   test_passed();
 273:test/test.c   **** }
 871               	.LM33:
 872 002e 2DB7      		in r18,__SP_L__
 873 0030 3EB7      		in r19,__SP_H__
 874 0032 2983      		std Y+1,r18
 875 0034 3A83      		std Y+2,r19
 207:test/test.c   ****   uint16_t resksuba[paramN];
 877               	.LM34:
 878 0036 880F      		lsl r24
 879 0038 991F      		rol r25
 880 003a 281B      		sub r18,r24
 881 003c 390B      		sbc r19,r25
 882 003e 2DBF      		out __SP_L__,r18
 883 0040 3EBF      		out __SP_H__,r19
 884 0042 2F5F      		subi r18,-1
 885 0044 3F4F      		sbci r19,-1
 886 0046 7901      		movw r14,r18
 208:test/test.c   **** 
 888               	.LM35:
 889 0048 2DB7      		in r18,__SP_L__
 890 004a 3EB7      		in r19,__SP_H__
 891 004c 281B      		sub r18,r24
 892 004e 390B      		sbc r19,r25
 893 0050 2DBF      		out __SP_L__,r18
 894 0052 3EBF      		out __SP_H__,r19
 895 0054 2F5F      		subi r18,-1
 896 0056 3F4F      		sbci r19,-1
 897 0058 5901      		movw r10,r18
 210:test/test.c   **** 	
 899               	.LM36:
 900 005a 2DB7      		in r18,__SP_L__
 901 005c 3EB7      		in r19,__SP_H__
 902 005e 281B      		sub r18,r24
 903 0060 390B      		sbc r19,r25
 904 0062 2DBF      		out __SP_L__,r18
 905 0064 3EBF      		out __SP_H__,r19
 906 0066 8DB7      		in r24,__SP_L__
 907 0068 9EB7      		in r25,__SP_H__
 908 006a 0196      		adiw r24,1
 909 006c 6C01      		movw r12,r24
 212:test/test.c   **** 	
 911               	.LM37:
 912 006e 85E0      		ldi r24,lo8(5)
 913 0070 0E94 0000 		call set_max_recursion_stages
 216:test/test.c   ****     }
 915               	.LM38:
 916 0074 80E0      		ldi r24,lo8(.LC6)
 917 0076 90E0      		ldi r25,hi8(.LC6)
 214:test/test.c   ****     {
 919               	.LM39:
 920 0078 003C      		cpi r16,-64
 921 007a 1105      		cpc r17,__zero_reg__
 922 007c 01F0      		breq .L29
 218:test/test.c   ****     {
 924               	.LM40:
 925 007e 0115      		cp r16,__zero_reg__
 926 0080 91E0      		ldi r25,1
 927 0082 1907      		cpc r17,r25
 928 0084 01F0      		breq .+2
 929 0086 00C0      		rjmp .L14
 220:test/test.c   ****     }
 931               	.LM41:
 932 0088 80E0      		ldi r24,lo8(.LC7)
 933 008a 90E0      		ldi r25,hi8(.LC7)
 934               	.L29:
 224:test/test.c   ****     }	
 936               	.LM42:
 937 008c 0E94 0000 		call test_start
 938               	.L13:
 206:test/test.c   ****   uint16_t resksuba[paramN];
 940               	.LM43:
 941 0090 85E0      		ldi r24,lo8(5)
 942 0092 882E      		mov r8,r24
 943 0094 912C      		mov r9,__zero_reg__
 944 0096 1701      		movw r2,r14
 945 0098 30E8      		ldi r19,-128
 946 009a 231A      		sub r2,r19
 947 009c 3DEF      		ldi r19,-3
 948 009e 330A      		sbc r3,r19
 949 00a0 2701      		movw r4,r14
 950 00a2 8EEF      		ldi r24,-2
 951 00a4 581A      		sub r5,r24
 952 00a6 3701      		movw r6,r14
 953 00a8 90E8      		ldi r25,-128
 954 00aa 691A      		sub r6,r25
 955 00ac 9EEF      		ldi r25,-2
 956 00ae 790A      		sbc r7,r25
 957               	.L24:
 958               	.LBB10:
 229:test/test.c   **** 
 960               	.LM44:
 961 00b0 B801      		movw r22,r16
 962 00b2 C601      		movw r24,r12
 963 00b4 0E94 0000 		call generateRandomPolyTable_4093
 232:test/test.c   **** 	{
 965               	.LM45:
 966 00b8 003C      		cpi r16,-64
 967 00ba 1105      		cpc r17,__zero_reg__
 968 00bc 01F0      		breq .+2
 969 00be 00C0      		rjmp .L15
 234:test/test.c   **** 	  school_4093_192(testpoly, prvKeyR2_4093_320, resschoolbook);
 971               	.LM46:
 972 00c0 30E0      		ldi r19,0
 973 00c2 20E0      		ldi r18,0
 974 00c4 A701      		movw r20,r14
 975 00c6 60E0      		ldi r22,lo8(prvKeyR2_4093_320)
 976 00c8 70E0      		ldi r23,hi8(prvKeyR2_4093_320)
 977 00ca C601      		movw r24,r12
 978 00cc 0E94 0000 		call karatsuba_4093_192
 235:test/test.c   **** 					
 980               	.LM47:
 981 00d0 A501      		movw r20,r10
 982 00d2 60E0      		ldi r22,lo8(prvKeyR2_4093_320)
 983 00d4 70E0      		ldi r23,hi8(prvKeyR2_4093_320)
 984 00d6 C601      		movw r24,r12
 985 00d8 0E94 0000 		call school_4093_192
 986 00dc F701      		movw r30,r14
 987 00de D501      		movw r26,r10
 988               	.L18:
 989               	.LBB11:
 238:test/test.c   **** 	      test_failed();
 991               	.LM48:
 992 00e0 2191      		ld r18,Z+
 993 00e2 3191      		ld r19,Z+
 238:test/test.c   **** 	      test_failed();
 995               	.LM49:
 996 00e4 8D91      		ld r24,X+
 997 00e6 9D91      		ld r25,X+
 238:test/test.c   **** 	      test_failed();
 999               	.LM50:
 1000 00e8 2817      		cp r18,r24
 1001 00ea 3907      		cpc r19,r25
 1002 00ec 01F0      		breq .L16
 1003               	.L21:
 239:test/test.c   **** 	      return;
 1005               	.LM51:
 1006 00ee 0E94 0000 		call test_failed
 1007               	.L30:
 1008 00f2 2981      		ldd r18,Y+1
 1009 00f4 3A81      		ldd r19,Y+2
 1010 00f6 2DBF      		out __SP_L__,r18
 1011 00f8 3EBF      		out __SP_H__,r19
 1012               	.LBE11:
 1013               	.LBE10:
 1015               	.LM52:
 1016 00fa 8981      		ldd r24,Y+1
 1017 00fc 9A81      		ldd r25,Y+2
 1018 00fe 8DBF      		out __SP_L__,r24
 1019 0100 9EBF      		out __SP_H__,r25
 1020               	/* epilogue start */
 1021 0102 0F90      		pop __tmp_reg__
 1022 0104 0F90      		pop __tmp_reg__
 1023 0106 DF91      		pop r29
 1024 0108 CF91      		pop r28
 1025 010a 1F91      		pop r17
 1026 010c 0F91      		pop r16
 1027 010e FF90      		pop r15
 1028 0110 EF90      		pop r14
 1029 0112 DF90      		pop r13
 1030 0114 CF90      		pop r12
 1031 0116 BF90      		pop r11
 1032 0118 AF90      		pop r10
 1033 011a 9F90      		pop r9
 1034 011c 8F90      		pop r8
 1035 011e 7F90      		pop r7
 1036 0120 6F90      		pop r6
 1037 0122 5F90      		pop r5
 1038 0124 4F90      		pop r4
 1039 0126 3F90      		pop r3
 1040 0128 2F90      		pop r2
 1041 012a 0895      		ret
 1042               	.L14:
 222:test/test.c   ****     {
 1044               	.LM53:
 1045 012c 0034      		cpi r16,64
 1046 012e 21E0      		ldi r18,1
 1047 0130 1207      		cpc r17,r18
 1048 0132 01F0      		breq .+2
 1049 0134 00C0      		rjmp .L13
 224:test/test.c   ****     }	
 1051               	.LM54:
 1052 0136 80E0      		ldi r24,lo8(.LC8)
 1053 0138 90E0      		ldi r25,hi8(.LC8)
 1054 013a 00C0      		rjmp .L29
 1055               	.L16:
 1056               	.LBB15:
 1057               	.LBB12:
 237:test/test.c   **** 	    if(resksuba[i] != resschoolbook[i]){
 1059               	.LM55:
 1060 013c E615      		cp r30,r6
 1061 013e F705      		cpc r31,r7
 1062 0140 01F4      		brne .L18
 1063               	.L19:
 1064 0142 91E0      		ldi r25,1
 1065 0144 891A      		sub r8,r25
 1066 0146 9108      		sbc r9,__zero_reg__
 1067               	.LBE12:
 227:test/test.c   ****     {
 1069               	.LM56:
 1070 0148 01F0      		breq .+2
 1071 014a 00C0      		rjmp .L24
 1072               	.LBE15:
 272:test/test.c   **** }
 1074               	.LM57:
 1075 014c 0E94 0000 		call test_passed
 1076 0150 00C0      		rjmp .L30
 1077               	.L15:
 1078               	.LBB16:
 245:test/test.c   **** 	{
 1080               	.LM58:
 1081 0152 0115      		cp r16,__zero_reg__
 1082 0154 31E0      		ldi r19,1
 1083 0156 1307      		cpc r17,r19
 1084 0158 01F4      		brne .L20
 247:test/test.c   **** 	  school_4093_256(testpoly, prvKeyR2_4093_320, resschoolbook);
 1086               	.LM59:
 1087 015a 30E0      		ldi r19,0
 1088 015c 20E0      		ldi r18,0
 1089 015e A701      		movw r20,r14
 1090 0160 60E0      		ldi r22,lo8(prvKeyR2_4093_320)
 1091 0162 70E0      		ldi r23,hi8(prvKeyR2_4093_320)
 1092 0164 C601      		movw r24,r12
 1093 0166 0E94 0000 		call karatsuba_4093_256
 248:test/test.c   **** 			
 1095               	.LM60:
 1096 016a A501      		movw r20,r10
 1097 016c 60E0      		ldi r22,lo8(prvKeyR2_4093_320)
 1098 016e 70E0      		ldi r23,hi8(prvKeyR2_4093_320)
 1099 0170 C601      		movw r24,r12
 1100 0172 0E94 0000 		call school_4093_256
 1101 0176 F701      		movw r30,r14
 1102 0178 D501      		movw r26,r10
 1103               	.L22:
 1104               	.LBB13:
 251:test/test.c   **** 	      test_failed();
 1106               	.LM61:
 1107 017a 2191      		ld r18,Z+
 1108 017c 3191      		ld r19,Z+
 251:test/test.c   **** 	      test_failed();
 1110               	.LM62:
 1111 017e 8D91      		ld r24,X+
 1112 0180 9D91      		ld r25,X+
 251:test/test.c   **** 	      test_failed();
 1114               	.LM63:
 1115 0182 2817      		cp r18,r24
 1116 0184 3907      		cpc r19,r25
 1117 0186 01F0      		breq .+2
 1118 0188 00C0      		rjmp .L21
 250:test/test.c   **** 	    if(resksuba[i] != resschoolbook[i]){
 1120               	.LM64:
 1121 018a E415      		cp r30,r4
 1122 018c F505      		cpc r31,r5
 1123 018e 01F4      		brne .L22
 1124 0190 00C0      		rjmp .L19
 1125               	.L20:
 1126               	.LBE13:
 258:test/test.c   **** 	{
 1128               	.LM65:
 1129 0192 0034      		cpi r16,64
 1130 0194 81E0      		ldi r24,1
 1131 0196 1807      		cpc r17,r24
 1132 0198 01F4      		brne .L19
 260:test/test.c   **** 	  school_4093_320(testpoly, prvKeyR2_4093_320, resschoolbook);
 1134               	.LM66:
 1135 019a 30E0      		ldi r19,0
 1136 019c 20E0      		ldi r18,0
 1137 019e A701      		movw r20,r14
 1138 01a0 60E0      		ldi r22,lo8(prvKeyR2_4093_320)
 1139 01a2 70E0      		ldi r23,hi8(prvKeyR2_4093_320)
 1140 01a4 C601      		movw r24,r12
 1141 01a6 0E94 0000 		call karatsuba_4093_320
 261:test/test.c   **** 			
 1143               	.LM67:
 1144 01aa A501      		movw r20,r10
 1145 01ac 60E0      		ldi r22,lo8(prvKeyR2_4093_320)
 1146 01ae 70E0      		ldi r23,hi8(prvKeyR2_4093_320)
 1147 01b0 C601      		movw r24,r12
 1148 01b2 0E94 0000 		call school_4093_320
 1149 01b6 F701      		movw r30,r14
 1150 01b8 D501      		movw r26,r10
 1151               	.L23:
 1152               	.LBB14:
 264:test/test.c   **** 	      test_failed();
 1154               	.LM68:
 1155 01ba 2191      		ld r18,Z+
 1156 01bc 3191      		ld r19,Z+
 264:test/test.c   **** 	      test_failed();
 1158               	.LM69:
 1159 01be 8D91      		ld r24,X+
 1160 01c0 9D91      		ld r25,X+
 264:test/test.c   **** 	      test_failed();
 1162               	.LM70:
 1163 01c2 2817      		cp r18,r24
 1164 01c4 3907      		cpc r19,r25
 1165 01c6 01F0      		breq .+2
 1166 01c8 00C0      		rjmp .L21
 263:test/test.c   **** 	    if(resksuba[i] != resschoolbook[i]){
 1168               	.LM71:
 1169 01ca E215      		cp r30,r2
 1170 01cc F305      		cpc r31,r3
 1171 01ce 01F4      		brne .L23
 1172 01d0 00C0      		rjmp .L19
 1173               	.LBE14:
 1174               	.LBE16:
 1176               	.Lscope7:
 1177               		.section	.rodata.testEncryptionAndDecryption_NTT_7681_256.str1.1,"aMS",@progbits,1
 1178               	.LC10:
 1179 0000 5465 7374 		.string	"Testing Encryption and Decryption (NTT, n = 256, q = 7681)... "
 1179      696E 6720 
 1179      456E 6372 
 1179      7970 7469 
 1179      6F6E 2061 
 1180               	.LC9:
 1181 003f 2170 6C61 		.string	"!plaintexttest!!!plaintexttest!!"
 1181      696E 7465 
 1181      7874 7465 
 1181      7374 2121 
 1181      2170 6C61 
 1182               		.section	.text.testEncryptionAndDecryption_NTT_7681_256,"ax",@progbits
 1184               	.global	testEncryptionAndDecryption_NTT_7681_256
 1186               	testEncryptionAndDecryption_NTT_7681_256:
 274:test/test.c   **** 
 275:test/test.c   **** // 
 276:test/test.c   **** // void testpwmul(void)
 277:test/test.c   **** // {
 278:test/test.c   **** // 	struct polynomial testpoly;
 279:test/test.c   **** // 	struct polynomial testpoly2;
 280:test/test.c   **** // 	
 281:test/test.c   **** // 	uint16_t res[nP];
 282:test/test.c   **** // 	uint16_t res2[nP];
 283:test/test.c   **** // 
 284:test/test.c   **** // 	test_start("Testing pointwise multiplication... ");
 285:test/test.c   **** // 	
 286:test/test.c   **** // 	for(int j = 0; j<5; j++)
 287:test/test.c   **** //     {
 288:test/test.c   **** // 		generateRandomPolyTable(testpoly.coeffs);
 289:test/test.c   **** // 		generateRandomPolyTable(testpoly2.coeffs);
 290:test/test.c   **** // 
 291:test/test.c   **** // 		pw_mul(testpoly.coeffs,testpoly2.coeffs,res);
 292:test/test.c   **** // 		check_pw_mul(testpoly.coeffs,testpoly2.coeffs,res2);
 293:test/test.c   **** // 	
 294:test/test.c   **** // 		for(int i = 0; i<nP;i++)
 295:test/test.c   **** // 		{
 296:test/test.c   **** // 			if(res[i] != res2[i])
 297:test/test.c   **** // 			{
 298:test/test.c   **** // 				test_failed();
 299:test/test.c   **** // 				return;
 300:test/test.c   **** // 			}
 301:test/test.c   **** // 		}
 302:test/test.c   **** //     }
 303:test/test.c   **** // 	
 304:test/test.c   **** // 	test_passed();
 305:test/test.c   **** // }
 306:test/test.c   **** // 
 307:test/test.c   **** // void testbitrev(void)
 308:test/test.c   **** // {
 309:test/test.c   **** // 	struct polynomial testpoly;
 310:test/test.c   **** // 	struct polynomial testpoly2;
 311:test/test.c   **** // 	
 312:test/test.c   **** // 	
 313:test/test.c   **** // 	test_start("Testing bitrev... ");
 314:test/test.c   **** // 	
 315:test/test.c   **** // 	for(int j = 0; j<5; j++)
 316:test/test.c   **** //     {
 317:test/test.c   **** // 		generateRandomPolyTable(testpoly.coeffs);
 318:test/test.c   **** // 		
 319:test/test.c   **** // 		for(int i = 0; i<nP;i++)
 320:test/test.c   **** // 		{
 321:test/test.c   **** // 		  testpoly2.coeffs[i] = testpoly.coeffs[i];
 322:test/test.c   **** // 		}
 323:test/test.c   **** // 		
 324:test/test.c   **** // 		 bitrev(testpoly.coeffs);
 325:test/test.c   **** // 		 check_bitrev(testpoly2.coeffs);
 326:test/test.c   **** // 	
 327:test/test.c   **** // 		for(int i = 0; i<nP;i++)
 328:test/test.c   **** // 		{
 329:test/test.c   **** // 			if(testpoly.coeffs[i] != testpoly2.coeffs[i])
 330:test/test.c   **** // 			{
 331:test/test.c   **** // 				test_failed();
 332:test/test.c   **** // 				return;
 333:test/test.c   **** // 			}
 334:test/test.c   **** // 		}
 335:test/test.c   **** //     }
 336:test/test.c   **** // 	
 337:test/test.c   **** //   test_passed();
 338:test/test.c   **** // }
 339:test/test.c   **** 
 340:test/test.c   **** 	
 341:test/test.c   **** 
 342:test/test.c   **** void testEncryptionAndDecryption_NTT_7681_256(void)
 343:test/test.c   **** {	
 1188               	.LM72:
 1189               	.LFBB8:
 1190 0000 AF92      		push r10
 1191 0002 BF92      		push r11
 1192 0004 CF92      		push r12
 1193 0006 DF92      		push r13
 1194 0008 EF92      		push r14
 1195 000a FF92      		push r15
 1196 000c 0F93      		push r16
 1197 000e 1F93      		push r17
 1198 0010 CF93      		push r28
 1199 0012 DF93      		push r29
 1200 0014 CDB7      		in r28,__SP_L__
 1201 0016 DEB7      		in r29,__SP_H__
 1202 0018 C254      		subi r28,66
 1203 001a D440      		sbci r29,4
 1204 001c CDBF      		out __SP_L__,r28
 1205 001e DEBF      		out __SP_H__,r29
 1206               	/* prologue: function */
 1207               	/* frame size = 1090 */
 1208               	/* stack size = 1100 */
 1209               	.L__stack_usage = 1100
 344:test/test.c   ****   // Ciphertext
 345:test/test.c   ****   uint16_t c1[256];
 346:test/test.c   ****   uint16_t c2[256];
 347:test/test.c   **** 	
 348:test/test.c   ****   uint8_t plaintext[256/8+1] = "!plaintexttest!!!plaintexttest!!";
 1211               	.LM73:
 1212 0020 81E2      		ldi r24,lo8(33)
 1213 0022 E0E0      		ldi r30,lo8(.LC9)
 1214 0024 F0E0      		ldi r31,hi8(.LC9)
 1215 0026 DE01      		movw r26,r28
 1216 0028 AE5D      		subi r26,-34
 1217 002a BB4F      		sbci r27,-5
 1218               		0:
 1219 002c 0190      		ld r0,Z+
 1220 002e 0D92      		st X+,r0
 1221 0030 8A95      		dec r24
 1222 0032 01F4      		brne 0b
 349:test/test.c   ****   uint8_t check[256/8+1] = "!plaintexttest!!!plaintexttest!!";
 1224               	.LM74:
 1225 0034 81E2      		ldi r24,lo8(33)
 1226 0036 E0E0      		ldi r30,lo8(.LC9)
 1227 0038 F0E0      		ldi r31,hi8(.LC9)
 1228 003a DE01      		movw r26,r28
 1229 003c AF5F      		subi r26,-1
 1230 003e BB4F      		sbci r27,-5
 1231               		0:
 1232 0040 0190      		ld r0,Z+
 1233 0042 0D92      		st X+,r0
 1234 0044 8A95      		dec r24
 1235 0046 01F4      		brne 0b
 350:test/test.c   **** 
 351:test/test.c   **** 	
 352:test/test.c   ****   test_start("Testing Encryption and Decryption (NTT, n = 256, q = 7681)... ");
 1237               	.LM75:
 1238 0048 80E0      		ldi r24,lo8(.LC10)
 1239 004a 90E0      		ldi r25,hi8(.LC10)
 1240 004c 0E94 0000 		call test_start
 353:test/test.c   **** 	
 354:test/test.c   ****   encrypt_7681_256(plaintext, c1, c2, pubKeyA_7681_256, pubKeyP_7681_256);
 1242               	.LM76:
 1243 0050 00E0      		ldi r16,lo8(pubKeyP_7681_256)
 1244 0052 10E0      		ldi r17,hi8(pubKeyP_7681_256)
 1245 0054 20E0      		ldi r18,lo8(pubKeyA_7681_256)
 1246 0056 30E0      		ldi r19,hi8(pubKeyA_7681_256)
 1247 0058 AE01      		movw r20,r28
 1248 005a 4F5F      		subi r20,-1
 1249 005c 5F4F      		sbci r21,-1
 1250 005e BE01      		movw r22,r28
 1251 0060 6F5F      		subi r22,-1
 1252 0062 7D4F      		sbci r23,-3
 1253 0064 CE01      		movw r24,r28
 1254 0066 8E5D      		subi r24,-34
 1255 0068 9B4F      		sbci r25,-5
 1256 006a 0E94 0000 		call encrypt_7681_256
 1257 006e CE01      		movw r24,r28
 1258 0070 8E5D      		subi r24,-34
 1259 0072 9B4F      		sbci r25,-5
 1260 0074 5C01      		movw r10,r24
 1261 0076 6C01      		movw r12,r24
 1262 0078 90E2      		ldi r25,32
 1263 007a C90E      		add r12,r25
 1264 007c D11C      		adc r13,__zero_reg__
 1265 007e F501      		movw r30,r10
 1266               	.L32:
 1267               	.LBB17:
 355:test/test.c   **** 				
 356:test/test.c   ****   for(int i = 0; i<256/8; i++)
 357:test/test.c   ****     {
 358:test/test.c   ****       plaintext[i] = 0;
 1269               	.LM77:
 1270 0080 1192      		st Z+,__zero_reg__
 356:test/test.c   ****     {
 1272               	.LM78:
 1273 0082 EC15      		cp r30,r12
 1274 0084 FD05      		cpc r31,r13
 1275 0086 01F4      		brne .L32
 1276               	.LBE17:
 359:test/test.c   ****     }
 360:test/test.c   **** 
 361:test/test.c   ****   decrypt_7681_256(plaintext, c1, c2, prvKeyR2_7681_256);
 1278               	.LM79:
 1279 0088 20E0      		ldi r18,lo8(prvKeyR2_7681_256)
 1280 008a 30E0      		ldi r19,hi8(prvKeyR2_7681_256)
 1281 008c AE01      		movw r20,r28
 1282 008e 4F5F      		subi r20,-1
 1283 0090 5F4F      		sbci r21,-1
 1284 0092 BE01      		movw r22,r28
 1285 0094 6F5F      		subi r22,-1
 1286 0096 7D4F      		sbci r23,-3
 1287 0098 CE01      		movw r24,r28
 1288 009a 8E5D      		subi r24,-34
 1289 009c 9B4F      		sbci r25,-5
 1290 009e 0E94 0000 		call decrypt_7681_256
 1291 00a2 FE01      		movw r30,r28
 1292 00a4 EF5F      		subi r30,-1
 1293 00a6 FB4F      		sbci r31,-5
 1294 00a8 7F01      		movw r14,r30
 1295 00aa DF01      		movw r26,r30
 1296 00ac B196      		adiw r30,33
 1297               	.L35:
 1298               	.LBB18:
 362:test/test.c   **** 	
 363:test/test.c   ****   for(int i = 0; i<256/8; i++)
 364:test/test.c   ****     {
 365:test/test.c   ****       if(plaintext[i] != check[i])
 1300               	.LM80:
 1301 00ae 9191      		ld r25,Z+
 1303               	.LM81:
 1304 00b0 8D91      		ld r24,X+
 1306               	.LM82:
 1307 00b2 9817      		cp r25,r24
 1308 00b4 01F0      		breq .L33
 1309               	.L44:
 1310               	.LBE18:
 366:test/test.c   **** 	{
 367:test/test.c   **** 	  test_failed();
 368:test/test.c   **** 	  plaintext[i] = check[i];
 369:test/test.c   **** 	  return;	
 370:test/test.c   **** 	}
 371:test/test.c   ****     }
 372:test/test.c   **** 
 373:test/test.c   **** 
 374:test/test.c   ****   // plaintext changed, test should fail now
 375:test/test.c   ****   plaintext[0]++;
 376:test/test.c   **** 
 377:test/test.c   ****   encrypt_7681_256(plaintext, c1, c2, pubKeyA_7681_256, pubKeyP_7681_256);
 378:test/test.c   **** 				
 379:test/test.c   ****   for(int i = 0; i<256/8; i++)
 380:test/test.c   ****     {
 381:test/test.c   ****       plaintext[i] = 0;
 382:test/test.c   ****     }
 383:test/test.c   **** 
 384:test/test.c   ****   decrypt_7681_256(plaintext, c1, c2, prvKeyR2_7681_256);
 385:test/test.c   **** 	
 386:test/test.c   ****   for(int i = 0; i<256/8; i++)
 387:test/test.c   ****     {
 388:test/test.c   ****       if(plaintext[i] != check[i])
 389:test/test.c   **** 	{
 390:test/test.c   **** 	  test_passed();
 391:test/test.c   **** 	  plaintext[i] = check[i];
 392:test/test.c   **** 	  return;	
 393:test/test.c   **** 	}
 394:test/test.c   ****     } 
 395:test/test.c   **** 
 396:test/test.c   ****   test_failed();
 1312               	.LM83:
 1313 00b6 0E94 0000 		call test_failed
 1314 00ba 00C0      		rjmp .L31
 1315               	.L33:
 1316               	.LBB19:
 363:test/test.c   ****     {
 1318               	.LM84:
 1319 00bc EC15      		cp r30,r12
 1320 00be FD05      		cpc r31,r13
 1321 00c0 01F4      		brne .L35
 1322               	.LBE19:
 375:test/test.c   **** 
 1324               	.LM85:
 1325 00c2 CE5D      		subi r28,lo8(-1058)
 1326 00c4 DB4F      		sbci r29,hi8(-1058)
 1327 00c6 8881      		ld r24,Y
 1328 00c8 C252      		subi r28,lo8(1058)
 1329 00ca D440      		sbci r29,hi8(1058)
 1330 00cc 8F5F      		subi r24,lo8(-(1))
 1331 00ce CE5D      		subi r28,lo8(-1058)
 1332 00d0 DB4F      		sbci r29,hi8(-1058)
 1333 00d2 8883      		st Y,r24
 1334 00d4 C252      		subi r28,lo8(1058)
 1335 00d6 D440      		sbci r29,hi8(1058)
 377:test/test.c   **** 				
 1337               	.LM86:
 1338 00d8 00E0      		ldi r16,lo8(pubKeyP_7681_256)
 1339 00da 10E0      		ldi r17,hi8(pubKeyP_7681_256)
 1340 00dc 20E0      		ldi r18,lo8(pubKeyA_7681_256)
 1341 00de 30E0      		ldi r19,hi8(pubKeyA_7681_256)
 1342 00e0 AE01      		movw r20,r28
 1343 00e2 4F5F      		subi r20,-1
 1344 00e4 5F4F      		sbci r21,-1
 1345 00e6 BE01      		movw r22,r28
 1346 00e8 6F5F      		subi r22,-1
 1347 00ea 7D4F      		sbci r23,-3
 1348 00ec CE01      		movw r24,r28
 1349 00ee 8E5D      		subi r24,-34
 1350 00f0 9B4F      		sbci r25,-5
 1351 00f2 0E94 0000 		call encrypt_7681_256
 1352 00f6 FE01      		movw r30,r28
 1353 00f8 EE5D      		subi r30,-34
 1354 00fa FB4F      		sbci r31,-5
 1355               	.L36:
 1356               	.LBB20:
 381:test/test.c   ****     }
 1358               	.LM87:
 1359 00fc 1192      		st Z+,__zero_reg__
 379:test/test.c   ****     {
 1361               	.LM88:
 1362 00fe EC15      		cp r30,r12
 1363 0100 FD05      		cpc r31,r13
 1364 0102 01F4      		brne .L36
 1365               	.LBE20:
 384:test/test.c   **** 	
 1367               	.LM89:
 1368 0104 20E0      		ldi r18,lo8(prvKeyR2_7681_256)
 1369 0106 30E0      		ldi r19,hi8(prvKeyR2_7681_256)
 1370 0108 AE01      		movw r20,r28
 1371 010a 4F5F      		subi r20,-1
 1372 010c 5F4F      		sbci r21,-1
 1373 010e BE01      		movw r22,r28
 1374 0110 6F5F      		subi r22,-1
 1375 0112 7D4F      		sbci r23,-3
 1376 0114 CE01      		movw r24,r28
 1377 0116 8E5D      		subi r24,-34
 1378 0118 9B4F      		sbci r25,-5
 1379 011a 0E94 0000 		call decrypt_7681_256
 1380               	.L38:
 1381               	.LBB21:
 388:test/test.c   **** 	{
 1383               	.LM90:
 1384 011e F501      		movw r30,r10
 1385 0120 9191      		ld r25,Z+
 1386 0122 5F01      		movw r10,r30
 388:test/test.c   **** 	{
 1388               	.LM91:
 1389 0124 F701      		movw r30,r14
 1390 0126 8191      		ld r24,Z+
 1391 0128 7F01      		movw r14,r30
 388:test/test.c   **** 	{
 1393               	.LM92:
 1394 012a 9817      		cp r25,r24
 1395 012c 01F0      		breq .L37
 390:test/test.c   **** 	  plaintext[i] = check[i];
 1397               	.LM93:
 1398 012e 0E94 0000 		call test_passed
 1399               	.L31:
 1400               	/* epilogue start */
 1401               	.LBE21:
 397:test/test.c   **** 	
 398:test/test.c   ****   //################################
 399:test/test.c   **** }
 1403               	.LM94:
 1404 0132 CE5B      		subi r28,-66
 1405 0134 DB4F      		sbci r29,-5
 1406 0136 CDBF      		out __SP_L__,r28
 1407 0138 DEBF      		out __SP_H__,r29
 1408 013a DF91      		pop r29
 1409 013c CF91      		pop r28
 1410 013e 1F91      		pop r17
 1411 0140 0F91      		pop r16
 1412 0142 FF90      		pop r15
 1413 0144 EF90      		pop r14
 1414 0146 DF90      		pop r13
 1415 0148 CF90      		pop r12
 1416 014a BF90      		pop r11
 1417 014c AF90      		pop r10
 1418 014e 0895      		ret
 1419               	.L37:
 1420               	.LBB22:
 386:test/test.c   ****     {
 1422               	.LM95:
 1423 0150 AC14      		cp r10,r12
 1424 0152 BD04      		cpc r11,r13
 1425 0154 01F4      		brne .L38
 1426 0156 00C0      		rjmp .L44
 1427               	.LBE22:
 1435               	.Lscope8:
 1436               		.section	.rodata.testEncryptionAndDecryption_NTT_12289_512.str1.1,"aMS",@progbits,1
 1437               	.LC12:
 1438 0000 5465 7374 		.string	"Testing Encryption and Decryption (NTT, n = 512, q = 12289)... "
 1438      696E 6720 
 1438      456E 6372 
 1438      7970 7469 
 1438      6F6E 2061 
 1439               	.LC11:
 1440 0040 2170 6C61 		.string	"!plaintexttest!!!plaintexttest!!!plaintexttest!!!plaintexttest!!"
 1440      696E 7465 
 1440      7874 7465 
 1440      7374 2121 
 1440      2170 6C61 
 1441               		.section	.text.testEncryptionAndDecryption_NTT_12289_512,"ax",@progbits
 1443               	.global	testEncryptionAndDecryption_NTT_12289_512
 1445               	testEncryptionAndDecryption_NTT_12289_512:
 400:test/test.c   **** 	
 401:test/test.c   **** void testEncryptionAndDecryption_NTT_12289_512(void)
 402:test/test.c   **** {
 1447               	.LM96:
 1448               	.LFBB9:
 1449 0000 EF92      		push r14
 1450 0002 FF92      		push r15
 1451 0004 0F93      		push r16
 1452 0006 1F93      		push r17
 1453 0008 CF93      		push r28
 1454 000a DF93      		push r29
 1455 000c CDB7      		in r28,__SP_L__
 1456 000e DEB7      		in r29,__SP_H__
 1457 0010 C258      		subi r28,-126
 1458 0012 D840      		sbci r29,8
 1459 0014 CDBF      		out __SP_L__,r28
 1460 0016 DEBF      		out __SP_H__,r29
 1461               	/* prologue: function */
 1462               	/* frame size = 2178 */
 1463               	/* stack size = 2184 */
 1464               	.L__stack_usage = 2184
 403:test/test.c   ****   // Ciphertext
 404:test/test.c   ****   uint16_t c1[512];
 405:test/test.c   ****   uint16_t c2[512];
 406:test/test.c   **** 	
 407:test/test.c   ****   uint8_t plaintext[512/8+1] = "!plaintexttest!!!plaintexttest!!!plaintexttest!!!plaintexttest!!";
 1466               	.LM97:
 1467 0018 81E4      		ldi r24,lo8(65)
 1468 001a E0E0      		ldi r30,lo8(.LC11)
 1469 001c F0E0      		ldi r31,hi8(.LC11)
 1470 001e DE01      		movw r26,r28
 1471 0020 AE5B      		subi r26,-66
 1472 0022 B74F      		sbci r27,-9
 1473               		0:
 1474 0024 0190      		ld r0,Z+
 1475 0026 0D92      		st X+,r0
 1476 0028 8A95      		dec r24
 1477 002a 01F4      		brne 0b
 408:test/test.c   ****   uint8_t check[512/8+1]     = "!plaintexttest!!!plaintexttest!!!plaintexttest!!!plaintexttest!!";
 1479               	.LM98:
 1480 002c 81E4      		ldi r24,lo8(65)
 1481 002e E0E0      		ldi r30,lo8(.LC11)
 1482 0030 F0E0      		ldi r31,hi8(.LC11)
 1483 0032 DE01      		movw r26,r28
 1484 0034 AF5F      		subi r26,-1
 1485 0036 B74F      		sbci r27,-9
 1486               		0:
 1487 0038 0190      		ld r0,Z+
 1488 003a 0D92      		st X+,r0
 1489 003c 8A95      		dec r24
 1490 003e 01F4      		brne 0b
 409:test/test.c   **** 	
 410:test/test.c   ****   test_start("Testing Encryption and Decryption (NTT, n = 512, q = 12289)... ");
 1492               	.LM99:
 1493 0040 80E0      		ldi r24,lo8(.LC12)
 1494 0042 90E0      		ldi r25,hi8(.LC12)
 1495 0044 0E94 0000 		call test_start
 411:test/test.c   **** 	
 412:test/test.c   ****   encrypt_12289_512(plaintext, c1, c2, pubKeyA_12289_512, pubKeyP_12289_512);
 1497               	.LM100:
 1498 0048 00E0      		ldi r16,lo8(pubKeyP_12289_512)
 1499 004a 10E0      		ldi r17,hi8(pubKeyP_12289_512)
 1500 004c 20E0      		ldi r18,lo8(pubKeyA_12289_512)
 1501 004e 30E0      		ldi r19,hi8(pubKeyA_12289_512)
 1502 0050 AE01      		movw r20,r28
 1503 0052 4F5F      		subi r20,-1
 1504 0054 5F4F      		sbci r21,-1
 1505 0056 BE01      		movw r22,r28
 1506 0058 6F5F      		subi r22,-1
 1507 005a 7B4F      		sbci r23,-5
 1508 005c CE01      		movw r24,r28
 1509 005e 8E5B      		subi r24,-66
 1510 0060 974F      		sbci r25,-9
 1511 0062 0E94 0000 		call encrypt_12289_512
 1512 0066 8E01      		movw r16,r28
 1513 0068 0E5B      		subi r16,-66
 1514 006a 174F      		sbci r17,-9
 1515 006c 7E01      		movw r14,r28
 1516 006e 8EE7      		ldi r24,126
 1517 0070 E81A      		sub r14,r24
 1518 0072 87EF      		ldi r24,-9
 1519 0074 F80A      		sbc r15,r24
 1520 0076 F801      		movw r30,r16
 1521               	.L46:
 1522               	.LBB23:
 413:test/test.c   **** 				
 414:test/test.c   ****   for(int i = 0; i<512/8; i++)
 415:test/test.c   ****     {
 416:test/test.c   ****       plaintext[i] = 0;
 1524               	.LM101:
 1525 0078 1192      		st Z+,__zero_reg__
 414:test/test.c   ****     {
 1527               	.LM102:
 1528 007a EE15      		cp r30,r14
 1529 007c FF05      		cpc r31,r15
 1530 007e 01F4      		brne .L46
 1531               	.LBE23:
 417:test/test.c   ****     }
 418:test/test.c   **** 
 419:test/test.c   ****   decrypt_12289_512(plaintext, c1, c2, prvKeyR2_12289_512);
 1533               	.LM103:
 1534 0080 20E0      		ldi r18,lo8(prvKeyR2_12289_512)
 1535 0082 30E0      		ldi r19,hi8(prvKeyR2_12289_512)
 1536 0084 AE01      		movw r20,r28
 1537 0086 4F5F      		subi r20,-1
 1538 0088 5F4F      		sbci r21,-1
 1539 008a BE01      		movw r22,r28
 1540 008c 6F5F      		subi r22,-1
 1541 008e 7B4F      		sbci r23,-5
 1542 0090 CE01      		movw r24,r28
 1543 0092 8E5B      		subi r24,-66
 1544 0094 974F      		sbci r25,-9
 1545 0096 0E94 0000 		call decrypt_12289_512
 1546 009a FE01      		movw r30,r28
 1547 009c EF5F      		subi r30,-1
 1548 009e F74F      		sbci r31,-9
 1549               	.L49:
 1550               	.LBB24:
 420:test/test.c   **** 	
 421:test/test.c   ****   for(int i = 0; i<512/8; i++)
 422:test/test.c   ****     {
 423:test/test.c   ****       if(plaintext[i] != check[i])
 1552               	.LM104:
 1553 00a0 D801      		movw r26,r16
 1554 00a2 9D91      		ld r25,X+
 1555 00a4 8D01      		movw r16,r26
 1557               	.LM105:
 1558 00a6 8191      		ld r24,Z+
 1560               	.LM106:
 1561 00a8 9817      		cp r25,r24
 1562 00aa 01F0      		breq .L47
 424:test/test.c   **** 	{
 425:test/test.c   **** 	  test_failed();
 1564               	.LM107:
 1565 00ac 0E94 0000 		call test_failed
 1566               	.L45:
 1567               	/* epilogue start */
 1568               	.LBE24:
 426:test/test.c   **** 	  plaintext[i] = check[i];
 427:test/test.c   **** 	  return;	
 428:test/test.c   **** 	}
 429:test/test.c   ****     }
 430:test/test.c   **** 	
 431:test/test.c   ****   test_passed();
 432:test/test.c   **** 	
 433:test/test.c   ****   //################################
 434:test/test.c   **** }
 1570               	.LM108:
 1571 00b0 CE57      		subi r28,126
 1572 00b2 D74F      		sbci r29,-9
 1573 00b4 CDBF      		out __SP_L__,r28
 1574 00b6 DEBF      		out __SP_H__,r29
 1575 00b8 DF91      		pop r29
 1576 00ba CF91      		pop r28
 1577 00bc 1F91      		pop r17
 1578 00be 0F91      		pop r16
 1579 00c0 FF90      		pop r15
 1580 00c2 EF90      		pop r14
 1581 00c4 0895      		ret
 1582               	.L47:
 1583               	.LBB25:
 421:test/test.c   ****     {
 1585               	.LM109:
 1586 00c6 AE15      		cp r26,r14
 1587 00c8 BF05      		cpc r27,r15
 1588 00ca 01F4      		brne .L49
 1589               	.LBE25:
 431:test/test.c   **** 	
 1591               	.LM110:
 1592 00cc 0E94 0000 		call test_passed
 1593 00d0 00C0      		rjmp .L45
 1601               	.Lscope9:
 1602               		.section	.rodata.testEncryptionAndDecryption_Karatsuba_4093_192.str1.1,"aMS",@progbits,1
 1603               	.LC13:
 1604 0000 5465 7374 		.string	"Testing Encryption and Decryption (Karatsuba, n = 192, q = 4093)... "
 1604      696E 6720 
 1604      456E 6372 
 1604      7970 7469 
 1604      6F6E 2061 
 1605               		.section	.text.testEncryptionAndDecryption_Karatsuba_4093_192,"ax",@progbits
 1607               	.global	testEncryptionAndDecryption_Karatsuba_4093_192
 1609               	testEncryptionAndDecryption_Karatsuba_4093_192:
 435:test/test.c   **** 	
 436:test/test.c   **** void testEncryptionAndDecryption_Karatsuba_4093_192(void)
 437:test/test.c   **** {
 1611               	.LM111:
 1612               	.LFBB10:
 1613 0000 CF92      		push r12
 1614 0002 DF92      		push r13
 1615 0004 EF92      		push r14
 1616 0006 FF92      		push r15
 1617 0008 0F93      		push r16
 1618 000a 1F93      		push r17
 1619 000c CF93      		push r28
 1620 000e DF93      		push r29
 1621 0010 CDB7      		in r28,__SP_L__
 1622 0012 DEB7      		in r29,__SP_H__
 1623 0014 C258      		subi r28,-126
 1624 0016 D340      		sbci r29,3
 1625 0018 CDBF      		out __SP_L__,r28
 1626 001a DEBF      		out __SP_H__,r29
 1627               	/* prologue: function */
 1628               	/* frame size = 898 */
 1629               	/* stack size = 906 */
 1630               	.L__stack_usage = 906
 438:test/test.c   ****   // Ciphertext
 439:test/test.c   ****   uint16_t c1[192];
 440:test/test.c   ****   uint16_t c2[192];
 441:test/test.c   **** 	
 442:test/test.c   ****   uint8_t plaintext[512/8+1] = "!plaintexttest!!!plaintexttest!!!plaintexttest!!!plaintexttest!!";
 1632               	.LM112:
 1633 001c 81E4      		ldi r24,lo8(65)
 1634 001e E0E0      		ldi r30,lo8(.LC11)
 1635 0020 F0E0      		ldi r31,hi8(.LC11)
 1636 0022 DE01      		movw r26,r28
 1637 0024 AE5B      		subi r26,-66
 1638 0026 BC4F      		sbci r27,-4
 1639               		0:
 1640 0028 0190      		ld r0,Z+
 1641 002a 0D92      		st X+,r0
 1642 002c 8A95      		dec r24
 1643 002e 01F4      		brne 0b
 443:test/test.c   ****   uint8_t check[512/8+1] = "!plaintexttest!!!plaintexttest!!!plaintexttest!!!plaintexttest!!";
 1645               	.LM113:
 1646 0030 81E4      		ldi r24,lo8(65)
 1647 0032 E0E0      		ldi r30,lo8(.LC11)
 1648 0034 F0E0      		ldi r31,hi8(.LC11)
 1649 0036 DE01      		movw r26,r28
 1650 0038 AF5F      		subi r26,-1
 1651 003a BC4F      		sbci r27,-4
 1652               		0:
 1653 003c 0190      		ld r0,Z+
 1654 003e 0D92      		st X+,r0
 1655 0040 8A95      		dec r24
 1656 0042 01F4      		brne 0b
 444:test/test.c   **** 	
 445:test/test.c   ****   test_start("Testing Encryption and Decryption (Karatsuba, n = 192, q = 4093)... ");
 1658               	.LM114:
 1659 0044 80E0      		ldi r24,lo8(.LC13)
 1660 0046 90E0      		ldi r25,hi8(.LC13)
 1661 0048 0E94 0000 		call test_start
 446:test/test.c   **** 	
 447:test/test.c   ****   encrypt_ksuba_4093(plaintext, c1, c2, pubKeyA_4093_192, pubKeyP_4093_192,192);
 1663               	.LM115:
 1664 004c 80EC      		ldi r24,lo8(-64)
 1665 004e E82E      		mov r14,r24
 1666 0050 F12C      		mov r15,__zero_reg__
 1667 0052 00E0      		ldi r16,lo8(pubKeyP_4093_192)
 1668 0054 10E0      		ldi r17,hi8(pubKeyP_4093_192)
 1669 0056 20E0      		ldi r18,lo8(pubKeyA_4093_192)
 1670 0058 30E0      		ldi r19,hi8(pubKeyA_4093_192)
 1671 005a AE01      		movw r20,r28
 1672 005c 4F5F      		subi r20,-1
 1673 005e 5F4F      		sbci r21,-1
 1674 0060 BE01      		movw r22,r28
 1675 0062 6F57      		subi r22,127
 1676 0064 7E4F      		sbci r23,-2
 1677 0066 CE01      		movw r24,r28
 1678 0068 8E5B      		subi r24,-66
 1679 006a 9C4F      		sbci r25,-4
 1680 006c 0E94 0000 		call encrypt_ksuba_4093
 1681 0070 CE01      		movw r24,r28
 1682 0072 8E5B      		subi r24,-66
 1683 0074 9C4F      		sbci r25,-4
 1684 0076 7C01      		movw r14,r24
 1685 0078 6C01      		movw r12,r24
 1686 007a 98E1      		ldi r25,24
 1687 007c C90E      		add r12,r25
 1688 007e D11C      		adc r13,__zero_reg__
 1689 0080 F701      		movw r30,r14
 1690               	.L53:
 1691               	.LBB26:
 448:test/test.c   **** 				
 449:test/test.c   ****   for(int i = 0; i<192/8; i++)
 450:test/test.c   ****     {
 451:test/test.c   ****       plaintext[i] = 0;
 1693               	.LM116:
 1694 0082 1192      		st Z+,__zero_reg__
 449:test/test.c   ****     {
 1696               	.LM117:
 1697 0084 EC15      		cp r30,r12
 1698 0086 FD05      		cpc r31,r13
 1699 0088 01F4      		brne .L53
 1700               	.LBE26:
 452:test/test.c   ****     }
 453:test/test.c   **** 
 454:test/test.c   ****   decrypt_ksuba_4093(plaintext, c1, c2, prvKeyR2_4093_192,192);
 1702               	.LM118:
 1703 008a 00EC      		ldi r16,lo8(-64)
 1704 008c 10E0      		ldi r17,0
 1705 008e 20E0      		ldi r18,lo8(prvKeyR2_4093_192)
 1706 0090 30E0      		ldi r19,hi8(prvKeyR2_4093_192)
 1707 0092 AE01      		movw r20,r28
 1708 0094 4F5F      		subi r20,-1
 1709 0096 5F4F      		sbci r21,-1
 1710 0098 BE01      		movw r22,r28
 1711 009a 6F57      		subi r22,127
 1712 009c 7E4F      		sbci r23,-2
 1713 009e CE01      		movw r24,r28
 1714 00a0 8E5B      		subi r24,-66
 1715 00a2 9C4F      		sbci r25,-4
 1716 00a4 0E94 0000 		call decrypt_ksuba_4093
 1717 00a8 FE01      		movw r30,r28
 1718 00aa EF5F      		subi r30,-1
 1719 00ac FC4F      		sbci r31,-4
 1720               	.L56:
 1721               	.LBB27:
 455:test/test.c   **** 	
 456:test/test.c   ****   for(int i = 0; i<192/8; i++)
 457:test/test.c   ****     {
 458:test/test.c   ****       if(plaintext[i] != check[i])
 1723               	.LM119:
 1724 00ae D701      		movw r26,r14
 1725 00b0 9D91      		ld r25,X+
 1726 00b2 7D01      		movw r14,r26
 1728               	.LM120:
 1729 00b4 8191      		ld r24,Z+
 1731               	.LM121:
 1732 00b6 9817      		cp r25,r24
 1733 00b8 01F0      		breq .L54
 459:test/test.c   **** 	{
 460:test/test.c   **** 	  test_failed();
 1735               	.LM122:
 1736 00ba 0E94 0000 		call test_failed
 1737               	.L52:
 1738               	/* epilogue start */
 1739               	.LBE27:
 461:test/test.c   **** 	  plaintext[i] = check[i];
 462:test/test.c   **** 	  return;	
 463:test/test.c   **** 	}
 464:test/test.c   ****     }
 465:test/test.c   **** 	
 466:test/test.c   ****   test_passed();
 467:test/test.c   **** 	
 468:test/test.c   ****   //################################
 469:test/test.c   **** }
 1741               	.LM123:
 1742 00be CE57      		subi r28,126
 1743 00c0 DC4F      		sbci r29,-4
 1744 00c2 CDBF      		out __SP_L__,r28
 1745 00c4 DEBF      		out __SP_H__,r29
 1746 00c6 DF91      		pop r29
 1747 00c8 CF91      		pop r28
 1748 00ca 1F91      		pop r17
 1749 00cc 0F91      		pop r16
 1750 00ce FF90      		pop r15
 1751 00d0 EF90      		pop r14
 1752 00d2 DF90      		pop r13
 1753 00d4 CF90      		pop r12
 1754 00d6 0895      		ret
 1755               	.L54:
 1756               	.LBB28:
 456:test/test.c   ****     {
 1758               	.LM124:
 1759 00d8 AC15      		cp r26,r12
 1760 00da BD05      		cpc r27,r13
 1761 00dc 01F4      		brne .L56
 1762               	.LBE28:
 466:test/test.c   **** 	
 1764               	.LM125:
 1765 00de 0E94 0000 		call test_passed
 1766 00e2 00C0      		rjmp .L52
 1774               	.Lscope10:
 1775               		.section	.rodata.testEncryptionAndDecryption_Karatsuba_4093_256.str1.1,"aMS",@progbits,1
 1776               	.LC15:
 1777 0000 5465 7374 		.string	"Testing Encryption and Decryption (Karatsuba, n = 256, q = 4093)... "
 1777      696E 6720 
 1777      456E 6372 
 1777      7970 7469 
 1777      6F6E 2061 
 1778               		.section	.rodata
 1779               	.LC14:
 1780 0000 2170 6C61 		.string	"!plaintexttest!!!plaintexttest!!"
 1780      696E 7465 
 1780      7874 7465 
 1780      7374 2121 
 1780      2170 6C61 
 1781 0021 0000 0000 		.zero	32
 1781      0000 0000 
 1781      0000 0000 
 1781      0000 0000 
 1781      0000 0000 
 1782               		.section	.text.testEncryptionAndDecryption_Karatsuba_4093_256,"ax",@progbits
 1784               	.global	testEncryptionAndDecryption_Karatsuba_4093_256
 1786               	testEncryptionAndDecryption_Karatsuba_4093_256:
 470:test/test.c   **** 	
 471:test/test.c   **** void testEncryptionAndDecryption_Karatsuba_4093_256(void)
 472:test/test.c   **** {	
 1788               	.LM126:
 1789               	.LFBB11:
 1790 0000 CF92      		push r12
 1791 0002 DF92      		push r13
 1792 0004 EF92      		push r14
 1793 0006 FF92      		push r15
 1794 0008 0F93      		push r16
 1795 000a 1F93      		push r17
 1796 000c CF93      		push r28
 1797 000e DF93      		push r29
 1798 0010 CDB7      		in r28,__SP_L__
 1799 0012 DEB7      		in r29,__SP_H__
 1800 0014 C258      		subi r28,-126
 1801 0016 D440      		sbci r29,4
 1802 0018 CDBF      		out __SP_L__,r28
 1803 001a DEBF      		out __SP_H__,r29
 1804               	/* prologue: function */
 1805               	/* frame size = 1154 */
 1806               	/* stack size = 1162 */
 1807               	.L__stack_usage = 1162
 473:test/test.c   ****   // Ciphertext
 474:test/test.c   ****   uint16_t c1[256];
 475:test/test.c   ****   uint16_t c2[256];
 476:test/test.c   **** 	
 477:test/test.c   ****   uint8_t plaintext[512/8+1] = "!plaintexttest!!!plaintexttest!!";
 1809               	.LM127:
 1810 001c 81E2      		ldi r24,lo8(33)
 1811 001e E0E0      		ldi r30,lo8(.LC14)
 1812 0020 F0E0      		ldi r31,hi8(.LC14)
 1813 0022 DE01      		movw r26,r28
 1814 0024 AE5B      		subi r26,-66
 1815 0026 BB4F      		sbci r27,-5
 1816               		0:
 1817 0028 0190      		ld r0,Z+
 1818 002a 0D92      		st X+,r0
 1819 002c 8A95      		dec r24
 1820 002e 01F4      		brne 0b
 1821 0030 80E2      		ldi r24,lo8(32)
 1822 0032 E2E4      		ldi r30,lo8(66)
 1823 0034 F4E0      		ldi r31,lo8(4)
 1824 0036 EC0F      		add r30,r28
 1825 0038 FD1F      		adc r31,r29
 1826 003a B196      		adiw r30,33
 1827 003c DF01      		movw r26,r30
 1828 003e 982F      		mov r25,r24
 1829               		0:
 1830 0040 1D92      		st X+,__zero_reg__
 1831 0042 9A95      		dec r25
 1832 0044 01F4      		brne 0b
 478:test/test.c   ****   uint8_t check[512/8+1] = "!plaintexttest!!!plaintexttest!!";
 1834               	.LM128:
 1835 0046 91E2      		ldi r25,lo8(33)
 1836 0048 E0E0      		ldi r30,lo8(.LC14)
 1837 004a F0E0      		ldi r31,hi8(.LC14)
 1838 004c DE01      		movw r26,r28
 1839 004e AF5F      		subi r26,-1
 1840 0050 BB4F      		sbci r27,-5
 1841               		0:
 1842 0052 0190      		ld r0,Z+
 1843 0054 0D92      		st X+,r0
 1844 0056 9A95      		dec r25
 1845 0058 01F4      		brne 0b
 1846 005a E1E0      		ldi r30,lo8(1)
 1847 005c F4E0      		ldi r31,lo8(4)
 1848 005e EC0F      		add r30,r28
 1849 0060 FD1F      		adc r31,r29
 1850 0062 B196      		adiw r30,33
 1851 0064 DF01      		movw r26,r30
 1852               		0:
 1853 0066 1D92      		st X+,__zero_reg__
 1854 0068 8A95      		dec r24
 1855 006a 01F4      		brne 0b
 479:test/test.c   **** 	
 480:test/test.c   ****   test_start("Testing Encryption and Decryption (Karatsuba, n = 256, q = 4093)... ");
 1857               	.LM129:
 1858 006c 80E0      		ldi r24,lo8(.LC15)
 1859 006e 90E0      		ldi r25,hi8(.LC15)
 1860 0070 0E94 0000 		call test_start
 481:test/test.c   **** 	
 482:test/test.c   ****   encrypt_ksuba_4093(plaintext, c1, c2, pubKeyA_4093_256, pubKeyP_4093_256,256);
 1862               	.LM130:
 1863 0074 E12C      		mov r14,__zero_reg__
 1864 0076 FF24      		clr r15
 1865 0078 F394      		inc r15
 1866 007a 00E0      		ldi r16,lo8(pubKeyP_4093_256)
 1867 007c 10E0      		ldi r17,hi8(pubKeyP_4093_256)
 1868 007e 20E0      		ldi r18,lo8(pubKeyA_4093_256)
 1869 0080 30E0      		ldi r19,hi8(pubKeyA_4093_256)
 1870 0082 AE01      		movw r20,r28
 1871 0084 4F5F      		subi r20,-1
 1872 0086 5F4F      		sbci r21,-1
 1873 0088 BE01      		movw r22,r28
 1874 008a 6F5F      		subi r22,-1
 1875 008c 7D4F      		sbci r23,-3
 1876 008e CE01      		movw r24,r28
 1877 0090 8E5B      		subi r24,-66
 1878 0092 9B4F      		sbci r25,-5
 1879 0094 0E94 0000 		call encrypt_ksuba_4093
 1880 0098 CE01      		movw r24,r28
 1881 009a 8E5B      		subi r24,-66
 1882 009c 9B4F      		sbci r25,-5
 1883 009e 7C01      		movw r14,r24
 1884 00a0 6C01      		movw r12,r24
 1885 00a2 90E2      		ldi r25,32
 1886 00a4 C90E      		add r12,r25
 1887 00a6 D11C      		adc r13,__zero_reg__
 1888 00a8 F701      		movw r30,r14
 1889               	.L60:
 1890               	.LBB29:
 483:test/test.c   **** 				
 484:test/test.c   ****   for(int i = 0; i<256/8; i++)
 485:test/test.c   ****     {
 486:test/test.c   ****       plaintext[i] = 0;
 1892               	.LM131:
 1893 00aa 1192      		st Z+,__zero_reg__
 484:test/test.c   ****     {
 1895               	.LM132:
 1896 00ac EC15      		cp r30,r12
 1897 00ae FD05      		cpc r31,r13
 1898 00b0 01F4      		brne .L60
 1899               	.LBE29:
 487:test/test.c   ****     }
 488:test/test.c   **** 
 489:test/test.c   ****   decrypt_ksuba_4093(plaintext, c1, c2, prvKeyR2_4093_256,256);
 1901               	.LM133:
 1902 00b2 00E0      		ldi r16,0
 1903 00b4 11E0      		ldi r17,lo8(1)
 1904 00b6 20E0      		ldi r18,lo8(prvKeyR2_4093_256)
 1905 00b8 30E0      		ldi r19,hi8(prvKeyR2_4093_256)
 1906 00ba AE01      		movw r20,r28
 1907 00bc 4F5F      		subi r20,-1
 1908 00be 5F4F      		sbci r21,-1
 1909 00c0 BE01      		movw r22,r28
 1910 00c2 6F5F      		subi r22,-1
 1911 00c4 7D4F      		sbci r23,-3
 1912 00c6 CE01      		movw r24,r28
 1913 00c8 8E5B      		subi r24,-66
 1914 00ca 9B4F      		sbci r25,-5
 1915 00cc 0E94 0000 		call decrypt_ksuba_4093
 1916 00d0 FE01      		movw r30,r28
 1917 00d2 EF5F      		subi r30,-1
 1918 00d4 FB4F      		sbci r31,-5
 1919               	.L63:
 1920               	.LBB30:
 490:test/test.c   **** 	
 491:test/test.c   ****   for(int i = 0; i<256/8; i++)
 492:test/test.c   ****     {
 493:test/test.c   ****       if(plaintext[i] != check[i])
 1922               	.LM134:
 1923 00d6 D701      		movw r26,r14
 1924 00d8 9D91      		ld r25,X+
 1925 00da 7D01      		movw r14,r26
 1927               	.LM135:
 1928 00dc 8191      		ld r24,Z+
 1930               	.LM136:
 1931 00de 9817      		cp r25,r24
 1932 00e0 01F0      		breq .L61
 494:test/test.c   **** 	{
 495:test/test.c   **** 	  test_failed();
 1934               	.LM137:
 1935 00e2 0E94 0000 		call test_failed
 1936               	.L59:
 1937               	/* epilogue start */
 1938               	.LBE30:
 496:test/test.c   **** 	  plaintext[i] = check[i];
 497:test/test.c   **** 	  return;	
 498:test/test.c   **** 	}
 499:test/test.c   ****     }
 500:test/test.c   **** 	
 501:test/test.c   ****   test_passed();
 502:test/test.c   **** 	
 503:test/test.c   ****   //################################
 504:test/test.c   **** }
 1940               	.LM138:
 1941 00e6 CE57      		subi r28,126
 1942 00e8 DB4F      		sbci r29,-5
 1943 00ea CDBF      		out __SP_L__,r28
 1944 00ec DEBF      		out __SP_H__,r29
 1945 00ee DF91      		pop r29
 1946 00f0 CF91      		pop r28
 1947 00f2 1F91      		pop r17
 1948 00f4 0F91      		pop r16
 1949 00f6 FF90      		pop r15
 1950 00f8 EF90      		pop r14
 1951 00fa DF90      		pop r13
 1952 00fc CF90      		pop r12
 1953 00fe 0895      		ret
 1954               	.L61:
 1955               	.LBB31:
 491:test/test.c   ****     {
 1957               	.LM139:
 1958 0100 AC15      		cp r26,r12
 1959 0102 BD05      		cpc r27,r13
 1960 0104 01F4      		brne .L63
 1961               	.LBE31:
 501:test/test.c   **** 	
 1963               	.LM140:
 1964 0106 0E94 0000 		call test_passed
 1965 010a 00C0      		rjmp .L59
 1973               	.Lscope11:
 1974               		.section	.rodata.testEncryptionAndDecryption_Karatsuba_4093_320.str1.1,"aMS",@progbits,1
 1975               	.LC16:
 1976 0000 5465 7374 		.string	"Testing Encryption and Decryption (Karatsuba, n = 320, q = 4093)... "
 1976      696E 6720 
 1976      456E 6372 
 1976      7970 7469 
 1976      6F6E 2061 
 1977               		.section	.text.testEncryptionAndDecryption_Karatsuba_4093_320,"ax",@progbits
 1979               	.global	testEncryptionAndDecryption_Karatsuba_4093_320
 1981               	testEncryptionAndDecryption_Karatsuba_4093_320:
 505:test/test.c   **** 	
 506:test/test.c   **** void testEncryptionAndDecryption_Karatsuba_4093_320(void)
 507:test/test.c   **** {	
 1983               	.LM141:
 1984               	.LFBB12:
 1985 0000 CF92      		push r12
 1986 0002 DF92      		push r13
 1987 0004 EF92      		push r14
 1988 0006 FF92      		push r15
 1989 0008 0F93      		push r16
 1990 000a 1F93      		push r17
 1991 000c CF93      		push r28
 1992 000e DF93      		push r29
 1993 0010 CDB7      		in r28,__SP_L__
 1994 0012 DEB7      		in r29,__SP_H__
 1995 0014 C258      		subi r28,-126
 1996 0016 D540      		sbci r29,5
 1997 0018 CDBF      		out __SP_L__,r28
 1998 001a DEBF      		out __SP_H__,r29
 1999               	/* prologue: function */
 2000               	/* frame size = 1410 */
 2001               	/* stack size = 1418 */
 2002               	.L__stack_usage = 1418
 508:test/test.c   ****   // Ciphertext
 509:test/test.c   ****   uint16_t c1[320];
 510:test/test.c   ****   uint16_t c2[320];
 511:test/test.c   **** 	
 512:test/test.c   ****   uint8_t plaintext[512/8+1] = "!plaintexttest!!!plaintexttest!!!plaintexttest!!!plaintexttest!!";
 2004               	.LM142:
 2005 001c 81E4      		ldi r24,lo8(65)
 2006 001e E0E0      		ldi r30,lo8(.LC11)
 2007 0020 F0E0      		ldi r31,hi8(.LC11)
 2008 0022 DE01      		movw r26,r28
 2009 0024 AE5B      		subi r26,-66
 2010 0026 BA4F      		sbci r27,-6
 2011               		0:
 2012 0028 0190      		ld r0,Z+
 2013 002a 0D92      		st X+,r0
 2014 002c 8A95      		dec r24
 2015 002e 01F4      		brne 0b
 513:test/test.c   ****   uint8_t check[512/8+1] = "!plaintexttest!!!plaintexttest!!!plaintexttest!!!plaintexttest!!";
 2017               	.LM143:
 2018 0030 81E4      		ldi r24,lo8(65)
 2019 0032 E0E0      		ldi r30,lo8(.LC11)
 2020 0034 F0E0      		ldi r31,hi8(.LC11)
 2021 0036 DE01      		movw r26,r28
 2022 0038 AF5F      		subi r26,-1
 2023 003a BA4F      		sbci r27,-6
 2024               		0:
 2025 003c 0190      		ld r0,Z+
 2026 003e 0D92      		st X+,r0
 2027 0040 8A95      		dec r24
 2028 0042 01F4      		brne 0b
 514:test/test.c   **** 	
 515:test/test.c   ****   test_start("Testing Encryption and Decryption (Karatsuba, n = 320, q = 4093)... ");
 2030               	.LM144:
 2031 0044 80E0      		ldi r24,lo8(.LC16)
 2032 0046 90E0      		ldi r25,hi8(.LC16)
 2033 0048 0E94 0000 		call test_start
 516:test/test.c   **** 	
 517:test/test.c   ****   encrypt_ksuba_4093(plaintext, c1, c2, pubKeyA_4093_320, pubKeyP_4093_320,320);
 2035               	.LM145:
 2036 004c 80E4      		ldi r24,lo8(64)
 2037 004e E82E      		mov r14,r24
 2038 0050 FF24      		clr r15
 2039 0052 F394      		inc r15
 2040 0054 00E0      		ldi r16,lo8(pubKeyP_4093_320)
 2041 0056 10E0      		ldi r17,hi8(pubKeyP_4093_320)
 2042 0058 20E0      		ldi r18,lo8(pubKeyA_4093_320)
 2043 005a 30E0      		ldi r19,hi8(pubKeyA_4093_320)
 2044 005c AE01      		movw r20,r28
 2045 005e 4F5F      		subi r20,-1
 2046 0060 5F4F      		sbci r21,-1
 2047 0062 BE01      		movw r22,r28
 2048 0064 6F57      		subi r22,127
 2049 0066 7D4F      		sbci r23,-3
 2050 0068 CE01      		movw r24,r28
 2051 006a 8E5B      		subi r24,-66
 2052 006c 9A4F      		sbci r25,-6
 2053 006e 0E94 0000 		call encrypt_ksuba_4093
 2054 0072 CE01      		movw r24,r28
 2055 0074 8E5B      		subi r24,-66
 2056 0076 9A4F      		sbci r25,-6
 2057 0078 7C01      		movw r14,r24
 2058 007a 6C01      		movw r12,r24
 2059 007c 98E2      		ldi r25,40
 2060 007e C90E      		add r12,r25
 2061 0080 D11C      		adc r13,__zero_reg__
 2062 0082 F701      		movw r30,r14
 2063               	.L67:
 2064               	.LBB32:
 518:test/test.c   **** 				
 519:test/test.c   ****   for(int i = 0; i<320/8; i++)
 520:test/test.c   ****     {
 521:test/test.c   ****       plaintext[i] = 0;
 2066               	.LM146:
 2067 0084 1192      		st Z+,__zero_reg__
 519:test/test.c   ****     {
 2069               	.LM147:
 2070 0086 EC15      		cp r30,r12
 2071 0088 FD05      		cpc r31,r13
 2072 008a 01F4      		brne .L67
 2073               	.LBE32:
 522:test/test.c   ****     }
 523:test/test.c   **** 
 524:test/test.c   ****   decrypt_ksuba_4093(plaintext, c1, c2, prvKeyR2_4093_320,320);
 2075               	.LM148:
 2076 008c 00E4      		ldi r16,lo8(64)
 2077 008e 11E0      		ldi r17,lo8(1)
 2078 0090 20E0      		ldi r18,lo8(prvKeyR2_4093_320)
 2079 0092 30E0      		ldi r19,hi8(prvKeyR2_4093_320)
 2080 0094 AE01      		movw r20,r28
 2081 0096 4F5F      		subi r20,-1
 2082 0098 5F4F      		sbci r21,-1
 2083 009a BE01      		movw r22,r28
 2084 009c 6F57      		subi r22,127
 2085 009e 7D4F      		sbci r23,-3
 2086 00a0 CE01      		movw r24,r28
 2087 00a2 8E5B      		subi r24,-66
 2088 00a4 9A4F      		sbci r25,-6
 2089 00a6 0E94 0000 		call decrypt_ksuba_4093
 2090 00aa FE01      		movw r30,r28
 2091 00ac EF5F      		subi r30,-1
 2092 00ae FA4F      		sbci r31,-6
 2093               	.L70:
 2094               	.LBB33:
 525:test/test.c   **** 	
 526:test/test.c   ****   for(int i = 0; i<320/8; i++)
 527:test/test.c   ****     {
 528:test/test.c   ****       if(plaintext[i] != check[i])
 2096               	.LM149:
 2097 00b0 D701      		movw r26,r14
 2098 00b2 9D91      		ld r25,X+
 2099 00b4 7D01      		movw r14,r26
 2101               	.LM150:
 2102 00b6 8191      		ld r24,Z+
 2104               	.LM151:
 2105 00b8 9817      		cp r25,r24
 2106 00ba 01F0      		breq .L68
 529:test/test.c   **** 	{
 530:test/test.c   **** 	  test_failed();
 2108               	.LM152:
 2109 00bc 0E94 0000 		call test_failed
 2110               	.L66:
 2111               	/* epilogue start */
 2112               	.LBE33:
 531:test/test.c   **** 	  plaintext[i] = check[i];
 532:test/test.c   **** 	  return;	
 533:test/test.c   **** 	}
 534:test/test.c   ****     }
 535:test/test.c   **** 	
 536:test/test.c   ****   test_passed();
 537:test/test.c   **** 	
 538:test/test.c   ****   //################################
 539:test/test.c   **** }
 2114               	.LM153:
 2115 00c0 CE57      		subi r28,126
 2116 00c2 DA4F      		sbci r29,-6
 2117 00c4 CDBF      		out __SP_L__,r28
 2118 00c6 DEBF      		out __SP_H__,r29
 2119 00c8 DF91      		pop r29
 2120 00ca CF91      		pop r28
 2121 00cc 1F91      		pop r17
 2122 00ce 0F91      		pop r16
 2123 00d0 FF90      		pop r15
 2124 00d2 EF90      		pop r14
 2125 00d4 DF90      		pop r13
 2126 00d6 CF90      		pop r12
 2127 00d8 0895      		ret
 2128               	.L68:
 2129               	.LBB34:
 526:test/test.c   ****     {
 2131               	.LM154:
 2132 00da AC15      		cp r26,r12
 2133 00dc BD05      		cpc r27,r13
 2134 00de 01F4      		brne .L70
 2135               	.LBE34:
 536:test/test.c   **** 	
 2137               	.LM155:
 2138 00e0 0E94 0000 		call test_passed
 2139 00e4 00C0      		rjmp .L66
 2147               	.Lscope12:
 2148               		.section	.rodata.testEncryptionAndDecryption_Karatsuba_4096_192.str1.1,"aMS",@progbits,1
 2149               	.LC18:
 2150 0000 5465 7374 		.string	"Testing Encryption and Decryption (Karatsuba, n = 192, q = 4096)... "
 2150      696E 6720 
 2150      456E 6372 
 2150      7970 7469 
 2150      6F6E 2061 
 2151               	.LC17:
 2152 0045 2170 6C61 		.string	"!plaintexttest!!!plainte"
 2152      696E 7465 
 2152      7874 7465 
 2152      7374 2121 
 2152      2170 6C61 
 2153               		.section	.text.testEncryptionAndDecryption_Karatsuba_4096_192,"ax",@progbits
 2155               	.global	testEncryptionAndDecryption_Karatsuba_4096_192
 2157               	testEncryptionAndDecryption_Karatsuba_4096_192:
 540:test/test.c   **** 
 541:test/test.c   **** void testEncryptionAndDecryption_Karatsuba_4096_192(void)
 542:test/test.c   **** {
 2159               	.LM156:
 2160               	.LFBB13:
 2161 0000 CF92      		push r12
 2162 0002 DF92      		push r13
 2163 0004 EF92      		push r14
 2164 0006 FF92      		push r15
 2165 0008 0F93      		push r16
 2166 000a 1F93      		push r17
 2167 000c CF93      		push r28
 2168 000e DF93      		push r29
 2169 0010 CDB7      		in r28,__SP_L__
 2170 0012 DEB7      		in r29,__SP_H__
 2171 0014 C253      		subi r28,50
 2172 0016 D340      		sbci r29,3
 2173 0018 CDBF      		out __SP_L__,r28
 2174 001a DEBF      		out __SP_H__,r29
 2175               	/* prologue: function */
 2176               	/* frame size = 818 */
 2177               	/* stack size = 826 */
 2178               	.L__stack_usage = 826
 543:test/test.c   ****   // Ciphertext
 544:test/test.c   ****   uint16_t c1[192];
 545:test/test.c   ****   uint16_t c2[192];
 546:test/test.c   **** 	
 547:test/test.c   ****   uint8_t plaintext[192/8+1] = "!plaintexttest!!!plainte";
 2180               	.LM157:
 2181 001c 89E1      		ldi r24,lo8(25)
 2182 001e E0E0      		ldi r30,lo8(.LC17)
 2183 0020 F0E0      		ldi r31,hi8(.LC17)
 2184 0022 DE01      		movw r26,r28
 2185 0024 A65E      		subi r26,-26
 2186 0026 BC4F      		sbci r27,-4
 2187               		0:
 2188 0028 0190      		ld r0,Z+
 2189 002a 0D92      		st X+,r0
 2190 002c 8A95      		dec r24
 2191 002e 01F4      		brne 0b
 548:test/test.c   ****   uint8_t check[192/8+1] = "!plaintexttest!!!plainte";
 2193               	.LM158:
 2194 0030 89E1      		ldi r24,lo8(25)
 2195 0032 E0E0      		ldi r30,lo8(.LC17)
 2196 0034 F0E0      		ldi r31,hi8(.LC17)
 2197 0036 DE01      		movw r26,r28
 2198 0038 AF5F      		subi r26,-1
 2199 003a BC4F      		sbci r27,-4
 2200               		0:
 2201 003c 0190      		ld r0,Z+
 2202 003e 0D92      		st X+,r0
 2203 0040 8A95      		dec r24
 2204 0042 01F4      		brne 0b
 549:test/test.c   **** 	
 550:test/test.c   ****   test_start("Testing Encryption and Decryption (Karatsuba, n = 192, q = 4096)... ");
 2206               	.LM159:
 2207 0044 80E0      		ldi r24,lo8(.LC18)
 2208 0046 90E0      		ldi r25,hi8(.LC18)
 2209 0048 0E94 0000 		call test_start
 551:test/test.c   **** 	
 552:test/test.c   ****   encrypt_ksuba_4096(plaintext, c1, c2, pubKeyA_4096_192, pubKeyP_4096_192,192);
 2211               	.LM160:
 2212 004c 80EC      		ldi r24,lo8(-64)
 2213 004e E82E      		mov r14,r24
 2214 0050 F12C      		mov r15,__zero_reg__
 2215 0052 00E0      		ldi r16,lo8(pubKeyP_4096_192)
 2216 0054 10E0      		ldi r17,hi8(pubKeyP_4096_192)
 2217 0056 20E0      		ldi r18,lo8(pubKeyA_4096_192)
 2218 0058 30E0      		ldi r19,hi8(pubKeyA_4096_192)
 2219 005a AE01      		movw r20,r28
 2220 005c 4F5F      		subi r20,-1
 2221 005e 5F4F      		sbci r21,-1
 2222 0060 BE01      		movw r22,r28
 2223 0062 6F57      		subi r22,127
 2224 0064 7E4F      		sbci r23,-2
 2225 0066 CE01      		movw r24,r28
 2226 0068 865E      		subi r24,-26
 2227 006a 9C4F      		sbci r25,-4
 2228 006c 0E94 0000 		call encrypt_ksuba_4096
 2229 0070 CE01      		movw r24,r28
 2230 0072 865E      		subi r24,-26
 2231 0074 9C4F      		sbci r25,-4
 2232 0076 7C01      		movw r14,r24
 2233 0078 6C01      		movw r12,r24
 2234 007a 98E1      		ldi r25,24
 2235 007c C90E      		add r12,r25
 2236 007e D11C      		adc r13,__zero_reg__
 2237 0080 F701      		movw r30,r14
 2238               	.L74:
 2239               	.LBB35:
 553:test/test.c   **** 				
 554:test/test.c   ****   for(int i = 0; i<192/8; i++)
 555:test/test.c   ****     {
 556:test/test.c   ****       plaintext[i] = 0;
 2241               	.LM161:
 2242 0082 1192      		st Z+,__zero_reg__
 554:test/test.c   ****     {
 2244               	.LM162:
 2245 0084 EC15      		cp r30,r12
 2246 0086 FD05      		cpc r31,r13
 2247 0088 01F4      		brne .L74
 2248               	.LBE35:
 557:test/test.c   ****     }
 558:test/test.c   **** 
 559:test/test.c   ****   decrypt_ksuba_4096(plaintext, c1, c2, prvKeyR2_4096_192,192);
 2250               	.LM163:
 2251 008a 00EC      		ldi r16,lo8(-64)
 2252 008c 10E0      		ldi r17,0
 2253 008e 20E0      		ldi r18,lo8(prvKeyR2_4096_192)
 2254 0090 30E0      		ldi r19,hi8(prvKeyR2_4096_192)
 2255 0092 AE01      		movw r20,r28
 2256 0094 4F5F      		subi r20,-1
 2257 0096 5F4F      		sbci r21,-1
 2258 0098 BE01      		movw r22,r28
 2259 009a 6F57      		subi r22,127
 2260 009c 7E4F      		sbci r23,-2
 2261 009e CE01      		movw r24,r28
 2262 00a0 865E      		subi r24,-26
 2263 00a2 9C4F      		sbci r25,-4
 2264 00a4 0E94 0000 		call decrypt_ksuba_4096
 2265 00a8 FE01      		movw r30,r28
 2266 00aa EF5F      		subi r30,-1
 2267 00ac FC4F      		sbci r31,-4
 2268               	.L77:
 2269               	.LBB36:
 560:test/test.c   **** 
 561:test/test.c   ****   for(int i = 0; i<192/8; i++)
 562:test/test.c   ****     {
 563:test/test.c   ****       if(plaintext[i] != check[i])
 2271               	.LM164:
 2272 00ae D701      		movw r26,r14
 2273 00b0 9D91      		ld r25,X+
 2274 00b2 7D01      		movw r14,r26
 2276               	.LM165:
 2277 00b4 8191      		ld r24,Z+
 2279               	.LM166:
 2280 00b6 9817      		cp r25,r24
 2281 00b8 01F0      		breq .L75
 564:test/test.c   **** 	{
 565:test/test.c   **** 	  test_failed();
 2283               	.LM167:
 2284 00ba 0E94 0000 		call test_failed
 2285               	.L73:
 2286               	/* epilogue start */
 2287               	.LBE36:
 566:test/test.c   **** 	  plaintext[i] = check[i];
 567:test/test.c   **** 	  return;	
 568:test/test.c   **** 	}
 569:test/test.c   ****     }
 570:test/test.c   **** 	
 571:test/test.c   ****   test_passed();
 572:test/test.c   **** 	
 573:test/test.c   ****   //################################
 574:test/test.c   **** }
 2289               	.LM168:
 2290 00be CE5C      		subi r28,-50
 2291 00c0 DC4F      		sbci r29,-4
 2292 00c2 CDBF      		out __SP_L__,r28
 2293 00c4 DEBF      		out __SP_H__,r29
 2294 00c6 DF91      		pop r29
 2295 00c8 CF91      		pop r28
 2296 00ca 1F91      		pop r17
 2297 00cc 0F91      		pop r16
 2298 00ce FF90      		pop r15
 2299 00d0 EF90      		pop r14
 2300 00d2 DF90      		pop r13
 2301 00d4 CF90      		pop r12
 2302 00d6 0895      		ret
 2303               	.L75:
 2304               	.LBB37:
 561:test/test.c   ****     {
 2306               	.LM169:
 2307 00d8 AC15      		cp r26,r12
 2308 00da BD05      		cpc r27,r13
 2309 00dc 01F4      		brne .L77
 2310               	.LBE37:
 571:test/test.c   **** 	
 2312               	.LM170:
 2313 00de 0E94 0000 		call test_passed
 2314 00e2 00C0      		rjmp .L73
 2322               	.Lscope13:
 2323               		.section	.rodata.testEncryptionAndDecryption_Karatsuba_4096_256.str1.1,"aMS",@progbits,1
 2324               	.LC19:
 2325 0000 5465 7374 		.string	"Testing Encryption and Decryption (Karatsuba, n = 256, q = 4096)... "
 2325      696E 6720 
 2325      456E 6372 
 2325      7970 7469 
 2325      6F6E 2061 
 2326               		.section	.text.testEncryptionAndDecryption_Karatsuba_4096_256,"ax",@progbits
 2328               	.global	testEncryptionAndDecryption_Karatsuba_4096_256
 2330               	testEncryptionAndDecryption_Karatsuba_4096_256:
 575:test/test.c   **** 	
 576:test/test.c   **** void testEncryptionAndDecryption_Karatsuba_4096_256(void)
 577:test/test.c   **** {	
 2332               	.LM171:
 2333               	.LFBB14:
 2334 0000 CF92      		push r12
 2335 0002 DF92      		push r13
 2336 0004 EF92      		push r14
 2337 0006 FF92      		push r15
 2338 0008 0F93      		push r16
 2339 000a 1F93      		push r17
 2340 000c CF93      		push r28
 2341 000e DF93      		push r29
 2342 0010 CDB7      		in r28,__SP_L__
 2343 0012 DEB7      		in r29,__SP_H__
 2344 0014 C254      		subi r28,66
 2345 0016 D440      		sbci r29,4
 2346 0018 CDBF      		out __SP_L__,r28
 2347 001a DEBF      		out __SP_H__,r29
 2348               	/* prologue: function */
 2349               	/* frame size = 1090 */
 2350               	/* stack size = 1098 */
 2351               	.L__stack_usage = 1098
 578:test/test.c   ****   // Ciphertext
 579:test/test.c   ****   uint16_t c1[256];
 580:test/test.c   ****   uint16_t c2[256];
 581:test/test.c   **** 	
 582:test/test.c   ****   uint8_t plaintext[256/8+1] = "!plaintexttest!!!plaintexttest!!";
 2353               	.LM172:
 2354 001c 81E2      		ldi r24,lo8(33)
 2355 001e E0E0      		ldi r30,lo8(.LC9)
 2356 0020 F0E0      		ldi r31,hi8(.LC9)
 2357 0022 DE01      		movw r26,r28
 2358 0024 AE5D      		subi r26,-34
 2359 0026 BB4F      		sbci r27,-5
 2360               		0:
 2361 0028 0190      		ld r0,Z+
 2362 002a 0D92      		st X+,r0
 2363 002c 8A95      		dec r24
 2364 002e 01F4      		brne 0b
 583:test/test.c   ****   uint8_t check[256/8+1] = "!plaintexttest!!!plaintexttest!!";
 2366               	.LM173:
 2367 0030 81E2      		ldi r24,lo8(33)
 2368 0032 E0E0      		ldi r30,lo8(.LC9)
 2369 0034 F0E0      		ldi r31,hi8(.LC9)
 2370 0036 DE01      		movw r26,r28
 2371 0038 AF5F      		subi r26,-1
 2372 003a BB4F      		sbci r27,-5
 2373               		0:
 2374 003c 0190      		ld r0,Z+
 2375 003e 0D92      		st X+,r0
 2376 0040 8A95      		dec r24
 2377 0042 01F4      		brne 0b
 584:test/test.c   **** 	
 585:test/test.c   ****   test_start("Testing Encryption and Decryption (Karatsuba, n = 256, q = 4096)... ");
 2379               	.LM174:
 2380 0044 80E0      		ldi r24,lo8(.LC19)
 2381 0046 90E0      		ldi r25,hi8(.LC19)
 2382 0048 0E94 0000 		call test_start
 586:test/test.c   **** 	
 587:test/test.c   ****   encrypt_ksuba_4096(plaintext, c1, c2, pubKeyA_4096_256, pubKeyP_4096_256,256);
 2384               	.LM175:
 2385 004c E12C      		mov r14,__zero_reg__
 2386 004e FF24      		clr r15
 2387 0050 F394      		inc r15
 2388 0052 00E0      		ldi r16,lo8(pubKeyP_4096_256)
 2389 0054 10E0      		ldi r17,hi8(pubKeyP_4096_256)
 2390 0056 20E0      		ldi r18,lo8(pubKeyA_4096_256)
 2391 0058 30E0      		ldi r19,hi8(pubKeyA_4096_256)
 2392 005a AE01      		movw r20,r28
 2393 005c 4F5F      		subi r20,-1
 2394 005e 5F4F      		sbci r21,-1
 2395 0060 BE01      		movw r22,r28
 2396 0062 6F5F      		subi r22,-1
 2397 0064 7D4F      		sbci r23,-3
 2398 0066 CE01      		movw r24,r28
 2399 0068 8E5D      		subi r24,-34
 2400 006a 9B4F      		sbci r25,-5
 2401 006c 0E94 0000 		call encrypt_ksuba_4096
 2402 0070 CE01      		movw r24,r28
 2403 0072 8E5D      		subi r24,-34
 2404 0074 9B4F      		sbci r25,-5
 2405 0076 7C01      		movw r14,r24
 2406 0078 6C01      		movw r12,r24
 2407 007a 90E2      		ldi r25,32
 2408 007c C90E      		add r12,r25
 2409 007e D11C      		adc r13,__zero_reg__
 2410 0080 F701      		movw r30,r14
 2411               	.L81:
 2412               	.LBB38:
 588:test/test.c   **** 				
 589:test/test.c   ****   for(int i = 0; i<256/8; i++)
 590:test/test.c   ****     {
 591:test/test.c   ****       plaintext[i] = 0;
 2414               	.LM176:
 2415 0082 1192      		st Z+,__zero_reg__
 589:test/test.c   ****     {
 2417               	.LM177:
 2418 0084 EC15      		cp r30,r12
 2419 0086 FD05      		cpc r31,r13
 2420 0088 01F4      		brne .L81
 2421               	.LBE38:
 592:test/test.c   ****     }
 593:test/test.c   **** 
 594:test/test.c   ****   decrypt_ksuba_4096(plaintext, c1, c2, prvKeyR2_4096_256,256);
 2423               	.LM178:
 2424 008a 00E0      		ldi r16,0
 2425 008c 11E0      		ldi r17,lo8(1)
 2426 008e 20E0      		ldi r18,lo8(prvKeyR2_4096_256)
 2427 0090 30E0      		ldi r19,hi8(prvKeyR2_4096_256)
 2428 0092 AE01      		movw r20,r28
 2429 0094 4F5F      		subi r20,-1
 2430 0096 5F4F      		sbci r21,-1
 2431 0098 BE01      		movw r22,r28
 2432 009a 6F5F      		subi r22,-1
 2433 009c 7D4F      		sbci r23,-3
 2434 009e CE01      		movw r24,r28
 2435 00a0 8E5D      		subi r24,-34
 2436 00a2 9B4F      		sbci r25,-5
 2437 00a4 0E94 0000 		call decrypt_ksuba_4096
 2438 00a8 FE01      		movw r30,r28
 2439 00aa EF5F      		subi r30,-1
 2440 00ac FB4F      		sbci r31,-5
 2441               	.L84:
 2442               	.LBB39:
 595:test/test.c   **** 	
 596:test/test.c   ****   for(int i = 0; i<256/8; i++)
 597:test/test.c   ****     {
 598:test/test.c   ****       if(plaintext[i] != check[i])
 2444               	.LM179:
 2445 00ae D701      		movw r26,r14
 2446 00b0 9D91      		ld r25,X+
 2447 00b2 7D01      		movw r14,r26
 2449               	.LM180:
 2450 00b4 8191      		ld r24,Z+
 2452               	.LM181:
 2453 00b6 9817      		cp r25,r24
 2454 00b8 01F0      		breq .L82
 599:test/test.c   **** 	{
 600:test/test.c   **** 	  test_failed();
 2456               	.LM182:
 2457 00ba 0E94 0000 		call test_failed
 2458               	.L80:
 2459               	/* epilogue start */
 2460               	.LBE39:
 601:test/test.c   **** 	  plaintext[i] = check[i];
 602:test/test.c   **** 	  return;	
 603:test/test.c   **** 	}
 604:test/test.c   ****     }
 605:test/test.c   **** 	
 606:test/test.c   ****   test_passed();
 607:test/test.c   **** 	
 608:test/test.c   ****   //################################
 609:test/test.c   **** }
 2462               	.LM183:
 2463 00be CE5B      		subi r28,-66
 2464 00c0 DB4F      		sbci r29,-5
 2465 00c2 CDBF      		out __SP_L__,r28
 2466 00c4 DEBF      		out __SP_H__,r29
 2467 00c6 DF91      		pop r29
 2468 00c8 CF91      		pop r28
 2469 00ca 1F91      		pop r17
 2470 00cc 0F91      		pop r16
 2471 00ce FF90      		pop r15
 2472 00d0 EF90      		pop r14
 2473 00d2 DF90      		pop r13
 2474 00d4 CF90      		pop r12
 2475 00d6 0895      		ret
 2476               	.L82:
 2477               	.LBB40:
 596:test/test.c   ****     {
 2479               	.LM184:
 2480 00d8 AC15      		cp r26,r12
 2481 00da BD05      		cpc r27,r13
 2482 00dc 01F4      		brne .L84
 2483               	.LBE40:
 606:test/test.c   **** 	
 2485               	.LM185:
 2486 00de 0E94 0000 		call test_passed
 2487 00e2 00C0      		rjmp .L80
 2495               	.Lscope14:
 2496               		.section	.rodata.testEncryptionAndDecryption_Karatsuba_4096_320.str1.1,"aMS",@progbits,1
 2497               	.LC21:
 2498 0000 5465 7374 		.string	"Testing Encryption and Decryption (Karatsuba, n = 320, q = 4096)... "
 2498      696E 6720 
 2498      456E 6372 
 2498      7970 7469 
 2498      6F6E 2061 
 2499               	.LC20:
 2500 0045 2170 6C61 		.string	"!plaintexttest!!!plaintexttest!!!plainte"
 2500      696E 7465 
 2500      7874 7465 
 2500      7374 2121 
 2500      2170 6C61 
 2501               		.section	.text.testEncryptionAndDecryption_Karatsuba_4096_320,"ax",@progbits
 2503               	.global	testEncryptionAndDecryption_Karatsuba_4096_320
 2505               	testEncryptionAndDecryption_Karatsuba_4096_320:
 610:test/test.c   **** 	
 611:test/test.c   **** void testEncryptionAndDecryption_Karatsuba_4096_320(void)
 612:test/test.c   **** {	
 2507               	.LM186:
 2508               	.LFBB15:
 2509 0000 CF92      		push r12
 2510 0002 DF92      		push r13
 2511 0004 EF92      		push r14
 2512 0006 FF92      		push r15
 2513 0008 0F93      		push r16
 2514 000a 1F93      		push r17
 2515 000c CF93      		push r28
 2516 000e DF93      		push r29
 2517 0010 CDB7      		in r28,__SP_L__
 2518 0012 DEB7      		in r29,__SP_H__
 2519 0014 C255      		subi r28,82
 2520 0016 D540      		sbci r29,5
 2521 0018 CDBF      		out __SP_L__,r28
 2522 001a DEBF      		out __SP_H__,r29
 2523               	/* prologue: function */
 2524               	/* frame size = 1362 */
 2525               	/* stack size = 1370 */
 2526               	.L__stack_usage = 1370
 613:test/test.c   ****   // Ciphertext
 614:test/test.c   ****   uint16_t c1[320];
 615:test/test.c   ****   uint16_t c2[320];
 616:test/test.c   **** 	
 617:test/test.c   ****   uint8_t plaintext[320/8+1] = "!plaintexttest!!!plaintexttest!!!plainte";
 2528               	.LM187:
 2529 001c 89E2      		ldi r24,lo8(41)
 2530 001e E0E0      		ldi r30,lo8(.LC20)
 2531 0020 F0E0      		ldi r31,hi8(.LC20)
 2532 0022 DE01      		movw r26,r28
 2533 0024 A65D      		subi r26,-42
 2534 0026 BA4F      		sbci r27,-6
 2535               		0:
 2536 0028 0190      		ld r0,Z+
 2537 002a 0D92      		st X+,r0
 2538 002c 8A95      		dec r24
 2539 002e 01F4      		brne 0b
 618:test/test.c   ****   uint8_t check[320/8+1] = "!plaintexttest!!!plaintexttest!!!plainte";
 2541               	.LM188:
 2542 0030 89E2      		ldi r24,lo8(41)
 2543 0032 E0E0      		ldi r30,lo8(.LC20)
 2544 0034 F0E0      		ldi r31,hi8(.LC20)
 2545 0036 DE01      		movw r26,r28
 2546 0038 AF5F      		subi r26,-1
 2547 003a BA4F      		sbci r27,-6
 2548               		0:
 2549 003c 0190      		ld r0,Z+
 2550 003e 0D92      		st X+,r0
 2551 0040 8A95      		dec r24
 2552 0042 01F4      		brne 0b
 619:test/test.c   **** 	
 620:test/test.c   ****   test_start("Testing Encryption and Decryption (Karatsuba, n = 320, q = 4096)... ");
 2554               	.LM189:
 2555 0044 80E0      		ldi r24,lo8(.LC21)
 2556 0046 90E0      		ldi r25,hi8(.LC21)
 2557 0048 0E94 0000 		call test_start
 621:test/test.c   **** 	
 622:test/test.c   ****   encrypt_ksuba_4096(plaintext, c1, c2, pubKeyA_4096_320, pubKeyP_4096_320,320);
 2559               	.LM190:
 2560 004c 80E4      		ldi r24,lo8(64)
 2561 004e E82E      		mov r14,r24
 2562 0050 FF24      		clr r15
 2563 0052 F394      		inc r15
 2564 0054 00E0      		ldi r16,lo8(pubKeyP_4096_320)
 2565 0056 10E0      		ldi r17,hi8(pubKeyP_4096_320)
 2566 0058 20E0      		ldi r18,lo8(pubKeyA_4096_320)
 2567 005a 30E0      		ldi r19,hi8(pubKeyA_4096_320)
 2568 005c AE01      		movw r20,r28
 2569 005e 4F5F      		subi r20,-1
 2570 0060 5F4F      		sbci r21,-1
 2571 0062 BE01      		movw r22,r28
 2572 0064 6F57      		subi r22,127
 2573 0066 7D4F      		sbci r23,-3
 2574 0068 CE01      		movw r24,r28
 2575 006a 865D      		subi r24,-42
 2576 006c 9A4F      		sbci r25,-6
 2577 006e 0E94 0000 		call encrypt_ksuba_4096
 2578 0072 CE01      		movw r24,r28
 2579 0074 865D      		subi r24,-42
 2580 0076 9A4F      		sbci r25,-6
 2581 0078 7C01      		movw r14,r24
 2582 007a 6C01      		movw r12,r24
 2583 007c 98E2      		ldi r25,40
 2584 007e C90E      		add r12,r25
 2585 0080 D11C      		adc r13,__zero_reg__
 2586 0082 F701      		movw r30,r14
 2587               	.L88:
 2588               	.LBB41:
 623:test/test.c   **** 				
 624:test/test.c   ****   for(int i = 0; i<320/8; i++)
 625:test/test.c   ****     {
 626:test/test.c   ****       plaintext[i] = 0;
 2590               	.LM191:
 2591 0084 1192      		st Z+,__zero_reg__
 624:test/test.c   ****     {
 2593               	.LM192:
 2594 0086 EC15      		cp r30,r12
 2595 0088 FD05      		cpc r31,r13
 2596 008a 01F4      		brne .L88
 2597               	.LBE41:
 627:test/test.c   ****     }
 628:test/test.c   **** 
 629:test/test.c   ****   decrypt_ksuba_4096(plaintext, c1, c2, prvKeyR2_4096_320,320);
 2599               	.LM193:
 2600 008c 00E4      		ldi r16,lo8(64)
 2601 008e 11E0      		ldi r17,lo8(1)
 2602 0090 20E0      		ldi r18,lo8(prvKeyR2_4096_320)
 2603 0092 30E0      		ldi r19,hi8(prvKeyR2_4096_320)
 2604 0094 AE01      		movw r20,r28
 2605 0096 4F5F      		subi r20,-1
 2606 0098 5F4F      		sbci r21,-1
 2607 009a BE01      		movw r22,r28
 2608 009c 6F57      		subi r22,127
 2609 009e 7D4F      		sbci r23,-3
 2610 00a0 CE01      		movw r24,r28
 2611 00a2 865D      		subi r24,-42
 2612 00a4 9A4F      		sbci r25,-6
 2613 00a6 0E94 0000 		call decrypt_ksuba_4096
 2614 00aa FE01      		movw r30,r28
 2615 00ac EF5F      		subi r30,-1
 2616 00ae FA4F      		sbci r31,-6
 2617               	.L91:
 2618               	.LBB42:
 630:test/test.c   **** 	
 631:test/test.c   ****   for(int i = 0; i<320/8; i++)
 632:test/test.c   ****     {
 633:test/test.c   ****       if(plaintext[i] != check[i])
 2620               	.LM194:
 2621 00b0 D701      		movw r26,r14
 2622 00b2 9D91      		ld r25,X+
 2623 00b4 7D01      		movw r14,r26
 2625               	.LM195:
 2626 00b6 8191      		ld r24,Z+
 2628               	.LM196:
 2629 00b8 9817      		cp r25,r24
 2630 00ba 01F0      		breq .L89
 634:test/test.c   **** 	{
 635:test/test.c   **** 	  test_failed();
 2632               	.LM197:
 2633 00bc 0E94 0000 		call test_failed
 2634               	.L87:
 2635               	/* epilogue start */
 2636               	.LBE42:
 636:test/test.c   **** 	  plaintext[i] = check[i];
 637:test/test.c   **** 	  return;	
 638:test/test.c   **** 	}
 639:test/test.c   ****     }
 640:test/test.c   **** 	
 641:test/test.c   ****   test_passed();
 642:test/test.c   **** 	
 643:test/test.c   ****   //################################
 644:test/test.c   **** }
 2638               	.LM198:
 2639 00c0 CE5A      		subi r28,-82
 2640 00c2 DA4F      		sbci r29,-6
 2641 00c4 CDBF      		out __SP_L__,r28
 2642 00c6 DEBF      		out __SP_H__,r29
 2643 00c8 DF91      		pop r29
 2644 00ca CF91      		pop r28
 2645 00cc 1F91      		pop r17
 2646 00ce 0F91      		pop r16
 2647 00d0 FF90      		pop r15
 2648 00d2 EF90      		pop r14
 2649 00d4 DF90      		pop r13
 2650 00d6 CF90      		pop r12
 2651 00d8 0895      		ret
 2652               	.L89:
 2653               	.LBB43:
 631:test/test.c   ****     {
 2655               	.LM199:
 2656 00da AC15      		cp r26,r12
 2657 00dc BD05      		cpc r27,r13
 2658 00de 01F4      		brne .L91
 2659               	.LBE43:
 641:test/test.c   **** 	
 2661               	.LM200:
 2662 00e0 0E94 0000 		call test_passed
 2663 00e4 00C0      		rjmp .L87
 2671               	.Lscope15:
 2672               		.section	.rodata.testEncryptionAndDecryption_School_4093_192.str1.1,"aMS",@progbits,1
 2673               	.LC22:
 2674 0000 5465 7374 		.string	"Testing Encryption and Decryption (Schoolbook, n = 192, q = 4093)... "
 2674      696E 6720 
 2674      456E 6372 
 2674      7970 7469 
 2674      6F6E 2061 
 2675               		.section	.text.testEncryptionAndDecryption_School_4093_192,"ax",@progbits
 2677               	.global	testEncryptionAndDecryption_School_4093_192
 2679               	testEncryptionAndDecryption_School_4093_192:
 645:test/test.c   **** 	
 646:test/test.c   **** void testEncryptionAndDecryption_School_4093_192(void)
 647:test/test.c   **** {
 2681               	.LM201:
 2682               	.LFBB16:
 2683 0000 CF92      		push r12
 2684 0002 DF92      		push r13
 2685 0004 EF92      		push r14
 2686 0006 FF92      		push r15
 2687 0008 0F93      		push r16
 2688 000a 1F93      		push r17
 2689 000c CF93      		push r28
 2690 000e DF93      		push r29
 2691 0010 CDB7      		in r28,__SP_L__
 2692 0012 DEB7      		in r29,__SP_H__
 2693 0014 C258      		subi r28,-126
 2694 0016 D340      		sbci r29,3
 2695 0018 CDBF      		out __SP_L__,r28
 2696 001a DEBF      		out __SP_H__,r29
 2697               	/* prologue: function */
 2698               	/* frame size = 898 */
 2699               	/* stack size = 906 */
 2700               	.L__stack_usage = 906
 648:test/test.c   ****   // Ciphertext
 649:test/test.c   ****   uint16_t c1[192];
 650:test/test.c   ****   uint16_t c2[192];
 651:test/test.c   **** 	
 652:test/test.c   ****   uint8_t plaintext[512/8+1] = "!plaintexttest!!!plaintexttest!!!plaintexttest!!!plaintexttest!!";
 2702               	.LM202:
 2703 001c 81E4      		ldi r24,lo8(65)
 2704 001e E0E0      		ldi r30,lo8(.LC11)
 2705 0020 F0E0      		ldi r31,hi8(.LC11)
 2706 0022 DE01      		movw r26,r28
 2707 0024 AE5B      		subi r26,-66
 2708 0026 BC4F      		sbci r27,-4
 2709               		0:
 2710 0028 0190      		ld r0,Z+
 2711 002a 0D92      		st X+,r0
 2712 002c 8A95      		dec r24
 2713 002e 01F4      		brne 0b
 653:test/test.c   ****   uint8_t check[512/8+1] = "!plaintexttest!!!plaintexttest!!!plaintexttest!!!plaintexttest!!";
 2715               	.LM203:
 2716 0030 81E4      		ldi r24,lo8(65)
 2717 0032 E0E0      		ldi r30,lo8(.LC11)
 2718 0034 F0E0      		ldi r31,hi8(.LC11)
 2719 0036 DE01      		movw r26,r28
 2720 0038 AF5F      		subi r26,-1
 2721 003a BC4F      		sbci r27,-4
 2722               		0:
 2723 003c 0190      		ld r0,Z+
 2724 003e 0D92      		st X+,r0
 2725 0040 8A95      		dec r24
 2726 0042 01F4      		brne 0b
 654:test/test.c   **** 	
 655:test/test.c   ****   test_start("Testing Encryption and Decryption (Schoolbook, n = 192, q = 4093)... ");
 2728               	.LM204:
 2729 0044 80E0      		ldi r24,lo8(.LC22)
 2730 0046 90E0      		ldi r25,hi8(.LC22)
 2731 0048 0E94 0000 		call test_start
 656:test/test.c   **** 	
 657:test/test.c   ****   encrypt_4093(plaintext, c1, c2, pubKeyA_4093_192, pubKeyP_4093_192,192);
 2733               	.LM205:
 2734 004c 80EC      		ldi r24,lo8(-64)
 2735 004e E82E      		mov r14,r24
 2736 0050 F12C      		mov r15,__zero_reg__
 2737 0052 00E0      		ldi r16,lo8(pubKeyP_4093_192)
 2738 0054 10E0      		ldi r17,hi8(pubKeyP_4093_192)
 2739 0056 20E0      		ldi r18,lo8(pubKeyA_4093_192)
 2740 0058 30E0      		ldi r19,hi8(pubKeyA_4093_192)
 2741 005a AE01      		movw r20,r28
 2742 005c 4F5F      		subi r20,-1
 2743 005e 5F4F      		sbci r21,-1
 2744 0060 BE01      		movw r22,r28
 2745 0062 6F57      		subi r22,127
 2746 0064 7E4F      		sbci r23,-2
 2747 0066 CE01      		movw r24,r28
 2748 0068 8E5B      		subi r24,-66
 2749 006a 9C4F      		sbci r25,-4
 2750 006c 0E94 0000 		call encrypt_4093
 2751 0070 CE01      		movw r24,r28
 2752 0072 8E5B      		subi r24,-66
 2753 0074 9C4F      		sbci r25,-4
 2754 0076 7C01      		movw r14,r24
 2755 0078 6C01      		movw r12,r24
 2756 007a 98E1      		ldi r25,24
 2757 007c C90E      		add r12,r25
 2758 007e D11C      		adc r13,__zero_reg__
 2759 0080 F701      		movw r30,r14
 2760               	.L95:
 2761               	.LBB44:
 658:test/test.c   **** 				
 659:test/test.c   ****   for(int i = 0; i<192/8; i++)
 660:test/test.c   ****     {
 661:test/test.c   ****       plaintext[i] = 0;
 2763               	.LM206:
 2764 0082 1192      		st Z+,__zero_reg__
 659:test/test.c   ****     {
 2766               	.LM207:
 2767 0084 EC15      		cp r30,r12
 2768 0086 FD05      		cpc r31,r13
 2769 0088 01F4      		brne .L95
 2770               	.LBE44:
 662:test/test.c   ****     }
 663:test/test.c   **** 
 664:test/test.c   ****   decrypt_4093(plaintext, c1, c2, prvKeyR2_4093_192,192);
 2772               	.LM208:
 2773 008a 00EC      		ldi r16,lo8(-64)
 2774 008c 10E0      		ldi r17,0
 2775 008e 20E0      		ldi r18,lo8(prvKeyR2_4093_192)
 2776 0090 30E0      		ldi r19,hi8(prvKeyR2_4093_192)
 2777 0092 AE01      		movw r20,r28
 2778 0094 4F5F      		subi r20,-1
 2779 0096 5F4F      		sbci r21,-1
 2780 0098 BE01      		movw r22,r28
 2781 009a 6F57      		subi r22,127
 2782 009c 7E4F      		sbci r23,-2
 2783 009e CE01      		movw r24,r28
 2784 00a0 8E5B      		subi r24,-66
 2785 00a2 9C4F      		sbci r25,-4
 2786 00a4 0E94 0000 		call decrypt_4093
 2787 00a8 FE01      		movw r30,r28
 2788 00aa EF5F      		subi r30,-1
 2789 00ac FC4F      		sbci r31,-4
 2790               	.L98:
 2791               	.LBB45:
 665:test/test.c   **** 	
 666:test/test.c   ****   for(int i = 0; i<192/8; i++)
 667:test/test.c   ****     {
 668:test/test.c   ****       if(plaintext[i] != check[i])
 2793               	.LM209:
 2794 00ae D701      		movw r26,r14
 2795 00b0 9D91      		ld r25,X+
 2796 00b2 7D01      		movw r14,r26
 2798               	.LM210:
 2799 00b4 8191      		ld r24,Z+
 2801               	.LM211:
 2802 00b6 9817      		cp r25,r24
 2803 00b8 01F0      		breq .L96
 669:test/test.c   **** 	{
 670:test/test.c   **** 	  test_failed();
 2805               	.LM212:
 2806 00ba 0E94 0000 		call test_failed
 2807               	.L94:
 2808               	/* epilogue start */
 2809               	.LBE45:
 671:test/test.c   **** 	  plaintext[i] = check[i];
 672:test/test.c   **** 	  return;	
 673:test/test.c   **** 	}
 674:test/test.c   ****     }
 675:test/test.c   **** 	
 676:test/test.c   ****   test_passed();
 677:test/test.c   **** 	
 678:test/test.c   ****   //################################
 679:test/test.c   **** }
 2811               	.LM213:
 2812 00be CE57      		subi r28,126
 2813 00c0 DC4F      		sbci r29,-4
 2814 00c2 CDBF      		out __SP_L__,r28
 2815 00c4 DEBF      		out __SP_H__,r29
 2816 00c6 DF91      		pop r29
 2817 00c8 CF91      		pop r28
 2818 00ca 1F91      		pop r17
 2819 00cc 0F91      		pop r16
 2820 00ce FF90      		pop r15
 2821 00d0 EF90      		pop r14
 2822 00d2 DF90      		pop r13
 2823 00d4 CF90      		pop r12
 2824 00d6 0895      		ret
 2825               	.L96:
 2826               	.LBB46:
 666:test/test.c   ****     {
 2828               	.LM214:
 2829 00d8 AC15      		cp r26,r12
 2830 00da BD05      		cpc r27,r13
 2831 00dc 01F4      		brne .L98
 2832               	.LBE46:
 676:test/test.c   **** 	
 2834               	.LM215:
 2835 00de 0E94 0000 		call test_passed
 2836 00e2 00C0      		rjmp .L94
 2844               	.Lscope16:
 2845               		.section	.rodata.testEncryptionAndDecryption_School_4093_256.str1.1,"aMS",@progbits,1
 2846               	.LC23:
 2847 0000 5465 7374 		.string	"Testing Encryption and Decryption (Schoolbook, n = 256, q = 4093)... "
 2847      696E 6720 
 2847      456E 6372 
 2847      7970 7469 
 2847      6F6E 2061 
 2848               		.section	.text.testEncryptionAndDecryption_School_4093_256,"ax",@progbits
 2850               	.global	testEncryptionAndDecryption_School_4093_256
 2852               	testEncryptionAndDecryption_School_4093_256:
 680:test/test.c   **** 	
 681:test/test.c   **** void testEncryptionAndDecryption_School_4093_256(void)
 682:test/test.c   **** {
 2854               	.LM216:
 2855               	.LFBB17:
 2856 0000 CF92      		push r12
 2857 0002 DF92      		push r13
 2858 0004 EF92      		push r14
 2859 0006 FF92      		push r15
 2860 0008 0F93      		push r16
 2861 000a 1F93      		push r17
 2862 000c CF93      		push r28
 2863 000e DF93      		push r29
 2864 0010 CDB7      		in r28,__SP_L__
 2865 0012 DEB7      		in r29,__SP_H__
 2866 0014 C254      		subi r28,66
 2867 0016 D440      		sbci r29,4
 2868 0018 CDBF      		out __SP_L__,r28
 2869 001a DEBF      		out __SP_H__,r29
 2870               	/* prologue: function */
 2871               	/* frame size = 1090 */
 2872               	/* stack size = 1098 */
 2873               	.L__stack_usage = 1098
 683:test/test.c   ****   // Ciphertext
 684:test/test.c   ****   uint16_t c1[256];
 685:test/test.c   ****   uint16_t c2[256];
 686:test/test.c   **** 	
 687:test/test.c   ****   uint8_t plaintext[256/8+1] = "!plaintexttest!!!plaintexttest!!";
 2875               	.LM217:
 2876 001c 81E2      		ldi r24,lo8(33)
 2877 001e E0E0      		ldi r30,lo8(.LC9)
 2878 0020 F0E0      		ldi r31,hi8(.LC9)
 2879 0022 DE01      		movw r26,r28
 2880 0024 AE5D      		subi r26,-34
 2881 0026 BB4F      		sbci r27,-5
 2882               		0:
 2883 0028 0190      		ld r0,Z+
 2884 002a 0D92      		st X+,r0
 2885 002c 8A95      		dec r24
 2886 002e 01F4      		brne 0b
 688:test/test.c   ****   uint8_t check[256/8+1] = "!plaintexttest!!!plaintexttest!!";
 2888               	.LM218:
 2889 0030 81E2      		ldi r24,lo8(33)
 2890 0032 E0E0      		ldi r30,lo8(.LC9)
 2891 0034 F0E0      		ldi r31,hi8(.LC9)
 2892 0036 DE01      		movw r26,r28
 2893 0038 AF5F      		subi r26,-1
 2894 003a BB4F      		sbci r27,-5
 2895               		0:
 2896 003c 0190      		ld r0,Z+
 2897 003e 0D92      		st X+,r0
 2898 0040 8A95      		dec r24
 2899 0042 01F4      		brne 0b
 689:test/test.c   **** 	
 690:test/test.c   ****   test_start("Testing Encryption and Decryption (Schoolbook, n = 256, q = 4093)... ");
 2901               	.LM219:
 2902 0044 80E0      		ldi r24,lo8(.LC23)
 2903 0046 90E0      		ldi r25,hi8(.LC23)
 2904 0048 0E94 0000 		call test_start
 691:test/test.c   **** 	
 692:test/test.c   ****   encrypt_4093(plaintext, c1, c2, pubKeyA_4093_256, pubKeyP_4093_256,256);
 2906               	.LM220:
 2907 004c E12C      		mov r14,__zero_reg__
 2908 004e FF24      		clr r15
 2909 0050 F394      		inc r15
 2910 0052 00E0      		ldi r16,lo8(pubKeyP_4093_256)
 2911 0054 10E0      		ldi r17,hi8(pubKeyP_4093_256)
 2912 0056 20E0      		ldi r18,lo8(pubKeyA_4093_256)
 2913 0058 30E0      		ldi r19,hi8(pubKeyA_4093_256)
 2914 005a AE01      		movw r20,r28
 2915 005c 4F5F      		subi r20,-1
 2916 005e 5F4F      		sbci r21,-1
 2917 0060 BE01      		movw r22,r28
 2918 0062 6F5F      		subi r22,-1
 2919 0064 7D4F      		sbci r23,-3
 2920 0066 CE01      		movw r24,r28
 2921 0068 8E5D      		subi r24,-34
 2922 006a 9B4F      		sbci r25,-5
 2923 006c 0E94 0000 		call encrypt_4093
 2924 0070 CE01      		movw r24,r28
 2925 0072 8E5D      		subi r24,-34
 2926 0074 9B4F      		sbci r25,-5
 2927 0076 7C01      		movw r14,r24
 2928 0078 6C01      		movw r12,r24
 2929 007a 90E2      		ldi r25,32
 2930 007c C90E      		add r12,r25
 2931 007e D11C      		adc r13,__zero_reg__
 2932 0080 F701      		movw r30,r14
 2933               	.L102:
 2934               	.LBB47:
 693:test/test.c   **** 				
 694:test/test.c   ****   for(int i = 0; i<256/8; i++)
 695:test/test.c   ****     {
 696:test/test.c   ****       plaintext[i] = 0;
 2936               	.LM221:
 2937 0082 1192      		st Z+,__zero_reg__
 694:test/test.c   ****     {
 2939               	.LM222:
 2940 0084 EC15      		cp r30,r12
 2941 0086 FD05      		cpc r31,r13
 2942 0088 01F4      		brne .L102
 2943               	.LBE47:
 697:test/test.c   ****     }
 698:test/test.c   **** 
 699:test/test.c   ****   decrypt_4093(plaintext, c1, c2, prvKeyR2_4093_256,256);
 2945               	.LM223:
 2946 008a 00E0      		ldi r16,0
 2947 008c 11E0      		ldi r17,lo8(1)
 2948 008e 20E0      		ldi r18,lo8(prvKeyR2_4093_256)
 2949 0090 30E0      		ldi r19,hi8(prvKeyR2_4093_256)
 2950 0092 AE01      		movw r20,r28
 2951 0094 4F5F      		subi r20,-1
 2952 0096 5F4F      		sbci r21,-1
 2953 0098 BE01      		movw r22,r28
 2954 009a 6F5F      		subi r22,-1
 2955 009c 7D4F      		sbci r23,-3
 2956 009e CE01      		movw r24,r28
 2957 00a0 8E5D      		subi r24,-34
 2958 00a2 9B4F      		sbci r25,-5
 2959 00a4 0E94 0000 		call decrypt_4093
 2960 00a8 FE01      		movw r30,r28
 2961 00aa EF5F      		subi r30,-1
 2962 00ac FB4F      		sbci r31,-5
 2963               	.L105:
 2964               	.LBB48:
 700:test/test.c   **** 	
 701:test/test.c   ****   for(int i = 0; i<256/8; i++)
 702:test/test.c   ****     {
 703:test/test.c   ****       if(plaintext[i] != check[i])
 2966               	.LM224:
 2967 00ae D701      		movw r26,r14
 2968 00b0 9D91      		ld r25,X+
 2969 00b2 7D01      		movw r14,r26
 2971               	.LM225:
 2972 00b4 8191      		ld r24,Z+
 2974               	.LM226:
 2975 00b6 9817      		cp r25,r24
 2976 00b8 01F0      		breq .L103
 704:test/test.c   **** 	{
 705:test/test.c   **** 	  test_failed();
 2978               	.LM227:
 2979 00ba 0E94 0000 		call test_failed
 2980               	.L101:
 2981               	/* epilogue start */
 2982               	.LBE48:
 706:test/test.c   **** 	  plaintext[i] = check[i];
 707:test/test.c   **** 	  return;	
 708:test/test.c   **** 	}
 709:test/test.c   ****     }
 710:test/test.c   **** 	
 711:test/test.c   ****   test_passed();
 712:test/test.c   **** 	
 713:test/test.c   ****   //################################
 714:test/test.c   **** }
 2984               	.LM228:
 2985 00be CE5B      		subi r28,-66
 2986 00c0 DB4F      		sbci r29,-5
 2987 00c2 CDBF      		out __SP_L__,r28
 2988 00c4 DEBF      		out __SP_H__,r29
 2989 00c6 DF91      		pop r29
 2990 00c8 CF91      		pop r28
 2991 00ca 1F91      		pop r17
 2992 00cc 0F91      		pop r16
 2993 00ce FF90      		pop r15
 2994 00d0 EF90      		pop r14
 2995 00d2 DF90      		pop r13
 2996 00d4 CF90      		pop r12
 2997 00d6 0895      		ret
 2998               	.L103:
 2999               	.LBB49:
 701:test/test.c   ****     {
 3001               	.LM229:
 3002 00d8 AC15      		cp r26,r12
 3003 00da BD05      		cpc r27,r13
 3004 00dc 01F4      		brne .L105
 3005               	.LBE49:
 711:test/test.c   **** 	
 3007               	.LM230:
 3008 00de 0E94 0000 		call test_passed
 3009 00e2 00C0      		rjmp .L101
 3017               	.Lscope17:
 3018               		.section	.rodata.testEncryptionAndDecryption_School_4093_320.str1.1,"aMS",@progbits,1
 3019               	.LC24:
 3020 0000 5465 7374 		.string	"Testing Encryption and Decryption (Schoolbook, n = 320, q = 4093)... "
 3020      696E 6720 
 3020      456E 6372 
 3020      7970 7469 
 3020      6F6E 2061 
 3021               		.section	.text.testEncryptionAndDecryption_School_4093_320,"ax",@progbits
 3023               	.global	testEncryptionAndDecryption_School_4093_320
 3025               	testEncryptionAndDecryption_School_4093_320:
 715:test/test.c   **** 	
 716:test/test.c   **** void testEncryptionAndDecryption_School_4093_320(void)
 717:test/test.c   **** {
 3027               	.LM231:
 3028               	.LFBB18:
 3029 0000 CF92      		push r12
 3030 0002 DF92      		push r13
 3031 0004 EF92      		push r14
 3032 0006 FF92      		push r15
 3033 0008 0F93      		push r16
 3034 000a 1F93      		push r17
 3035 000c CF93      		push r28
 3036 000e DF93      		push r29
 3037 0010 CDB7      		in r28,__SP_L__
 3038 0012 DEB7      		in r29,__SP_H__
 3039 0014 C258      		subi r28,-126
 3040 0016 D540      		sbci r29,5
 3041 0018 CDBF      		out __SP_L__,r28
 3042 001a DEBF      		out __SP_H__,r29
 3043               	/* prologue: function */
 3044               	/* frame size = 1410 */
 3045               	/* stack size = 1418 */
 3046               	.L__stack_usage = 1418
 718:test/test.c   ****   // Ciphertext
 719:test/test.c   ****   uint16_t c1[320];
 720:test/test.c   ****   uint16_t c2[320];
 721:test/test.c   **** 	
 722:test/test.c   ****   uint8_t plaintext[512/8+1] = "!plaintexttest!!!plaintexttest!!!plaintexttest!!!plaintexttest!!";
 3048               	.LM232:
 3049 001c 81E4      		ldi r24,lo8(65)
 3050 001e E0E0      		ldi r30,lo8(.LC11)
 3051 0020 F0E0      		ldi r31,hi8(.LC11)
 3052 0022 DE01      		movw r26,r28
 3053 0024 AE5B      		subi r26,-66
 3054 0026 BA4F      		sbci r27,-6
 3055               		0:
 3056 0028 0190      		ld r0,Z+
 3057 002a 0D92      		st X+,r0
 3058 002c 8A95      		dec r24
 3059 002e 01F4      		brne 0b
 723:test/test.c   ****   uint8_t check[512/8+1] = "!plaintexttest!!!plaintexttest!!!plaintexttest!!!plaintexttest!!";
 3061               	.LM233:
 3062 0030 81E4      		ldi r24,lo8(65)
 3063 0032 E0E0      		ldi r30,lo8(.LC11)
 3064 0034 F0E0      		ldi r31,hi8(.LC11)
 3065 0036 DE01      		movw r26,r28
 3066 0038 AF5F      		subi r26,-1
 3067 003a BA4F      		sbci r27,-6
 3068               		0:
 3069 003c 0190      		ld r0,Z+
 3070 003e 0D92      		st X+,r0
 3071 0040 8A95      		dec r24
 3072 0042 01F4      		brne 0b
 724:test/test.c   **** 	
 725:test/test.c   ****   test_start("Testing Encryption and Decryption (Schoolbook, n = 320, q = 4093)... ");
 3074               	.LM234:
 3075 0044 80E0      		ldi r24,lo8(.LC24)
 3076 0046 90E0      		ldi r25,hi8(.LC24)
 3077 0048 0E94 0000 		call test_start
 726:test/test.c   **** 	
 727:test/test.c   ****   encrypt_4093(plaintext, c1, c2, pubKeyA_4093_320, pubKeyP_4093_320,320);
 3079               	.LM235:
 3080 004c 80E4      		ldi r24,lo8(64)
 3081 004e E82E      		mov r14,r24
 3082 0050 FF24      		clr r15
 3083 0052 F394      		inc r15
 3084 0054 00E0      		ldi r16,lo8(pubKeyP_4093_320)
 3085 0056 10E0      		ldi r17,hi8(pubKeyP_4093_320)
 3086 0058 20E0      		ldi r18,lo8(pubKeyA_4093_320)
 3087 005a 30E0      		ldi r19,hi8(pubKeyA_4093_320)
 3088 005c AE01      		movw r20,r28
 3089 005e 4F5F      		subi r20,-1
 3090 0060 5F4F      		sbci r21,-1
 3091 0062 BE01      		movw r22,r28
 3092 0064 6F57      		subi r22,127
 3093 0066 7D4F      		sbci r23,-3
 3094 0068 CE01      		movw r24,r28
 3095 006a 8E5B      		subi r24,-66
 3096 006c 9A4F      		sbci r25,-6
 3097 006e 0E94 0000 		call encrypt_4093
 3098 0072 CE01      		movw r24,r28
 3099 0074 8E5B      		subi r24,-66
 3100 0076 9A4F      		sbci r25,-6
 3101 0078 7C01      		movw r14,r24
 3102 007a 6C01      		movw r12,r24
 3103 007c 98E2      		ldi r25,40
 3104 007e C90E      		add r12,r25
 3105 0080 D11C      		adc r13,__zero_reg__
 3106 0082 F701      		movw r30,r14
 3107               	.L109:
 3108               	.LBB50:
 728:test/test.c   **** 				
 729:test/test.c   ****   for(int i = 0; i<320/8; i++)
 730:test/test.c   ****     {
 731:test/test.c   ****       plaintext[i] = 0;
 3110               	.LM236:
 3111 0084 1192      		st Z+,__zero_reg__
 729:test/test.c   ****     {
 3113               	.LM237:
 3114 0086 EC15      		cp r30,r12
 3115 0088 FD05      		cpc r31,r13
 3116 008a 01F4      		brne .L109
 3117               	.LBE50:
 732:test/test.c   ****     }
 733:test/test.c   **** 
 734:test/test.c   ****   decrypt_4093(plaintext, c1, c2, prvKeyR2_4093_320,320);
 3119               	.LM238:
 3120 008c 00E4      		ldi r16,lo8(64)
 3121 008e 11E0      		ldi r17,lo8(1)
 3122 0090 20E0      		ldi r18,lo8(prvKeyR2_4093_320)
 3123 0092 30E0      		ldi r19,hi8(prvKeyR2_4093_320)
 3124 0094 AE01      		movw r20,r28
 3125 0096 4F5F      		subi r20,-1
 3126 0098 5F4F      		sbci r21,-1
 3127 009a BE01      		movw r22,r28
 3128 009c 6F57      		subi r22,127
 3129 009e 7D4F      		sbci r23,-3
 3130 00a0 CE01      		movw r24,r28
 3131 00a2 8E5B      		subi r24,-66
 3132 00a4 9A4F      		sbci r25,-6
 3133 00a6 0E94 0000 		call decrypt_4093
 3134 00aa FE01      		movw r30,r28
 3135 00ac EF5F      		subi r30,-1
 3136 00ae FA4F      		sbci r31,-6
 3137               	.L112:
 3138               	.LBB51:
 735:test/test.c   **** 	
 736:test/test.c   ****   for(int i = 0; i<320/8; i++)
 737:test/test.c   ****     {
 738:test/test.c   ****       if(plaintext[i] != check[i])
 3140               	.LM239:
 3141 00b0 D701      		movw r26,r14
 3142 00b2 9D91      		ld r25,X+
 3143 00b4 7D01      		movw r14,r26
 3145               	.LM240:
 3146 00b6 8191      		ld r24,Z+
 3148               	.LM241:
 3149 00b8 9817      		cp r25,r24
 3150 00ba 01F0      		breq .L110
 739:test/test.c   **** 	{
 740:test/test.c   **** 	  test_failed();
 3152               	.LM242:
 3153 00bc 0E94 0000 		call test_failed
 3154               	.L108:
 3155               	/* epilogue start */
 3156               	.LBE51:
 741:test/test.c   **** 	  plaintext[i] = check[i];
 742:test/test.c   **** 	  return;	
 743:test/test.c   **** 	}
 744:test/test.c   ****     }
 745:test/test.c   **** 	
 746:test/test.c   ****   test_passed();
 747:test/test.c   **** 	
 748:test/test.c   ****   //################################
 749:test/test.c   **** }
 3158               	.LM243:
 3159 00c0 CE57      		subi r28,126
 3160 00c2 DA4F      		sbci r29,-6
 3161 00c4 CDBF      		out __SP_L__,r28
 3162 00c6 DEBF      		out __SP_H__,r29
 3163 00c8 DF91      		pop r29
 3164 00ca CF91      		pop r28
 3165 00cc 1F91      		pop r17
 3166 00ce 0F91      		pop r16
 3167 00d0 FF90      		pop r15
 3168 00d2 EF90      		pop r14
 3169 00d4 DF90      		pop r13
 3170 00d6 CF90      		pop r12
 3171 00d8 0895      		ret
 3172               	.L110:
 3173               	.LBB52:
 736:test/test.c   ****     {
 3175               	.LM244:
 3176 00da AC15      		cp r26,r12
 3177 00dc BD05      		cpc r27,r13
 3178 00de 01F4      		brne .L112
 3179               	.LBE52:
 746:test/test.c   **** 	
 3181               	.LM245:
 3182 00e0 0E94 0000 		call test_passed
 3183 00e4 00C0      		rjmp .L108
 3191               	.Lscope18:
 3192               		.section	.text.startup.main,"ax",@progbits
 3194               	.global	main
 3196               	main:
  99:test/test.c   **** 
 3198               	.LM246:
 3199               	.LFBB19:
 3200               	/* prologue: function */
 3201               	/* frame size = 0 */
 3202               	/* stack size = 0 */
 3203               	.L__stack_usage = 0
 102:test/test.c   ****   do {} while ( CLKSYS_IsReady( OSC_RC32MRDY_bm ) == 0 );
 3205               	.LM247:
 3206 0000 8091 5000 		lds r24,80
 3207 0004 8260      		ori r24,lo8(2)
 3208 0006 8093 5000 		sts 80,r24
 3209               	.L116:
 103:test/test.c   ****   CLKSYS_Main_ClockSource_Select( CLK_SCLKSEL_RC32M_gc );
 3211               	.LM248:
 3212 000a 8091 5100 		lds r24,81
 103:test/test.c   ****   CLKSYS_Main_ClockSource_Select( CLK_SCLKSEL_RC32M_gc );
 3214               	.LM249:
 3215 000e 81FF      		sbrs r24,1
 3216 0010 00C0      		rjmp .L116
 104:test/test.c   ****   CLKSYS_Disable( OSC_RC2MEN_bm | OSC_RC32KEN_bm );
 3218               	.LM250:
 3219 0012 81E0      		ldi r24,lo8(1)
 3220 0014 0E94 0000 		call CLKSYS_Main_ClockSource_Select
 105:test/test.c   **** 	
 3222               	.LM251:
 3223 0018 85E0      		ldi r24,lo8(5)
 3224 001a 0E94 0000 		call CLKSYS_Disable
 107:test/test.c   ****   avr_trng_init();
 3226               	.LM252:
 3227 001e 0E94 0000 		call USARTinit
 108:test/test.c   **** 
 3229               	.LM253:
 3230 0022 0E94 0000 		call avr_trng_init
 110:test/test.c   ****   
 3232               	.LM254:
 3233 0026 8AE0      		ldi r24,lo8(10)
 3234 0028 90E0      		ldi r25,0
 3235 002a 0E94 0000 		call putchar
 155:test/test.c   ****   testEncryptionAndDecryption_NTT_12289_512();
 3237               	.LM255:
 3238 002e 0E94 0000 		call testEncryptionAndDecryption_NTT_7681_256
 156:test/test.c   ****   testEncryptionAndDecryption_School_4093_192();
 3240               	.LM256:
 3241 0032 0E94 0000 		call testEncryptionAndDecryption_NTT_12289_512
 157:test/test.c   ****   testEncryptionAndDecryption_School_4093_256();
 3243               	.LM257:
 3244 0036 0E94 0000 		call testEncryptionAndDecryption_School_4093_192
 158:test/test.c   ****   testEncryptionAndDecryption_School_4093_320();
 3246               	.LM258:
 3247 003a 0E94 0000 		call testEncryptionAndDecryption_School_4093_256
 159:test/test.c   **** 
 3249               	.LM259:
 3250 003e 0E94 0000 		call testEncryptionAndDecryption_School_4093_320
 161:test/test.c   ****   set_max_recursion_stages4096(5);
 3252               	.LM260:
 3253 0042 85E0      		ldi r24,lo8(5)
 3254 0044 0E94 0000 		call set_max_recursion_stages
 162:test/test.c   **** 
 3256               	.LM261:
 3257 0048 85E0      		ldi r24,lo8(5)
 3258 004a 0E94 0000 		call set_max_recursion_stages4096
 3259               	.LBB53:
 166:test/test.c   ****   	testEncryptionAndDecryption_Karatsuba_4093_256();
 3261               	.LM262:
 3262 004e 0E94 0000 		call testEncryptionAndDecryption_Karatsuba_4093_192
 167:test/test.c   ****   	testEncryptionAndDecryption_Karatsuba_4093_320();
 3264               	.LM263:
 3265 0052 0E94 0000 		call testEncryptionAndDecryption_Karatsuba_4093_256
 168:test/test.c   ****   }
 3267               	.LM264:
 3268 0056 0E94 0000 		call testEncryptionAndDecryption_Karatsuba_4093_320
 3269               	.LBE53:
 3270               	.LBB54:
 173:test/test.c   ****   	testEncryptionAndDecryption_Karatsuba_4096_256();
 3272               	.LM265:
 3273 005a 0E94 0000 		call testEncryptionAndDecryption_Karatsuba_4096_192
 174:test/test.c   ****   	testEncryptionAndDecryption_Karatsuba_4096_320();
 3275               	.LM266:
 3276 005e 0E94 0000 		call testEncryptionAndDecryption_Karatsuba_4096_256
 175:test/test.c   ****   }
 3278               	.LM267:
 3279 0062 0E94 0000 		call testEncryptionAndDecryption_Karatsuba_4096_320
 3280               	.LBE54:
 192:test/test.c   **** 
 3282               	.LM268:
 3283 0066 0E94 0000 		call test_end
 194:test/test.c   ****   fflush(stdout);
 3285               	.LM269:
 3286 006a 8AE0      		ldi r24,lo8(10)
 3287 006c 90E0      		ldi r25,0
 3288 006e 0E94 0000 		call putchar
 196:test/test.c   **** 
 3290               	.LM270:
 3291 0072 8AE0      		ldi r24,lo8(10)
 3292 0074 90E0      		ldi r25,0
 3293 0076 0E94 0000 		call putchar
 3294 007a C4EF      		ldi r28,lo8(-12)
 3295 007c D1E0      		ldi r29,lo8(1)
 3296               	.L117:
 3297               	.LBB55:
 199:test/test.c   ****   }
 3299               	.LM271:
 3300 007e 80E2      		ldi r24,lo8(32)
 3301 0080 90E0      		ldi r25,0
 3302 0082 0E94 0000 		call putchar
 3303 0086 2197      		sbiw r28,1
 198:test/test.c   ****     printf(" ");
 3305               	.LM272:
 3306 0088 01F4      		brne .L117
 3307               	.LBE55:
 202:test/test.c   **** 
 3309               	.LM273:
 3310 008a 90E0      		ldi r25,0
 3311 008c 80E0      		ldi r24,0
 3312               	/* epilogue start */
 3313 008e 0895      		ret
 3315               	.Lscope19:
 3316               		.section	.bss.mod_tests,"aw",@nobits
 3319               	mod_tests:
 3320 0000 0000      		.zero	2
 3322               		.section	.bss.mod_errors,"aw",@nobits
 3325               	mod_errors:
 3326 0000 0000      		.zero	2
 3328               		.section	.progmem.data.pubKeyA_4096_320,"a"
 3331               	pubKeyA_4096_320:
 3332 0000 F500      		.word	245
 3333 0002 8501      		.word	389
 3334 0004 2402      		.word	548
 3335 0006 9808      		.word	2200
 3336 0008 8C05      		.word	1420
 3337 000a B309      		.word	2483
 3338 000c A10F      		.word	4001
 3339 000e B30B      		.word	2995
 3340 0010 BC03      		.word	956
 3341 0012 C405      		.word	1476
 3342 0014 8209      		.word	2434
 3343 0016 A40A      		.word	2724
 3344 0018 7300      		.word	115
 3345 001a 8E01      		.word	398
 3346 001c CF0F      		.word	4047
 3347 001e 3F0A      		.word	2623
 3348 0020 F507      		.word	2037
 3349 0022 9505      		.word	1429
 3350 0024 E90B      		.word	3049
 3351 0026 2C0C      		.word	3116
 3352 0028 1D08      		.word	2077
 3353 002a C405      		.word	1476
 3354 002c CD04      		.word	1229
 3355 002e 4C0A      		.word	2636
 3356 0030 0902      		.word	521
 3357 0032 FB05      		.word	1531
 3358 0034 530A      		.word	2643
 3359 0036 C707      		.word	1991
 3360 0038 0B04      		.word	1035
 3361 003a 2902      		.word	553
 3362 003c BB08      		.word	2235
 3363 003e 650A      		.word	2661
 3364 0040 1507      		.word	1813
 3365 0042 F009      		.word	2544
 3366 0044 B70C      		.word	3255
 3367 0046 7500      		.word	117
 3368 0048 910E      		.word	3729
 3369 004a 2402      		.word	548
 3370 004c 4C06      		.word	1612
 3371 004e A703      		.word	935
 3372 0050 DF0F      		.word	4063
 3373 0052 900C      		.word	3216
 3374 0054 5F0F      		.word	3935
 3375 0056 A00B      		.word	2976
 3376 0058 7908      		.word	2169
 3377 005a BF0A      		.word	2751
 3378 005c DA09      		.word	2522
 3379 005e A10E      		.word	3745
 3380 0060 880D      		.word	3464
 3381 0062 5809      		.word	2392
 3382 0064 880B      		.word	2952
 3383 0066 270D      		.word	3367
 3384 0068 180F      		.word	3864
 3385 006a E606      		.word	1766
 3386 006c DC04      		.word	1244
 3387 006e 580D      		.word	3416
 3388 0070 4305      		.word	1347
 3389 0072 6501      		.word	357
 3390 0074 D00C      		.word	3280
 3391 0076 480A      		.word	2632
 3392 0078 6F00      		.word	111
 3393 007a EC0E      		.word	3820
 3394 007c D808      		.word	2264
 3395 007e F103      		.word	1009
 3396 0080 7808      		.word	2168
 3397 0082 E90D      		.word	3561
 3398 0084 3F0A      		.word	2623
 3399 0086 5109      		.word	2385
 3400 0088 0205      		.word	1282
 3401 008a A705      		.word	1447
 3402 008c 5406      		.word	1620
 3403 008e 2209      		.word	2338
 3404 0090 5400      		.word	84
 3405 0092 EC07      		.word	2028
 3406 0094 8608      		.word	2182
 3407 0096 5409      		.word	2388
 3408 0098 7600      		.word	118
 3409 009a A703      		.word	935
 3410 009c 3804      		.word	1080
 3411 009e 7708      		.word	2167
 3412 00a0 3609      		.word	2358
 3413 00a2 EE08      		.word	2286
 3414 00a4 5E0D      		.word	3422
 3415 00a6 0902      		.word	521
 3416 00a8 9801      		.word	408
 3417 00aa 130E      		.word	3603
 3418 00ac 1801      		.word	280
 3419 00ae B80B      		.word	3000
 3420 00b0 E90D      		.word	3561
 3421 00b2 2A0B      		.word	2858
 3422 00b4 8B0C      		.word	3211
 3423 00b6 840B      		.word	2948
 3424 00b8 690F      		.word	3945
 3425 00ba A801      		.word	424
 3426 00bc 9902      		.word	665
 3427 00be EB06      		.word	1771
 3428 00c0 310D      		.word	3377
 3429 00c2 C108      		.word	2241
 3430 00c4 7302      		.word	627
 3431 00c6 CE0E      		.word	3790
 3432 00c8 7306      		.word	1651
 3433 00ca 1D01      		.word	285
 3434 00cc 5206      		.word	1618
 3435 00ce A909      		.word	2473
 3436 00d0 470F      		.word	3911
 3437 00d2 CF01      		.word	463
 3438 00d4 2F02      		.word	559
 3439 00d6 A70A      		.word	2727
 3440 00d8 EF07      		.word	2031
 3441 00da 360F      		.word	3894
 3442 00dc 640C      		.word	3172
 3443 00de C405      		.word	1476
 3444 00e0 D10B      		.word	3025
 3445 00e2 BA07      		.word	1978
 3446 00e4 BB08      		.word	2235
 3447 00e6 DE03      		.word	990
 3448 00e8 E902      		.word	745
 3449 00ea 600A      		.word	2656
 3450 00ec 0207      		.word	1794
 3451 00ee DD0E      		.word	3805
 3452 00f0 6000      		.word	96
 3453 00f2 3308      		.word	2099
 3454 00f4 0E07      		.word	1806
 3455 00f6 330D      		.word	3379
 3456 00f8 960E      		.word	3734
 3457 00fa 8105      		.word	1409
 3458 00fc C70B      		.word	3015
 3459 00fe 560A      		.word	2646
 3460 0100 B00E      		.word	3760
 3461 0102 BA0D      		.word	3514
 3462 0104 8003      		.word	896
 3463 0106 490D      		.word	3401
 3464 0108 6E08      		.word	2158
 3465 010a 2C0F      		.word	3884
 3466 010c A40C      		.word	3236
 3467 010e 020B      		.word	2818
 3468 0110 790D      		.word	3449
 3469 0112 0404      		.word	1028
 3470 0114 8A0D      		.word	3466
 3471 0116 B207      		.word	1970
 3472 0118 DD0B      		.word	3037
 3473 011a 1703      		.word	791
 3474 011c 020E      		.word	3586
 3475 011e 2D03      		.word	813
 3476 0120 590F      		.word	3929
 3477 0122 F907      		.word	2041
 3478 0124 C201      		.word	450
 3479 0126 9C0B      		.word	2972
 3480 0128 8F05      		.word	1423
 3481 012a F401      		.word	500
 3482 012c C507      		.word	1989
 3483 012e 2706      		.word	1575
 3484 0130 AF0A      		.word	2735
 3485 0132 930F      		.word	3987
 3486 0134 FE03      		.word	1022
 3487 0136 6609      		.word	2406
 3488 0138 430B      		.word	2883
 3489 013a B506      		.word	1717
 3490 013c 330D      		.word	3379
 3491 013e FF09      		.word	2559
 3492 0140 D603      		.word	982
 3493 0142 2101      		.word	289
 3494 0144 EB08      		.word	2283
 3495 0146 C601      		.word	454
 3496 0148 0404      		.word	1028
 3497 014a 4C07      		.word	1868
 3498 014c 9402      		.word	660
 3499 014e 3105      		.word	1329
 3500 0150 E309      		.word	2531
 3501 0152 9403      		.word	916
 3502 0154 270F      		.word	3879
 3503 0156 0F0B      		.word	2831
 3504 0158 400B      		.word	2880
 3505 015a FB0E      		.word	3835
 3506 015c DA0C      		.word	3290
 3507 015e 7A03      		.word	890
 3508 0160 2007      		.word	1824
 3509 0162 720F      		.word	3954
 3510 0164 DF06      		.word	1759
 3511 0166 630C      		.word	3171
 3512 0168 CB02      		.word	715
 3513 016a 700F      		.word	3952
 3514 016c 3B0A      		.word	2619
 3515 016e 360E      		.word	3638
 3516 0170 DC03      		.word	988
 3517 0172 220F      		.word	3874
 3518 0174 9E07      		.word	1950
 3519 0176 9804      		.word	1176
 3520 0178 8E01      		.word	398
 3521 017a 2703      		.word	807
 3522 017c DC0E      		.word	3804
 3523 017e EE0D      		.word	3566
 3524 0180 730A      		.word	2675
 3525 0182 3A04      		.word	1082
 3526 0184 7C07      		.word	1916
 3527 0186 A20B      		.word	2978
 3528 0188 070C      		.word	3079
 3529 018a A003      		.word	928
 3530 018c 7004      		.word	1136
 3531 018e 7606      		.word	1654
 3532 0190 2606      		.word	1574
 3533 0192 7B04      		.word	1147
 3534 0194 3600      		.word	54
 3535 0196 490F      		.word	3913
 3536 0198 DB0B      		.word	3035
 3537 019a A90B      		.word	2985
 3538 019c EB0C      		.word	3307
 3539 019e E206      		.word	1762
 3540 01a0 420A      		.word	2626
 3541 01a2 B100      		.word	177
 3542 01a4 5007      		.word	1872
 3543 01a6 710A      		.word	2673
 3544 01a8 3B0C      		.word	3131
 3545 01aa CB09      		.word	2507
 3546 01ac E803      		.word	1000
 3547 01ae B808      		.word	2232
 3548 01b0 4D03      		.word	845
 3549 01b2 0409      		.word	2308
 3550 01b4 DD06      		.word	1757
 3551 01b6 540F      		.word	3924
 3552 01b8 8100      		.word	129
 3553 01ba 0D02      		.word	525
 3554 01bc B90E      		.word	3769
 3555 01be B107      		.word	1969
 3556 01c0 100D      		.word	3344
 3557 01c2 B803      		.word	952
 3558 01c4 3C05      		.word	1340
 3559 01c6 1506      		.word	1557
 3560 01c8 C909      		.word	2505
 3561 01ca 800B      		.word	2944
 3562 01cc A70F      		.word	4007
 3563 01ce 3E0F      		.word	3902
 3564 01d0 D70C      		.word	3287
 3565 01d2 610E      		.word	3681
 3566 01d4 D402      		.word	724
 3567 01d6 1202      		.word	530
 3568 01d8 6C01      		.word	364
 3569 01da 8007      		.word	1920
 3570 01dc 2C07      		.word	1836
 3571 01de 160E      		.word	3606
 3572 01e0 920A      		.word	2706
 3573 01e2 CB04      		.word	1227
 3574 01e4 D90B      		.word	3033
 3575 01e6 C405      		.word	1476
 3576 01e8 2B0B      		.word	2859
 3577 01ea 610B      		.word	2913
 3578 01ec B807      		.word	1976
 3579 01ee A30D      		.word	3491
 3580 01f0 3105      		.word	1329
 3581 01f2 4109      		.word	2369
 3582 01f4 FB06      		.word	1787
 3583 01f6 8C0B      		.word	2956
 3584 01f8 2402      		.word	548
 3585 01fa 080E      		.word	3592
 3586 01fc B208      		.word	2226
 3587 01fe 4909      		.word	2377
 3588 0200 A900      		.word	169
 3589 0202 350F      		.word	3893
 3590 0204 370A      		.word	2615
 3591 0206 A10B      		.word	2977
 3592 0208 8500      		.word	133
 3593 020a 1207      		.word	1810
 3594 020c 7107      		.word	1905
 3595 020e E404      		.word	1252
 3596 0210 BB0A      		.word	2747
 3597 0212 240F      		.word	3876
 3598 0214 730F      		.word	3955
 3599 0216 EE07      		.word	2030
 3600 0218 CD0E      		.word	3789
 3601 021a 7C0C      		.word	3196
 3602 021c 5A0E      		.word	3674
 3603 021e 4607      		.word	1862
 3604 0220 F00F      		.word	4080
 3605 0222 2E0F      		.word	3886
 3606 0224 5F0F      		.word	3935
 3607 0226 010D      		.word	3329
 3608 0228 B204      		.word	1202
 3609 022a C30E      		.word	3779
 3610 022c 6B03      		.word	875
 3611 022e 3405      		.word	1332
 3612 0230 FA0B      		.word	3066
 3613 0232 BF07      		.word	1983
 3614 0234 E407      		.word	2020
 3615 0236 1A03      		.word	794
 3616 0238 BF09      		.word	2495
 3617 023a 6C03      		.word	876
 3618 023c A108      		.word	2209
 3619 023e 2600      		.word	38
 3620 0240 FF0B      		.word	3071
 3621 0242 5709      		.word	2391
 3622 0244 160D      		.word	3350
 3623 0246 D807      		.word	2008
 3624 0248 C501      		.word	453
 3625 024a ED07      		.word	2029
 3626 024c E10F      		.word	4065
 3627 024e 7F0C      		.word	3199
 3628 0250 410C      		.word	3137
 3629 0252 1805      		.word	1304
 3630 0254 1504      		.word	1045
 3631 0256 7603      		.word	886
 3632 0258 9909      		.word	2457
 3633 025a A600      		.word	166
 3634 025c C20B      		.word	3010
 3635 025e A408      		.word	2212
 3636 0260 8702      		.word	647
 3637 0262 4A09      		.word	2378
 3638 0264 A90A      		.word	2729
 3639 0266 D306      		.word	1747
 3640 0268 2001      		.word	288
 3641 026a DC09      		.word	2524
 3642 026c DB00      		.word	219
 3643 026e E90A      		.word	2793
 3644 0270 E101      		.word	481
 3645 0272 F30D      		.word	3571
 3646 0274 EB03      		.word	1003
 3647 0276 CB03      		.word	971
 3648 0278 B500      		.word	181
 3649 027a 550A      		.word	2645
 3650 027c 140B      		.word	2836
 3651 027e 7709      		.word	2423
 3653               		.section	.progmem.data.pubKeyP_4096_320,"a"
 3656               	pubKeyP_4096_320:
 3657 0000 C208      		.word	2242
 3658 0002 870F      		.word	3975
 3659 0004 8106      		.word	1665
 3660 0006 EF0A      		.word	2799
 3661 0008 7F02      		.word	639
 3662 000a EE03      		.word	1006
 3663 000c 5E0B      		.word	2910
 3664 000e E20E      		.word	3810
 3665 0010 3C04      		.word	1084
 3666 0012 9D05      		.word	1437
 3667 0014 A403      		.word	932
 3668 0016 620D      		.word	3426
 3669 0018 BD06      		.word	1725
 3670 001a 700F      		.word	3952
 3671 001c CE07      		.word	1998
 3672 001e B005      		.word	1456
 3673 0020 1A0E      		.word	3610
 3674 0022 7E04      		.word	1150
 3675 0024 C304      		.word	1219
 3676 0026 7407      		.word	1908
 3677 0028 7306      		.word	1651
 3678 002a EA0D      		.word	3562
 3679 002c 9F0A      		.word	2719
 3680 002e 4D08      		.word	2125
 3681 0030 3805      		.word	1336
 3682 0032 C80B      		.word	3016
 3683 0034 D10C      		.word	3281
 3684 0036 2F03      		.word	815
 3685 0038 420E      		.word	3650
 3686 003a 2E08      		.word	2094
 3687 003c B101      		.word	433
 3688 003e B50C      		.word	3253
 3689 0040 460C      		.word	3142
 3690 0042 330C      		.word	3123
 3691 0044 EA06      		.word	1770
 3692 0046 630E      		.word	3683
 3693 0048 0108      		.word	2049
 3694 004a 9601      		.word	406
 3695 004c F104      		.word	1265
 3696 004e B20C      		.word	3250
 3697 0050 8404      		.word	1156
 3698 0052 7507      		.word	1909
 3699 0054 C801      		.word	456
 3700 0056 BF02      		.word	703
 3701 0058 DA0F      		.word	4058
 3702 005a FC02      		.word	764
 3703 005c 490D      		.word	3401
 3704 005e 420D      		.word	3394
 3705 0060 C20C      		.word	3266
 3706 0062 9E02      		.word	670
 3707 0064 0004      		.word	1024
 3708 0066 F903      		.word	1017
 3709 0068 AA02      		.word	682
 3710 006a 7508      		.word	2165
 3711 006c 3801      		.word	312
 3712 006e 2E0F      		.word	3886
 3713 0070 080F      		.word	3848
 3714 0072 AA0A      		.word	2730
 3715 0074 C801      		.word	456
 3716 0076 C90F      		.word	4041
 3717 0078 580D      		.word	3416
 3718 007a E706      		.word	1767
 3719 007c 930A      		.word	2707
 3720 007e 5608      		.word	2134
 3721 0080 1108      		.word	2065
 3722 0082 9A00      		.word	154
 3723 0084 F808      		.word	2296
 3724 0086 F80C      		.word	3320
 3725 0088 2C07      		.word	1836
 3726 008a BD0C      		.word	3261
 3727 008c 6907      		.word	1897
 3728 008e BB0D      		.word	3515
 3729 0090 FD02      		.word	765
 3730 0092 F50F      		.word	4085
 3731 0094 E207      		.word	2018
 3732 0096 F808      		.word	2296
 3733 0098 0703      		.word	775
 3734 009a D10E      		.word	3793
 3735 009c 6200      		.word	98
 3736 009e 3C09      		.word	2364
 3737 00a0 4503      		.word	837
 3738 00a2 4A0A      		.word	2634
 3739 00a4 8703      		.word	903
 3740 00a6 A908      		.word	2217
 3741 00a8 C90B      		.word	3017
 3742 00aa EE07      		.word	2030
 3743 00ac BD01      		.word	445
 3744 00ae 7F02      		.word	639
 3745 00b0 8504      		.word	1157
 3746 00b2 C103      		.word	961
 3747 00b4 9C0E      		.word	3740
 3748 00b6 EF03      		.word	1007
 3749 00b8 570F      		.word	3927
 3750 00ba D500      		.word	213
 3751 00bc E50B      		.word	3045
 3752 00be F50D      		.word	3573
 3753 00c0 6A09      		.word	2410
 3754 00c2 700F      		.word	3952
 3755 00c4 380B      		.word	2872
 3756 00c6 4A0B      		.word	2890
 3757 00c8 9300      		.word	147
 3758 00ca 650D      		.word	3429
 3759 00cc FD02      		.word	765
 3760 00ce A701      		.word	423
 3761 00d0 CB0B      		.word	3019
 3762 00d2 6F0E      		.word	3695
 3763 00d4 C408      		.word	2244
 3764 00d6 7F06      		.word	1663
 3765 00d8 3C0D      		.word	3388
 3766 00da 080B      		.word	2824
 3767 00dc DD03      		.word	989
 3768 00de D707      		.word	2007
 3769 00e0 3D06      		.word	1597
 3770 00e2 6D01      		.word	365
 3771 00e4 410A      		.word	2625
 3772 00e6 1C0D      		.word	3356
 3773 00e8 BB04      		.word	1211
 3774 00ea 2C09      		.word	2348
 3775 00ec 7A0C      		.word	3194
 3776 00ee 8E09      		.word	2446
 3777 00f0 3000      		.word	48
 3778 00f2 C500      		.word	197
 3779 00f4 1B02      		.word	539
 3780 00f6 6E0A      		.word	2670
 3781 00f8 6B0D      		.word	3435
 3782 00fa 8502      		.word	645
 3783 00fc 4402      		.word	580
 3784 00fe 8303      		.word	899
 3785 0100 FF0D      		.word	3583
 3786 0102 D104      		.word	1233
 3787 0104 4306      		.word	1603
 3788 0106 F60B      		.word	3062
 3789 0108 B80C      		.word	3256
 3790 010a 1D00      		.word	29
 3791 010c F109      		.word	2545
 3792 010e E801      		.word	488
 3793 0110 0F05      		.word	1295
 3794 0112 520D      		.word	3410
 3795 0114 D605      		.word	1494
 3796 0116 3E00      		.word	62
 3797 0118 290D      		.word	3369
 3798 011a 4F06      		.word	1615
 3799 011c 900F      		.word	3984
 3800 011e 1602      		.word	534
 3801 0120 B600      		.word	182
 3802 0122 3C0F      		.word	3900
 3803 0124 6E02      		.word	622
 3804 0126 8705      		.word	1415
 3805 0128 F802      		.word	760
 3806 012a 780C      		.word	3192
 3807 012c 7B09      		.word	2427
 3808 012e 3F0F      		.word	3903
 3809 0130 D70C      		.word	3287
 3810 0132 8209      		.word	2434
 3811 0134 1706      		.word	1559
 3812 0136 380C      		.word	3128
 3813 0138 BB08      		.word	2235
 3814 013a 2E0B      		.word	2862
 3815 013c 5902      		.word	601
 3816 013e 060C      		.word	3078
 3817 0140 7D05      		.word	1405
 3818 0142 4208      		.word	2114
 3819 0144 D60C      		.word	3286
 3820 0146 E409      		.word	2532
 3821 0148 700B      		.word	2928
 3822 014a 3901      		.word	313
 3823 014c 0804      		.word	1032
 3824 014e 0609      		.word	2310
 3825 0150 9205      		.word	1426
 3826 0152 460D      		.word	3398
 3827 0154 2E0F      		.word	3886
 3828 0156 EE03      		.word	1006
 3829 0158 D40F      		.word	4052
 3830 015a 3206      		.word	1586
 3831 015c 7804      		.word	1144
 3832 015e B803      		.word	952
 3833 0160 C40A      		.word	2756
 3834 0162 5508      		.word	2133
 3835 0164 7603      		.word	886
 3836 0166 AE0D      		.word	3502
 3837 0168 9E0E      		.word	3742
 3838 016a 5307      		.word	1875
 3839 016c 5507      		.word	1877
 3840 016e 2005      		.word	1312
 3841 0170 DB03      		.word	987
 3842 0172 260E      		.word	3622
 3843 0174 7000      		.word	112
 3844 0176 E20C      		.word	3298
 3845 0178 4E0E      		.word	3662
 3846 017a 3B09      		.word	2363
 3847 017c 9C0B      		.word	2972
 3848 017e 4904      		.word	1097
 3849 0180 0F0B      		.word	2831
 3850 0182 F207      		.word	2034
 3851 0184 9000      		.word	144
 3852 0186 970B      		.word	2967
 3853 0188 960E      		.word	3734
 3854 018a 2B09      		.word	2347
 3855 018c 0F0A      		.word	2575
 3856 018e A40A      		.word	2724
 3857 0190 030B      		.word	2819
 3858 0192 2804      		.word	1064
 3859 0194 BE01      		.word	446
 3860 0196 7D01      		.word	381
 3861 0198 5908      		.word	2137
 3862 019a 790A      		.word	2681
 3863 019c 410A      		.word	2625
 3864 019e 2500      		.word	37
 3865 01a0 1705      		.word	1303
 3866 01a2 A307      		.word	1955
 3867 01a4 1D09      		.word	2333
 3868 01a6 B502      		.word	693
 3869 01a8 6905      		.word	1385
 3870 01aa 700D      		.word	3440
 3871 01ac 1F09      		.word	2335
 3872 01ae AE03      		.word	942
 3873 01b0 1206      		.word	1554
 3874 01b2 6B00      		.word	107
 3875 01b4 A90A      		.word	2729
 3876 01b6 C201      		.word	450
 3877 01b8 0C0F      		.word	3852
 3878 01ba 8D0F      		.word	3981
 3879 01bc 2E05      		.word	1326
 3880 01be ED06      		.word	1773
 3881 01c0 7A0C      		.word	3194
 3882 01c2 2E0D      		.word	3374
 3883 01c4 3309      		.word	2355
 3884 01c6 2101      		.word	289
 3885 01c8 5005      		.word	1360
 3886 01ca 5E0C      		.word	3166
 3887 01cc C70F      		.word	4039
 3888 01ce BF0C      		.word	3263
 3889 01d0 7B05      		.word	1403
 3890 01d2 5E06      		.word	1630
 3891 01d4 AE07      		.word	1966
 3892 01d6 BF0D      		.word	3519
 3893 01d8 5C08      		.word	2140
 3894 01da B30F      		.word	4019
 3895 01dc 5107      		.word	1873
 3896 01de 1102      		.word	529
 3897 01e0 010A      		.word	2561
 3898 01e2 E703      		.word	999
 3899 01e4 2500      		.word	37
 3900 01e6 820E      		.word	3714
 3901 01e8 2C07      		.word	1836
 3902 01ea DC02      		.word	732
 3903 01ec D30F      		.word	4051
 3904 01ee A000      		.word	160
 3905 01f0 280F      		.word	3880
 3906 01f2 660E      		.word	3686
 3907 01f4 A105      		.word	1441
 3908 01f6 B405      		.word	1460
 3909 01f8 EF0C      		.word	3311
 3910 01fa C10D      		.word	3521
 3911 01fc F004      		.word	1264
 3912 01fe 690B      		.word	2921
 3913 0200 FA06      		.word	1786
 3914 0202 2800      		.word	40
 3915 0204 4F07      		.word	1871
 3916 0206 8501      		.word	389
 3917 0208 EA01      		.word	490
 3918 020a CD00      		.word	205
 3919 020c 4F05      		.word	1359
 3920 020e 7009      		.word	2416
 3921 0210 800A      		.word	2688
 3922 0212 A202      		.word	674
 3923 0214 9A0B      		.word	2970
 3924 0216 3402      		.word	564
 3925 0218 4C0E      		.word	3660
 3926 021a F60B      		.word	3062
 3927 021c DA06      		.word	1754
 3928 021e D40C      		.word	3284
 3929 0220 760B      		.word	2934
 3930 0222 B503      		.word	949
 3931 0224 D209      		.word	2514
 3932 0226 1400      		.word	20
 3933 0228 7C07      		.word	1916
 3934 022a E80F      		.word	4072
 3935 022c 550E      		.word	3669
 3936 022e DA06      		.word	1754
 3937 0230 A905      		.word	1449
 3938 0232 3802      		.word	568
 3939 0234 0C00      		.word	12
 3940 0236 220B      		.word	2850
 3941 0238 4C0E      		.word	3660
 3942 023a 7205      		.word	1394
 3943 023c CC05      		.word	1484
 3944 023e D806      		.word	1752
 3945 0240 1501      		.word	277
 3946 0242 F204      		.word	1266
 3947 0244 C60F      		.word	4038
 3948 0246 AC09      		.word	2476
 3949 0248 B303      		.word	947
 3950 024a A204      		.word	1186
 3951 024c F705      		.word	1527
 3952 024e 1404      		.word	1044
 3953 0250 F806      		.word	1784
 3954 0252 320E      		.word	3634
 3955 0254 EE0E      		.word	3822
 3956 0256 5D00      		.word	93
 3957 0258 C501      		.word	453
 3958 025a 6605      		.word	1382
 3959 025c B90B      		.word	3001
 3960 025e 4402      		.word	580
 3961 0260 9A0C      		.word	3226
 3962 0262 C709      		.word	2503
 3963 0264 9F0B      		.word	2975
 3964 0266 9C09      		.word	2460
 3965 0268 9203      		.word	914
 3966 026a 7A0D      		.word	3450
 3967 026c 6706      		.word	1639
 3968 026e C401      		.word	452
 3969 0270 B80E      		.word	3768
 3970 0272 EC01      		.word	492
 3971 0274 1400      		.word	20
 3972 0276 A901      		.word	425
 3973 0278 CF08      		.word	2255
 3974 027a 7D0C      		.word	3197
 3975 027c F401      		.word	500
 3976 027e D304      		.word	1235
 3978               		.section	.progmem.data.prvKeyR2_4096_320,"a"
 3981               	prvKeyR2_4096_320:
 3982 0000 0000      		.word	0
 3983 0002 0500      		.word	5
 3984 0004 FDFF      		.word	-3
 3985 0006 0200      		.word	2
 3986 0008 0400      		.word	4
 3987 000a 0300      		.word	3
 3988 000c FCFF      		.word	-4
 3989 000e 0000      		.word	0
 3990 0010 FFFF      		.word	-1
 3991 0012 FEFF      		.word	-2
 3992 0014 0000      		.word	0
 3993 0016 FDFF      		.word	-3
 3994 0018 0100      		.word	1
 3995 001a 0200      		.word	2
 3996 001c FBFF      		.word	-5
 3997 001e 0100      		.word	1
 3998 0020 FEFF      		.word	-2
 3999 0022 0000      		.word	0
 4000 0024 0500      		.word	5
 4001 0026 FCFF      		.word	-4
 4002 0028 0100      		.word	1
 4003 002a FCFF      		.word	-4
 4004 002c 0000      		.word	0
 4005 002e 0100      		.word	1
 4006 0030 FBFF      		.word	-5
 4007 0032 FEFF      		.word	-2
 4008 0034 FEFF      		.word	-2
 4009 0036 0200      		.word	2
 4010 0038 FAFF      		.word	-6
 4011 003a 0100      		.word	1
 4012 003c 0600      		.word	6
 4013 003e FDFF      		.word	-3
 4014 0040 0000      		.word	0
 4015 0042 0100      		.word	1
 4016 0044 0400      		.word	4
 4017 0046 0400      		.word	4
 4018 0048 0100      		.word	1
 4019 004a FCFF      		.word	-4
 4020 004c 0000      		.word	0
 4021 004e 0100      		.word	1
 4022 0050 0400      		.word	4
 4023 0052 FCFF      		.word	-4
 4024 0054 FFFF      		.word	-1
 4025 0056 FFFF      		.word	-1
 4026 0058 0100      		.word	1
 4027 005a FDFF      		.word	-3
 4028 005c FFFF      		.word	-1
 4029 005e FFFF      		.word	-1
 4030 0060 0100      		.word	1
 4031 0062 FCFF      		.word	-4
 4032 0064 0000      		.word	0
 4033 0066 0200      		.word	2
 4034 0068 FAFF      		.word	-6
 4035 006a 0000      		.word	0
 4036 006c FCFF      		.word	-4
 4037 006e 0000      		.word	0
 4038 0070 0100      		.word	1
 4039 0072 FCFF      		.word	-4
 4040 0074 FEFF      		.word	-2
 4041 0076 0100      		.word	1
 4042 0078 FDFF      		.word	-3
 4043 007a FFFF      		.word	-1
 4044 007c 0100      		.word	1
 4045 007e 0600      		.word	6
 4046 0080 FDFF      		.word	-3
 4047 0082 0000      		.word	0
 4048 0084 0300      		.word	3
 4049 0086 0300      		.word	3
 4050 0088 FEFF      		.word	-2
 4051 008a FFFF      		.word	-1
 4052 008c FFFF      		.word	-1
 4053 008e 0300      		.word	3
 4054 0090 0500      		.word	5
 4055 0092 0300      		.word	3
 4056 0094 FBFF      		.word	-5
 4057 0096 FFFF      		.word	-1
 4058 0098 0000      		.word	0
 4059 009a 0300      		.word	3
 4060 009c 0600      		.word	6
 4061 009e FDFF      		.word	-3
 4062 00a0 0100      		.word	1
 4063 00a2 0500      		.word	5
 4064 00a4 FCFF      		.word	-4
 4065 00a6 0000      		.word	0
 4066 00a8 0100      		.word	1
 4067 00aa 0300      		.word	3
 4068 00ac 0400      		.word	4
 4069 00ae FCFF      		.word	-4
 4070 00b0 0100      		.word	1
 4071 00b2 0400      		.word	4
 4072 00b4 FCFF      		.word	-4
 4073 00b6 FFFF      		.word	-1
 4074 00b8 FFFF      		.word	-1
 4075 00ba 0100      		.word	1
 4076 00bc 0300      		.word	3
 4077 00be FDFF      		.word	-3
 4078 00c0 0100      		.word	1
 4079 00c2 FAFF      		.word	-6
 4080 00c4 0000      		.word	0
 4081 00c6 0400      		.word	4
 4082 00c8 0600      		.word	6
 4083 00ca 0300      		.word	3
 4084 00cc 0800      		.word	8
 4085 00ce FBFF      		.word	-5
 4086 00d0 FFFF      		.word	-1
 4087 00d2 FFFF      		.word	-1
 4088 00d4 FFFF      		.word	-1
 4089 00d6 0300      		.word	3
 4090 00d8 FEFF      		.word	-2
 4091 00da 0000      		.word	0
 4092 00dc 0100      		.word	1
 4093 00de 0300      		.word	3
 4094 00e0 FDFF      		.word	-3
 4095 00e2 FEFF      		.word	-2
 4096 00e4 0000      		.word	0
 4097 00e6 FCFF      		.word	-4
 4098 00e8 0100      		.word	1
 4099 00ea 0300      		.word	3
 4100 00ec FDFF      		.word	-3
 4101 00ee 0000      		.word	0
 4102 00f0 FFFF      		.word	-1
 4103 00f2 0100      		.word	1
 4104 00f4 0200      		.word	2
 4105 00f6 FDFF      		.word	-3
 4106 00f8 FEFF      		.word	-2
 4107 00fa 0000      		.word	0
 4108 00fc 0100      		.word	1
 4109 00fe 0500      		.word	5
 4110 0100 0400      		.word	4
 4111 0102 FDFF      		.word	-3
 4112 0104 FEFF      		.word	-2
 4113 0106 FEFF      		.word	-2
 4114 0108 0200      		.word	2
 4115 010a 0500      		.word	5
 4116 010c FBFF      		.word	-5
 4117 010e 0000      		.word	0
 4118 0110 0200      		.word	2
 4119 0112 FDFF      		.word	-3
 4120 0114 0000      		.word	0
 4121 0116 FDFF      		.word	-3
 4122 0118 FFFF      		.word	-1
 4123 011a 0100      		.word	1
 4124 011c 0200      		.word	2
 4125 011e FDFF      		.word	-3
 4126 0120 0000      		.word	0
 4127 0122 0100      		.word	1
 4128 0124 FEFF      		.word	-2
 4129 0126 0000      		.word	0
 4130 0128 0100      		.word	1
 4131 012a FCFF      		.word	-4
 4132 012c FFFF      		.word	-1
 4133 012e FEFF      		.word	-2
 4134 0130 0000      		.word	0
 4135 0132 FEFF      		.word	-2
 4136 0134 0000      		.word	0
 4137 0136 FDFF      		.word	-3
 4138 0138 0100      		.word	1
 4139 013a FEFF      		.word	-2
 4140 013c 0000      		.word	0
 4141 013e 0100      		.word	1
 4142 0140 FBFF      		.word	-5
 4143 0142 FFFF      		.word	-1
 4144 0144 FFFF      		.word	-1
 4145 0146 FEFF      		.word	-2
 4146 0148 0000      		.word	0
 4147 014a FEFF      		.word	-2
 4148 014c FEFF      		.word	-2
 4149 014e 0000      		.word	0
 4150 0150 0100      		.word	1
 4151 0152 0300      		.word	3
 4152 0154 FBFF      		.word	-5
 4153 0156 0100      		.word	1
 4154 0158 0300      		.word	3
 4155 015a 0400      		.word	4
 4156 015c FDFF      		.word	-3
 4157 015e FEFF      		.word	-2
 4158 0160 FEFF      		.word	-2
 4159 0162 FEFF      		.word	-2
 4160 0164 0200      		.word	2
 4161 0166 FFFF      		.word	-1
 4162 0168 0100      		.word	1
 4163 016a 0300      		.word	3
 4164 016c FCFF      		.word	-4
 4165 016e 0000      		.word	0
 4166 0170 FCFF      		.word	-4
 4167 0172 0100      		.word	1
 4168 0174 0200      		.word	2
 4169 0176 0300      		.word	3
 4170 0178 0300      		.word	3
 4171 017a 0400      		.word	4
 4172 017c FCFF      		.word	-4
 4173 017e FFFF      		.word	-1
 4174 0180 0100      		.word	1
 4175 0182 FDFF      		.word	-3
 4176 0184 0000      		.word	0
 4177 0186 FDFF      		.word	-3
 4178 0188 0000      		.word	0
 4179 018a 0200      		.word	2
 4180 018c 0200      		.word	2
 4181 018e FCFF      		.word	-4
 4182 0190 0100      		.word	1
 4183 0192 FDFF      		.word	-3
 4184 0194 FFFF      		.word	-1
 4185 0196 FFFF      		.word	-1
 4186 0198 FEFF      		.word	-2
 4187 019a FFFF      		.word	-1
 4188 019c FEFF      		.word	-2
 4189 019e 0000      		.word	0
 4190 01a0 0200      		.word	2
 4191 01a2 0400      		.word	4
 4192 01a4 0600      		.word	6
 4193 01a6 0500      		.word	5
 4194 01a8 0400      		.word	4
 4195 01aa FEFF      		.word	-2
 4196 01ac 0000      		.word	0
 4197 01ae FEFF      		.word	-2
 4198 01b0 FFFF      		.word	-1
 4199 01b2 FFFF      		.word	-1
 4200 01b4 0100      		.word	1
 4201 01b6 0800      		.word	8
 4202 01b8 0500      		.word	5
 4203 01ba 0300      		.word	3
 4204 01bc FDFF      		.word	-3
 4205 01be 0100      		.word	1
 4206 01c0 FCFF      		.word	-4
 4207 01c2 FFFF      		.word	-1
 4208 01c4 0000      		.word	0
 4209 01c6 0700      		.word	7
 4210 01c8 FBFF      		.word	-5
 4211 01ca 0100      		.word	1
 4212 01cc 0300      		.word	3
 4213 01ce 0500      		.word	5
 4214 01d0 FAFF      		.word	-6
 4215 01d2 FEFF      		.word	-2
 4216 01d4 0200      		.word	2
 4217 01d6 0300      		.word	3
 4218 01d8 FCFF      		.word	-4
 4219 01da 0000      		.word	0
 4220 01dc 0200      		.word	2
 4221 01de FBFF      		.word	-5
 4222 01e0 0000      		.word	0
 4223 01e2 FFFF      		.word	-1
 4224 01e4 FFFF      		.word	-1
 4225 01e6 FEFF      		.word	-2
 4226 01e8 FFFF      		.word	-1
 4227 01ea 0000      		.word	0
 4228 01ec FFFF      		.word	-1
 4229 01ee 0000      		.word	0
 4230 01f0 FEFF      		.word	-2
 4231 01f2 0000      		.word	0
 4232 01f4 0200      		.word	2
 4233 01f6 0300      		.word	3
 4234 01f8 F8FF      		.word	-8
 4235 01fa 0000      		.word	0
 4236 01fc FFFF      		.word	-1
 4237 01fe FFFF      		.word	-1
 4238 0200 0100      		.word	1
 4239 0202 0400      		.word	4
 4240 0204 0300      		.word	3
 4241 0206 0400      		.word	4
 4242 0208 0200      		.word	2
 4243 020a FDFF      		.word	-3
 4244 020c 0100      		.word	1
 4245 020e 0300      		.word	3
 4246 0210 FCFF      		.word	-4
 4247 0212 FFFF      		.word	-1
 4248 0214 0100      		.word	1
 4249 0216 FDFF      		.word	-3
 4250 0218 FEFF      		.word	-2
 4251 021a FFFF      		.word	-1
 4252 021c FFFF      		.word	-1
 4253 021e 0200      		.word	2
 4254 0220 0200      		.word	2
 4255 0222 F9FF      		.word	-7
 4256 0224 FFFF      		.word	-1
 4257 0226 0100      		.word	1
 4258 0228 0400      		.word	4
 4259 022a 0300      		.word	3
 4260 022c FAFF      		.word	-6
 4261 022e 0200      		.word	2
 4262 0230 0200      		.word	2
 4263 0232 0400      		.word	4
 4264 0234 F8FF      		.word	-8
 4265 0236 0100      		.word	1
 4266 0238 FCFF      		.word	-4
 4267 023a 0300      		.word	3
 4268 023c FDFF      		.word	-3
 4269 023e 0100      		.word	1
 4270 0240 0400      		.word	4
 4271 0242 FDFF      		.word	-3
 4272 0244 0000      		.word	0
 4273 0246 FFFF      		.word	-1
 4274 0248 FEFF      		.word	-2
 4275 024a FFFF      		.word	-1
 4276 024c 0000      		.word	0
 4277 024e FFFF      		.word	-1
 4278 0250 FEFF      		.word	-2
 4279 0252 FEFF      		.word	-2
 4280 0254 0000      		.word	0
 4281 0256 FFFF      		.word	-1
 4282 0258 FFFF      		.word	-1
 4283 025a 0100      		.word	1
 4284 025c 0800      		.word	8
 4285 025e FDFF      		.word	-3
 4286 0260 0000      		.word	0
 4287 0262 0300      		.word	3
 4288 0264 0400      		.word	4
 4289 0266 0300      		.word	3
 4290 0268 0400      		.word	4
 4291 026a FCFF      		.word	-4
 4292 026c 0200      		.word	2
 4293 026e 0400      		.word	4
 4294 0270 FDFF      		.word	-3
 4295 0272 0200      		.word	2
 4296 0274 FBFF      		.word	-5
 4297 0276 FFFF      		.word	-1
 4298 0278 FFFF      		.word	-1
 4299 027a 0000      		.word	0
 4300 027c FEFF      		.word	-2
 4301 027e 0000      		.word	0
 4303               		.section	.progmem.data.pubKeyA_4096_256,"a"
 4306               	pubKeyA_4096_256:
 4307 0000 2B08      		.word	2091
 4308 0002 1202      		.word	530
 4309 0004 0209      		.word	2306
 4310 0006 940F      		.word	3988
 4311 0008 1508      		.word	2069
 4312 000a 4A00      		.word	74
 4313 000c B005      		.word	1456
 4314 000e 2100      		.word	33
 4315 0010 9707      		.word	1943
 4316 0012 FD00      		.word	253
 4317 0014 5507      		.word	1877
 4318 0016 630A      		.word	2659
 4319 0018 900B      		.word	2960
 4320 001a DC0E      		.word	3804
 4321 001c E800      		.word	232
 4322 001e 120B      		.word	2834
 4323 0020 4A09      		.word	2378
 4324 0022 F10B      		.word	3057
 4325 0024 1306      		.word	1555
 4326 0026 3007      		.word	1840
 4327 0028 D906      		.word	1753
 4328 002a B003      		.word	944
 4329 002c C500      		.word	197
 4330 002e 320E      		.word	3634
 4331 0030 030C      		.word	3075
 4332 0032 9708      		.word	2199
 4333 0034 2502      		.word	549
 4334 0036 E004      		.word	1248
 4335 0038 010A      		.word	2561
 4336 003a D20D      		.word	3538
 4337 003c B202      		.word	690
 4338 003e 200D      		.word	3360
 4339 0040 7C0D      		.word	3452
 4340 0042 380A      		.word	2616
 4341 0044 260B      		.word	2854
 4342 0046 570C      		.word	3159
 4343 0048 F50F      		.word	4085
 4344 004a 9A01      		.word	410
 4345 004c 9F0F      		.word	3999
 4346 004e 5D02      		.word	605
 4347 0050 4A0C      		.word	3146
 4348 0052 230B      		.word	2851
 4349 0054 8E04      		.word	1166
 4350 0056 4E04      		.word	1102
 4351 0058 E80A      		.word	2792
 4352 005a 430A      		.word	2627
 4353 005c 6B0E      		.word	3691
 4354 005e EB04      		.word	1259
 4355 0060 0B0A      		.word	2571
 4356 0062 3D0D      		.word	3389
 4357 0064 180D      		.word	3352
 4358 0066 2605      		.word	1318
 4359 0068 930B      		.word	2963
 4360 006a 0C00      		.word	12
 4361 006c 5200      		.word	82
 4362 006e 2F06      		.word	1583
 4363 0070 430C      		.word	3139
 4364 0072 B10F      		.word	4017
 4365 0074 3100      		.word	49
 4366 0076 BC09      		.word	2492
 4367 0078 0205      		.word	1282
 4368 007a F10D      		.word	3569
 4369 007c 7F0F      		.word	3967
 4370 007e 2801      		.word	296
 4371 0080 9C0C      		.word	3228
 4372 0082 FF0C      		.word	3327
 4373 0084 4003      		.word	832
 4374 0086 F602      		.word	758
 4375 0088 6F07      		.word	1903
 4376 008a 5801      		.word	344
 4377 008c 060F      		.word	3846
 4378 008e 1F0A      		.word	2591
 4379 0090 BF06      		.word	1727
 4380 0092 4107      		.word	1857
 4381 0094 EE0E      		.word	3822
 4382 0096 FC0C      		.word	3324
 4383 0098 1B03      		.word	795
 4384 009a F10A      		.word	2801
 4385 009c D40B      		.word	3028
 4386 009e 6502      		.word	613
 4387 00a0 4C00      		.word	76
 4388 00a2 FE01      		.word	510
 4389 00a4 DD02      		.word	733
 4390 00a6 0B0B      		.word	2827
 4391 00a8 E001      		.word	480
 4392 00aa 190F      		.word	3865
 4393 00ac 8B02      		.word	651
 4394 00ae B908      		.word	2233
 4395 00b0 650F      		.word	3941
 4396 00b2 6E0C      		.word	3182
 4397 00b4 1502      		.word	533
 4398 00b6 6A0B      		.word	2922
 4399 00b8 8F03      		.word	911
 4400 00ba 310F      		.word	3889
 4401 00bc AD01      		.word	429
 4402 00be D80E      		.word	3800
 4403 00c0 230A      		.word	2595
 4404 00c2 CB08      		.word	2251
 4405 00c4 E908      		.word	2281
 4406 00c6 A406      		.word	1700
 4407 00c8 5A0D      		.word	3418
 4408 00ca 3104      		.word	1073
 4409 00cc A10D      		.word	3489
 4410 00ce 2D04      		.word	1069
 4411 00d0 880E      		.word	3720
 4412 00d2 230A      		.word	2595
 4413 00d4 9D0E      		.word	3741
 4414 00d6 360F      		.word	3894
 4415 00d8 3909      		.word	2361
 4416 00da 560F      		.word	3926
 4417 00dc 9E03      		.word	926
 4418 00de EE0C      		.word	3310
 4419 00e0 6D0E      		.word	3693
 4420 00e2 010D      		.word	3329
 4421 00e4 C50A      		.word	2757
 4422 00e6 3803      		.word	824
 4423 00e8 8501      		.word	389
 4424 00ea AC00      		.word	172
 4425 00ec DA0E      		.word	3802
 4426 00ee C50E      		.word	3781
 4427 00f0 710F      		.word	3953
 4428 00f2 7704      		.word	1143
 4429 00f4 B10E      		.word	3761
 4430 00f6 F10A      		.word	2801
 4431 00f8 E309      		.word	2531
 4432 00fa 4B04      		.word	1099
 4433 00fc 1B07      		.word	1819
 4434 00fe 970D      		.word	3479
 4435 0100 E102      		.word	737
 4436 0102 BC0B      		.word	3004
 4437 0104 BC09      		.word	2492
 4438 0106 4102      		.word	577
 4439 0108 FF0A      		.word	2815
 4440 010a 2C0C      		.word	3116
 4441 010c 350E      		.word	3637
 4442 010e 780C      		.word	3192
 4443 0110 6409      		.word	2404
 4444 0112 1304      		.word	1043
 4445 0114 DE01      		.word	478
 4446 0116 A70D      		.word	3495
 4447 0118 1300      		.word	19
 4448 011a EF06      		.word	1775
 4449 011c D903      		.word	985
 4450 011e 670F      		.word	3943
 4451 0120 FD0A      		.word	2813
 4452 0122 4402      		.word	580
 4453 0124 7C09      		.word	2428
 4454 0126 DA09      		.word	2522
 4455 0128 490B      		.word	2889
 4456 012a 410E      		.word	3649
 4457 012c A70F      		.word	4007
 4458 012e 7F03      		.word	895
 4459 0130 5404      		.word	1108
 4460 0132 D60D      		.word	3542
 4461 0134 1D0B      		.word	2845
 4462 0136 E804      		.word	1256
 4463 0138 2003      		.word	800
 4464 013a CE03      		.word	974
 4465 013c 9F07      		.word	1951
 4466 013e 3609      		.word	2358
 4467 0140 7407      		.word	1908
 4468 0142 2D00      		.word	45
 4469 0144 1208      		.word	2066
 4470 0146 1900      		.word	25
 4471 0148 5303      		.word	851
 4472 014a 4D04      		.word	1101
 4473 014c 130C      		.word	3091
 4474 014e DC03      		.word	988
 4475 0150 5B0C      		.word	3163
 4476 0152 220C      		.word	3106
 4477 0154 5D0E      		.word	3677
 4478 0156 ED06      		.word	1773
 4479 0158 BA05      		.word	1466
 4480 015a F103      		.word	1009
 4481 015c 2001      		.word	288
 4482 015e 270B      		.word	2855
 4483 0160 320E      		.word	3634
 4484 0162 5D07      		.word	1885
 4485 0164 4F0E      		.word	3663
 4486 0166 450D      		.word	3397
 4487 0168 B80A      		.word	2744
 4488 016a 6F0E      		.word	3695
 4489 016c 1203      		.word	786
 4490 016e 1D0E      		.word	3613
 4491 0170 2809      		.word	2344
 4492 0172 2404      		.word	1060
 4493 0174 B30D      		.word	3507
 4494 0176 D102      		.word	721
 4495 0178 3004      		.word	1072
 4496 017a 9802      		.word	664
 4497 017c 1F01      		.word	287
 4498 017e 3109      		.word	2353
 4499 0180 EA0F      		.word	4074
 4500 0182 D402      		.word	724
 4501 0184 8006      		.word	1664
 4502 0186 D20A      		.word	2770
 4503 0188 FC01      		.word	508
 4504 018a 6C01      		.word	364
 4505 018c 6202      		.word	610
 4506 018e 7208      		.word	2162
 4507 0190 7B0C      		.word	3195
 4508 0192 810E      		.word	3713
 4509 0194 D40D      		.word	3540
 4510 0196 580A      		.word	2648
 4511 0198 E004      		.word	1248
 4512 019a 4605      		.word	1350
 4513 019c DF00      		.word	223
 4514 019e 3602      		.word	566
 4515 01a0 3401      		.word	308
 4516 01a2 6E0B      		.word	2926
 4517 01a4 9707      		.word	1943
 4518 01a6 B50C      		.word	3253
 4519 01a8 DC01      		.word	476
 4520 01aa 450D      		.word	3397
 4521 01ac A302      		.word	675
 4522 01ae 9B08      		.word	2203
 4523 01b0 820D      		.word	3458
 4524 01b2 EE03      		.word	1006
 4525 01b4 950F      		.word	3989
 4526 01b6 0A09      		.word	2314
 4527 01b8 AF06      		.word	1711
 4528 01ba 710E      		.word	3697
 4529 01bc 9204      		.word	1170
 4530 01be E301      		.word	483
 4531 01c0 870A      		.word	2695
 4532 01c2 C506      		.word	1733
 4533 01c4 2009      		.word	2336
 4534 01c6 870B      		.word	2951
 4535 01c8 450B      		.word	2885
 4536 01ca 6202      		.word	610
 4537 01cc 4908      		.word	2121
 4538 01ce 7401      		.word	372
 4539 01d0 4608      		.word	2118
 4540 01d2 0C09      		.word	2316
 4541 01d4 7D03      		.word	893
 4542 01d6 6800      		.word	104
 4543 01d8 BD0F      		.word	4029
 4544 01da 6300      		.word	99
 4545 01dc 5E06      		.word	1630
 4546 01de 0B09      		.word	2315
 4547 01e0 460F      		.word	3910
 4548 01e2 070F      		.word	3847
 4549 01e4 710C      		.word	3185
 4550 01e6 E604      		.word	1254
 4551 01e8 AC09      		.word	2476
 4552 01ea 500F      		.word	3920
 4553 01ec 9505      		.word	1429
 4554 01ee 0A06      		.word	1546
 4555 01f0 0E0D      		.word	3342
 4556 01f2 B306      		.word	1715
 4557 01f4 B206      		.word	1714
 4558 01f6 5F0D      		.word	3423
 4559 01f8 7A0A      		.word	2682
 4560 01fa 8806      		.word	1672
 4561 01fc 0C0A      		.word	2572
 4562 01fe D60D      		.word	3542
 4564               		.section	.progmem.data.pubKeyP_4096_256,"a"
 4567               	pubKeyP_4096_256:
 4568 0000 BF04      		.word	1215
 4569 0002 290D      		.word	3369
 4570 0004 EF07      		.word	2031
 4571 0006 D20D      		.word	3538
 4572 0008 B40C      		.word	3252
 4573 000a 8207      		.word	1922
 4574 000c 6103      		.word	865
 4575 000e 3405      		.word	1332
 4576 0010 0205      		.word	1282
 4577 0012 340D      		.word	3380
 4578 0014 CF09      		.word	2511
 4579 0016 B003      		.word	944
 4580 0018 AF02      		.word	687
 4581 001a AA06      		.word	1706
 4582 001c B00F      		.word	4016
 4583 001e 520C      		.word	3154
 4584 0020 6200      		.word	98
 4585 0022 7500      		.word	117
 4586 0024 7F07      		.word	1919
 4587 0026 1901      		.word	281
 4588 0028 1C08      		.word	2076
 4589 002a 7100      		.word	113
 4590 002c 580A      		.word	2648
 4591 002e 940A      		.word	2708
 4592 0030 F40C      		.word	3316
 4593 0032 6A01      		.word	362
 4594 0034 5B0D      		.word	3419
 4595 0036 6803      		.word	872
 4596 0038 9209      		.word	2450
 4597 003a FF0A      		.word	2815
 4598 003c 8A02      		.word	650
 4599 003e 320E      		.word	3634
 4600 0040 690F      		.word	3945
 4601 0042 3E07      		.word	1854
 4602 0044 CC03      		.word	972
 4603 0046 2D05      		.word	1325
 4604 0048 2703      		.word	807
 4605 004a 2807      		.word	1832
 4606 004c 6E09      		.word	2414
 4607 004e 1707      		.word	1815
 4608 0050 C907      		.word	1993
 4609 0052 8B04      		.word	1163
 4610 0054 5203      		.word	850
 4611 0056 A50E      		.word	3749
 4612 0058 CC0F      		.word	4044
 4613 005a 2D08      		.word	2093
 4614 005c D400      		.word	212
 4615 005e 8F09      		.word	2447
 4616 0060 3003      		.word	816
 4617 0062 4809      		.word	2376
 4618 0064 D804      		.word	1240
 4619 0066 830B      		.word	2947
 4620 0068 5E08      		.word	2142
 4621 006a 860F      		.word	3974
 4622 006c 5C05      		.word	1372
 4623 006e 6F05      		.word	1391
 4624 0070 080B      		.word	2824
 4625 0072 9701      		.word	407
 4626 0074 3C02      		.word	572
 4627 0076 D603      		.word	982
 4628 0078 FF02      		.word	767
 4629 007a 7702      		.word	631
 4630 007c 6E06      		.word	1646
 4631 007e AF0E      		.word	3759
 4632 0080 020B      		.word	2818
 4633 0082 AA05      		.word	1450
 4634 0084 DF0F      		.word	4063
 4635 0086 100B      		.word	2832
 4636 0088 BB0D      		.word	3515
 4637 008a BE06      		.word	1726
 4638 008c 9707      		.word	1943
 4639 008e A902      		.word	681
 4640 0090 DF0F      		.word	4063
 4641 0092 C800      		.word	200
 4642 0094 4201      		.word	322
 4643 0096 B80D      		.word	3512
 4644 0098 240F      		.word	3876
 4645 009a F808      		.word	2296
 4646 009c E802      		.word	744
 4647 009e DD01      		.word	477
 4648 00a0 9F03      		.word	927
 4649 00a2 3706      		.word	1591
 4650 00a4 8603      		.word	902
 4651 00a6 EE02      		.word	750
 4652 00a8 3E0E      		.word	3646
 4653 00aa 2A0C      		.word	3114
 4654 00ac A30C      		.word	3235
 4655 00ae 2406      		.word	1572
 4656 00b0 530F      		.word	3923
 4657 00b2 FD09      		.word	2557
 4658 00b4 E600      		.word	230
 4659 00b6 0106      		.word	1537
 4660 00b8 0601      		.word	262
 4661 00ba 9D0D      		.word	3485
 4662 00bc 1D0C      		.word	3101
 4663 00be A60E      		.word	3750
 4664 00c0 5000      		.word	80
 4665 00c2 F403      		.word	1012
 4666 00c4 1802      		.word	536
 4667 00c6 5D0E      		.word	3677
 4668 00c8 900C      		.word	3216
 4669 00ca F50A      		.word	2805
 4670 00cc 390B      		.word	2873
 4671 00ce 2408      		.word	2084
 4672 00d0 290A      		.word	2601
 4673 00d2 2706      		.word	1575
 4674 00d4 9E07      		.word	1950
 4675 00d6 7D01      		.word	381
 4676 00d8 6A0F      		.word	3946
 4677 00da 070F      		.word	3847
 4678 00dc CA0C      		.word	3274
 4679 00de DB02      		.word	731
 4680 00e0 6E01      		.word	366
 4681 00e2 2F0B      		.word	2863
 4682 00e4 220B      		.word	2850
 4683 00e6 A409      		.word	2468
 4684 00e8 A804      		.word	1192
 4685 00ea 8006      		.word	1664
 4686 00ec 7B0E      		.word	3707
 4687 00ee E10C      		.word	3297
 4688 00f0 6B04      		.word	1131
 4689 00f2 A507      		.word	1957
 4690 00f4 E106      		.word	1761
 4691 00f6 8F0C      		.word	3215
 4692 00f8 6408      		.word	2148
 4693 00fa CF0F      		.word	4047
 4694 00fc 5109      		.word	2385
 4695 00fe FB06      		.word	1787
 4696 0100 F405      		.word	1524
 4697 0102 5401      		.word	340
 4698 0104 F007      		.word	2032
 4699 0106 4A0D      		.word	3402
 4700 0108 200E      		.word	3616
 4701 010a 5509      		.word	2389
 4702 010c 4802      		.word	584
 4703 010e 8D06      		.word	1677
 4704 0110 7107      		.word	1905
 4705 0112 2305      		.word	1315
 4706 0114 A303      		.word	931
 4707 0116 EF01      		.word	495
 4708 0118 0803      		.word	776
 4709 011a 3D0E      		.word	3645
 4710 011c A900      		.word	169
 4711 011e B100      		.word	177
 4712 0120 FC07      		.word	2044
 4713 0122 D70D      		.word	3543
 4714 0124 3303      		.word	819
 4715 0126 6F0A      		.word	2671
 4716 0128 DA09      		.word	2522
 4717 012a CC0F      		.word	4044
 4718 012c 0300      		.word	3
 4719 012e 290D      		.word	3369
 4720 0130 6904      		.word	1129
 4721 0132 6605      		.word	1382
 4722 0134 1F08      		.word	2079
 4723 0136 770A      		.word	2679
 4724 0138 9600      		.word	150
 4725 013a 300A      		.word	2608
 4726 013c 210E      		.word	3617
 4727 013e EB03      		.word	1003
 4728 0140 7001      		.word	368
 4729 0142 7D05      		.word	1405
 4730 0144 1C0D      		.word	3356
 4731 0146 5F02      		.word	607
 4732 0148 0007      		.word	1792
 4733 014a CC0E      		.word	3788
 4734 014c FD07      		.word	2045
 4735 014e 6C03      		.word	876
 4736 0150 1B07      		.word	1819
 4737 0152 3503      		.word	821
 4738 0154 E607      		.word	2022
 4739 0156 750B      		.word	2933
 4740 0158 0B00      		.word	11
 4741 015a 6202      		.word	610
 4742 015c 6E0C      		.word	3182
 4743 015e FC0A      		.word	2812
 4744 0160 A105      		.word	1441
 4745 0162 3802      		.word	568
 4746 0164 970C      		.word	3223
 4747 0166 C507      		.word	1989
 4748 0168 5F0B      		.word	2911
 4749 016a 5A0E      		.word	3674
 4750 016c A60E      		.word	3750
 4751 016e A70C      		.word	3239
 4752 0170 D808      		.word	2264
 4753 0172 1A06      		.word	1562
 4754 0174 E205      		.word	1506
 4755 0176 2E02      		.word	558
 4756 0178 E40B      		.word	3044
 4757 017a 0702      		.word	519
 4758 017c 370A      		.word	2615
 4759 017e 940B      		.word	2964
 4760 0180 7308      		.word	2163
 4761 0182 440F      		.word	3908
 4762 0184 9B0A      		.word	2715
 4763 0186 770B      		.word	2935
 4764 0188 180B      		.word	2840
 4765 018a 940A      		.word	2708
 4766 018c 6A0E      		.word	3690
 4767 018e CC05      		.word	1484
 4768 0190 C50E      		.word	3781
 4769 0192 A903      		.word	937
 4770 0194 0B05      		.word	1291
 4771 0196 F604      		.word	1270
 4772 0198 6601      		.word	358
 4773 019a 3A0C      		.word	3130
 4774 019c C304      		.word	1219
 4775 019e 5405      		.word	1364
 4776 01a0 2F05      		.word	1327
 4777 01a2 7607      		.word	1910
 4778 01a4 F30E      		.word	3827
 4779 01a6 B004      		.word	1200
 4780 01a8 D807      		.word	2008
 4781 01aa 4E0A      		.word	2638
 4782 01ac 8D09      		.word	2445
 4783 01ae 9E0E      		.word	3742
 4784 01b0 710A      		.word	2673
 4785 01b2 A00A      		.word	2720
 4786 01b4 7B06      		.word	1659
 4787 01b6 6106      		.word	1633
 4788 01b8 7707      		.word	1911
 4789 01ba 4501      		.word	325
 4790 01bc 6C08      		.word	2156
 4791 01be 810E      		.word	3713
 4792 01c0 3602      		.word	566
 4793 01c2 A20C      		.word	3234
 4794 01c4 AA03      		.word	938
 4795 01c6 2B0E      		.word	3627
 4796 01c8 1303      		.word	787
 4797 01ca C20F      		.word	4034
 4798 01cc 3E0A      		.word	2622
 4799 01ce 8600      		.word	134
 4800 01d0 7509      		.word	2421
 4801 01d2 CA07      		.word	1994
 4802 01d4 D808      		.word	2264
 4803 01d6 DB0E      		.word	3803
 4804 01d8 ED0A      		.word	2797
 4805 01da 4301      		.word	323
 4806 01dc B900      		.word	185
 4807 01de F808      		.word	2296
 4808 01e0 870D      		.word	3463
 4809 01e2 3405      		.word	1332
 4810 01e4 020B      		.word	2818
 4811 01e6 CF0E      		.word	3791
 4812 01e8 1E08      		.word	2078
 4813 01ea 050D      		.word	3333
 4814 01ec 470C      		.word	3143
 4815 01ee E800      		.word	232
 4816 01f0 1E0E      		.word	3614
 4817 01f2 1E01      		.word	286
 4818 01f4 540F      		.word	3924
 4819 01f6 EA0F      		.word	4074
 4820 01f8 D800      		.word	216
 4821 01fa 5E09      		.word	2398
 4822 01fc 9D03      		.word	925
 4823 01fe 7F03      		.word	895
 4825               		.section	.progmem.data.prvKeyR2_4096_256,"a"
 4828               	prvKeyR2_4096_256:
 4829 0000 0200      		.word	2
 4830 0002 FDFF      		.word	-3
 4831 0004 0100      		.word	1
 4832 0006 FBFF      		.word	-5
 4833 0008 0100      		.word	1
 4834 000a FAFF      		.word	-6
 4835 000c FFFF      		.word	-1
 4836 000e 0000      		.word	0
 4837 0010 0200      		.word	2
 4838 0012 0300      		.word	3
 4839 0014 0400      		.word	4
 4840 0016 FEFF      		.word	-2
 4841 0018 0000      		.word	0
 4842 001a 0100      		.word	1
 4843 001c FDFF      		.word	-3
 4844 001e 0100      		.word	1
 4845 0020 0300      		.word	3
 4846 0022 FCFF      		.word	-4
 4847 0024 0100      		.word	1
 4848 0026 0300      		.word	3
 4849 0028 0500      		.word	5
 4850 002a 0700      		.word	7
 4851 002c FBFF      		.word	-5
 4852 002e FEFF      		.word	-2
 4853 0030 0100      		.word	1
 4854 0032 0200      		.word	2
 4855 0034 FBFF      		.word	-5
 4856 0036 FFFF      		.word	-1
 4857 0038 0000      		.word	0
 4858 003a FFFF      		.word	-1
 4859 003c FFFF      		.word	-1
 4860 003e FEFF      		.word	-2
 4861 0040 FFFF      		.word	-1
 4862 0042 0200      		.word	2
 4863 0044 0300      		.word	3
 4864 0046 FEFF      		.word	-2
 4865 0048 FEFF      		.word	-2
 4866 004a FFFF      		.word	-1
 4867 004c FFFF      		.word	-1
 4868 004e 0100      		.word	1
 4869 0050 FEFF      		.word	-2
 4870 0052 0200      		.word	2
 4871 0054 0400      		.word	4
 4872 0056 0500      		.word	5
 4873 0058 FEFF      		.word	-2
 4874 005a 0100      		.word	1
 4875 005c FAFF      		.word	-6
 4876 005e FEFF      		.word	-2
 4877 0060 0200      		.word	2
 4878 0062 0500      		.word	5
 4879 0064 0300      		.word	3
 4880 0066 0500      		.word	5
 4881 0068 0400      		.word	4
 4882 006a 0200      		.word	2
 4883 006c 0300      		.word	3
 4884 006e 0400      		.word	4
 4885 0070 0300      		.word	3
 4886 0072 0300      		.word	3
 4887 0074 0300      		.word	3
 4888 0076 0300      		.word	3
 4889 0078 0300      		.word	3
 4890 007a F7FF      		.word	-9
 4891 007c FEFF      		.word	-2
 4892 007e 0200      		.word	2
 4893 0080 FCFF      		.word	-4
 4894 0082 0100      		.word	1
 4895 0084 0300      		.word	3
 4896 0086 0400      		.word	4
 4897 0088 FCFF      		.word	-4
 4898 008a 0100      		.word	1
 4899 008c 0100      		.word	1
 4900 008e FDFF      		.word	-3
 4901 0090 FFFF      		.word	-1
 4902 0092 0000      		.word	0
 4903 0094 0100      		.word	1
 4904 0096 FDFF      		.word	-3
 4905 0098 0100      		.word	1
 4906 009a 0300      		.word	3
 4907 009c FDFF      		.word	-3
 4908 009e 0200      		.word	2
 4909 00a0 0400      		.word	4
 4910 00a2 FCFF      		.word	-4
 4911 00a4 0100      		.word	1
 4912 00a6 FBFF      		.word	-5
 4913 00a8 0200      		.word	2
 4914 00aa 0300      		.word	3
 4915 00ac FEFF      		.word	-2
 4916 00ae 0200      		.word	2
 4917 00b0 FDFF      		.word	-3
 4918 00b2 FFFF      		.word	-1
 4919 00b4 FEFF      		.word	-2
 4920 00b6 0200      		.word	2
 4921 00b8 0500      		.word	5
 4922 00ba FBFF      		.word	-5
 4923 00bc 0100      		.word	1
 4924 00be 0400      		.word	4
 4925 00c0 0700      		.word	7
 4926 00c2 0300      		.word	3
 4927 00c4 0600      		.word	6
 4928 00c6 FEFF      		.word	-2
 4929 00c8 FFFF      		.word	-1
 4930 00ca FFFF      		.word	-1
 4931 00cc 0200      		.word	2
 4932 00ce 0600      		.word	6
 4933 00d0 0500      		.word	5
 4934 00d2 0400      		.word	4
 4935 00d4 FFFF      		.word	-1
 4936 00d6 FFFF      		.word	-1
 4937 00d8 FFFF      		.word	-1
 4938 00da 0200      		.word	2
 4939 00dc FDFF      		.word	-3
 4940 00de FEFF      		.word	-2
 4941 00e0 FEFF      		.word	-2
 4942 00e2 0100      		.word	1
 4943 00e4 FDFF      		.word	-3
 4944 00e6 FEFF      		.word	-2
 4945 00e8 0000      		.word	0
 4946 00ea 0200      		.word	2
 4947 00ec 0300      		.word	3
 4948 00ee FDFF      		.word	-3
 4949 00f0 FFFF      		.word	-1
 4950 00f2 FEFF      		.word	-2
 4951 00f4 FFFF      		.word	-1
 4952 00f6 FFFF      		.word	-1
 4953 00f8 0200      		.word	2
 4954 00fa FDFF      		.word	-3
 4955 00fc FFFF      		.word	-1
 4956 00fe 0000      		.word	0
 4957 0100 FCFF      		.word	-4
 4958 0102 0100      		.word	1
 4959 0104 FAFF      		.word	-6
 4960 0106 0000      		.word	0
 4961 0108 0200      		.word	2
 4962 010a 0800      		.word	8
 4963 010c F8FF      		.word	-8
 4964 010e FFFF      		.word	-1
 4965 0110 FEFF      		.word	-2
 4966 0112 FEFF      		.word	-2
 4967 0114 0100      		.word	1
 4968 0116 FDFF      		.word	-3
 4969 0118 FEFF      		.word	-2
 4970 011a 0200      		.word	2
 4971 011c 0800      		.word	8
 4972 011e 0800      		.word	8
 4973 0120 FCFF      		.word	-4
 4974 0122 0100      		.word	1
 4975 0124 0300      		.word	3
 4976 0126 FBFF      		.word	-5
 4977 0128 0000      		.word	0
 4978 012a FDFF      		.word	-3
 4979 012c 0000      		.word	0
 4980 012e FEFF      		.word	-2
 4981 0130 FEFF      		.word	-2
 4982 0132 0100      		.word	1
 4983 0134 0200      		.word	2
 4984 0136 0400      		.word	4
 4985 0138 0300      		.word	3
 4986 013a FBFF      		.word	-5
 4987 013c FFFF      		.word	-1
 4988 013e 0000      		.word	0
 4989 0140 0000      		.word	0
 4990 0142 FFFF      		.word	-1
 4991 0144 FFFF      		.word	-1
 4992 0146 0000      		.word	0
 4993 0148 F9FF      		.word	-7
 4994 014a 0200      		.word	2
 4995 014c 0300      		.word	3
 4996 014e 0300      		.word	3
 4997 0150 FCFF      		.word	-4
 4998 0152 0100      		.word	1
 4999 0154 FCFF      		.word	-4
 5000 0156 0000      		.word	0
 5001 0158 FDFF      		.word	-3
 5002 015a FEFF      		.word	-2
 5003 015c FEFF      		.word	-2
 5004 015e FFFF      		.word	-1
 5005 0160 FCFF      		.word	-4
 5006 0162 0000      		.word	0
 5007 0164 FFFF      		.word	-1
 5008 0166 FFFF      		.word	-1
 5009 0168 FFFF      		.word	-1
 5010 016a 0000      		.word	0
 5011 016c FFFF      		.word	-1
 5012 016e 0000      		.word	0
 5013 0170 FFFF      		.word	-1
 5014 0172 FEFF      		.word	-2
 5015 0174 0100      		.word	1
 5016 0176 FEFF      		.word	-2
 5017 0178 0200      		.word	2
 5018 017a 0500      		.word	5
 5019 017c 0200      		.word	2
 5020 017e 0300      		.word	3
 5021 0180 0400      		.word	4
 5022 0182 FDFF      		.word	-3
 5023 0184 FFFF      		.word	-1
 5024 0186 0200      		.word	2
 5025 0188 FDFF      		.word	-3
 5026 018a FEFF      		.word	-2
 5027 018c 0200      		.word	2
 5028 018e FDFF      		.word	-3
 5029 0190 0000      		.word	0
 5030 0192 FDFF      		.word	-3
 5031 0194 0100      		.word	1
 5032 0196 FDFF      		.word	-3
 5033 0198 0100      		.word	1
 5034 019a FDFF      		.word	-3
 5035 019c 0100      		.word	1
 5036 019e 0500      		.word	5
 5037 01a0 FAFF      		.word	-6
 5038 01a2 0000      		.word	0
 5039 01a4 0400      		.word	4
 5040 01a6 0400      		.word	4
 5041 01a8 0300      		.word	3
 5042 01aa 0400      		.word	4
 5043 01ac 0300      		.word	3
 5044 01ae FCFF      		.word	-4
 5045 01b0 0100      		.word	1
 5046 01b2 FDFF      		.word	-3
 5047 01b4 0000      		.word	0
 5048 01b6 FDFF      		.word	-3
 5049 01b8 0100      		.word	1
 5050 01ba 0300      		.word	3
 5051 01bc 0200      		.word	2
 5052 01be F8FF      		.word	-8
 5053 01c0 0100      		.word	1
 5054 01c2 0500      		.word	5
 5055 01c4 0400      		.word	4
 5056 01c6 0200      		.word	2
 5057 01c8 FDFF      		.word	-3
 5058 01ca 0100      		.word	1
 5059 01cc 0300      		.word	3
 5060 01ce FBFF      		.word	-5
 5061 01d0 FFFF      		.word	-1
 5062 01d2 0000      		.word	0
 5063 01d4 0500      		.word	5
 5064 01d6 0200      		.word	2
 5065 01d8 FAFF      		.word	-6
 5066 01da FEFF      		.word	-2
 5067 01dc 0200      		.word	2
 5068 01de 0400      		.word	4
 5069 01e0 0800      		.word	8
 5070 01e2 FBFF      		.word	-5
 5071 01e4 FEFF      		.word	-2
 5072 01e6 FFFF      		.word	-1
 5073 01e8 0100      		.word	1
 5074 01ea FBFF      		.word	-5
 5075 01ec 0000      		.word	0
 5076 01ee 0600      		.word	6
 5077 01f0 FEFF      		.word	-2
 5078 01f2 0100      		.word	1
 5079 01f4 FDFF      		.word	-3
 5080 01f6 0200      		.word	2
 5081 01f8 0500      		.word	5
 5082 01fa FDFF      		.word	-3
 5083 01fc 0000      		.word	0
 5084 01fe FFFF      		.word	-1
 5086               		.section	.progmem.data.pubKeyA_4096_192,"a"
 5089               	pubKeyA_4096_192:
 5090 0000 CF0D      		.word	3535
 5091 0002 7200      		.word	114
 5092 0004 B607      		.word	1974
 5093 0006 3101      		.word	305
 5094 0008 8709      		.word	2439
 5095 000a 300E      		.word	3632
 5096 000c EF00      		.word	239
 5097 000e 8C0E      		.word	3724
 5098 0010 C40B      		.word	3012
 5099 0012 6408      		.word	2148
 5100 0014 260A      		.word	2598
 5101 0016 0E0A      		.word	2574
 5102 0018 180D      		.word	3352
 5103 001a 720A      		.word	2674
 5104 001c 3200      		.word	50
 5105 001e A703      		.word	935
 5106 0020 A301      		.word	419
 5107 0022 2F01      		.word	303
 5108 0024 F005      		.word	1520
 5109 0026 C701      		.word	455
 5110 0028 2307      		.word	1827
 5111 002a A605      		.word	1446
 5112 002c FF0A      		.word	2815
 5113 002e 2C00      		.word	44
 5114 0030 F506      		.word	1781
 5115 0032 FC09      		.word	2556
 5116 0034 1706      		.word	1559
 5117 0036 ED0A      		.word	2797
 5118 0038 6C0F      		.word	3948
 5119 003a 490F      		.word	3913
 5120 003c 1402      		.word	532
 5121 003e BE09      		.word	2494
 5122 0040 7D07      		.word	1917
 5123 0042 F205      		.word	1522
 5124 0044 BD01      		.word	445
 5125 0046 F10D      		.word	3569
 5126 0048 1406      		.word	1556
 5127 004a 3803      		.word	824
 5128 004c E901      		.word	489
 5129 004e 0707      		.word	1799
 5130 0050 500C      		.word	3152
 5131 0052 BD08      		.word	2237
 5132 0054 BB0F      		.word	4027
 5133 0056 5A0E      		.word	3674
 5134 0058 8C02      		.word	652
 5135 005a 6701      		.word	359
 5136 005c D30A      		.word	2771
 5137 005e CE0C      		.word	3278
 5138 0060 3E0B      		.word	2878
 5139 0062 BB0E      		.word	3771
 5140 0064 F60B      		.word	3062
 5141 0066 8900      		.word	137
 5142 0068 3A02      		.word	570
 5143 006a 0F03      		.word	783
 5144 006c 8006      		.word	1664
 5145 006e 8E02      		.word	654
 5146 0070 650B      		.word	2917
 5147 0072 EE0A      		.word	2798
 5148 0074 D706      		.word	1751
 5149 0076 5C07      		.word	1884
 5150 0078 CE01      		.word	462
 5151 007a 2401      		.word	292
 5152 007c 8105      		.word	1409
 5153 007e CF07      		.word	1999
 5154 0080 8C00      		.word	140
 5155 0082 840F      		.word	3972
 5156 0084 9E05      		.word	1438
 5157 0086 ED01      		.word	493
 5158 0088 DE05      		.word	1502
 5159 008a 1005      		.word	1296
 5160 008c 0A0F      		.word	3850
 5161 008e 8A0D      		.word	3466
 5162 0090 540D      		.word	3412
 5163 0092 5C0B      		.word	2908
 5164 0094 E709      		.word	2535
 5165 0096 1402      		.word	532
 5166 0098 8C04      		.word	1164
 5167 009a 9D00      		.word	157
 5168 009c B201      		.word	434
 5169 009e 730E      		.word	3699
 5170 00a0 B401      		.word	436
 5171 00a2 C300      		.word	195
 5172 00a4 2A01      		.word	298
 5173 00a6 D203      		.word	978
 5174 00a8 5C05      		.word	1372
 5175 00aa 2B09      		.word	2347
 5176 00ac E900      		.word	233
 5177 00ae C70D      		.word	3527
 5178 00b0 7E00      		.word	126
 5179 00b2 000D      		.word	3328
 5180 00b4 8E0C      		.word	3214
 5181 00b6 2705      		.word	1319
 5182 00b8 E601      		.word	486
 5183 00ba DC09      		.word	2524
 5184 00bc 7104      		.word	1137
 5185 00be 6203      		.word	866
 5186 00c0 7A08      		.word	2170
 5187 00c2 EB0D      		.word	3563
 5188 00c4 E401      		.word	484
 5189 00c6 4301      		.word	323
 5190 00c8 4E02      		.word	590
 5191 00ca 6509      		.word	2405
 5192 00cc E60B      		.word	3046
 5193 00ce D80B      		.word	3032
 5194 00d0 240F      		.word	3876
 5195 00d2 7808      		.word	2168
 5196 00d4 5506      		.word	1621
 5197 00d6 A60C      		.word	3238
 5198 00d8 890B      		.word	2953
 5199 00da 8C02      		.word	652
 5200 00dc 9608      		.word	2198
 5201 00de 1102      		.word	529
 5202 00e0 7208      		.word	2162
 5203 00e2 9907      		.word	1945
 5204 00e4 4E0A      		.word	2638
 5205 00e6 4009      		.word	2368
 5206 00e8 F90B      		.word	3065
 5207 00ea A60C      		.word	3238
 5208 00ec 960E      		.word	3734
 5209 00ee 4701      		.word	327
 5210 00f0 0B07      		.word	1803
 5211 00f2 BB07      		.word	1979
 5212 00f4 B609      		.word	2486
 5213 00f6 490A      		.word	2633
 5214 00f8 D006      		.word	1744
 5215 00fa 6A09      		.word	2410
 5216 00fc 9B02      		.word	667
 5217 00fe 1605      		.word	1302
 5218 0100 570E      		.word	3671
 5219 0102 7E03      		.word	894
 5220 0104 F80D      		.word	3576
 5221 0106 340A      		.word	2612
 5222 0108 770F      		.word	3959
 5223 010a 5E0B      		.word	2910
 5224 010c 2D0B      		.word	2861
 5225 010e F90F      		.word	4089
 5226 0110 E308      		.word	2275
 5227 0112 B403      		.word	948
 5228 0114 2906      		.word	1577
 5229 0116 350B      		.word	2869
 5230 0118 800A      		.word	2688
 5231 011a 6B02      		.word	619
 5232 011c 0E0D      		.word	3342
 5233 011e 1C0A      		.word	2588
 5234 0120 8701      		.word	391
 5235 0122 1A0D      		.word	3354
 5236 0124 770A      		.word	2679
 5237 0126 4403      		.word	836
 5238 0128 3C04      		.word	1084
 5239 012a 500A      		.word	2640
 5240 012c BC04      		.word	1212
 5241 012e F00B      		.word	3056
 5242 0130 F200      		.word	242
 5243 0132 D40B      		.word	3028
 5244 0134 950C      		.word	3221
 5245 0136 A80E      		.word	3752
 5246 0138 E406      		.word	1764
 5247 013a C204      		.word	1218
 5248 013c 060E      		.word	3590
 5249 013e 8403      		.word	900
 5250 0140 9F03      		.word	927
 5251 0142 1B04      		.word	1051
 5252 0144 F30A      		.word	2803
 5253 0146 4F0D      		.word	3407
 5254 0148 2901      		.word	297
 5255 014a 130F      		.word	3859
 5256 014c FD0B      		.word	3069
 5257 014e A90C      		.word	3241
 5258 0150 A801      		.word	424
 5259 0152 E100      		.word	225
 5260 0154 6F0B      		.word	2927
 5261 0156 D009      		.word	2512
 5262 0158 DE06      		.word	1758
 5263 015a D408      		.word	2260
 5264 015c F90A      		.word	2809
 5265 015e CB03      		.word	971
 5266 0160 3C07      		.word	1852
 5267 0162 BC01      		.word	444
 5268 0164 D202      		.word	722
 5269 0166 F20E      		.word	3826
 5270 0168 AD0F      		.word	4013
 5271 016a 3906      		.word	1593
 5272 016c 170C      		.word	3095
 5273 016e 3304      		.word	1075
 5274 0170 510B      		.word	2897
 5275 0172 D405      		.word	1492
 5276 0174 2A05      		.word	1322
 5277 0176 8302      		.word	643
 5278 0178 3800      		.word	56
 5279 017a 3C03      		.word	828
 5280 017c 2B05      		.word	1323
 5281 017e 2602      		.word	550
 5283               		.section	.progmem.data.pubKeyP_4096_192,"a"
 5286               	pubKeyP_4096_192:
 5287 0000 190C      		.word	3097
 5288 0002 8B0B      		.word	2955
 5289 0004 AB00      		.word	171
 5290 0006 580C      		.word	3160
 5291 0008 860D      		.word	3462
 5292 000a 4205      		.word	1346
 5293 000c 8306      		.word	1667
 5294 000e A308      		.word	2211
 5295 0010 A605      		.word	1446
 5296 0012 050B      		.word	2821
 5297 0014 DB03      		.word	987
 5298 0016 BC0E      		.word	3772
 5299 0018 090F      		.word	3849
 5300 001a 2A0B      		.word	2858
 5301 001c 8C00      		.word	140
 5302 001e 0503      		.word	773
 5303 0020 DA07      		.word	2010
 5304 0022 1A0C      		.word	3098
 5305 0024 3209      		.word	2354
 5306 0026 D30F      		.word	4051
 5307 0028 A60A      		.word	2726
 5308 002a C009      		.word	2496
 5309 002c 060C      		.word	3078
 5310 002e DE00      		.word	222
 5311 0030 A003      		.word	928
 5312 0032 A00E      		.word	3744
 5313 0034 450F      		.word	3909
 5314 0036 B70B      		.word	2999
 5315 0038 5E0F      		.word	3934
 5316 003a D90F      		.word	4057
 5317 003c 2E02      		.word	558
 5318 003e 0C04      		.word	1036
 5319 0040 B40A      		.word	2740
 5320 0042 1600      		.word	22
 5321 0044 7F0B      		.word	2943
 5322 0046 5C0E      		.word	3676
 5323 0048 9C04      		.word	1180
 5324 004a 4E0A      		.word	2638
 5325 004c 7507      		.word	1909
 5326 004e 4305      		.word	1347
 5327 0050 1B09      		.word	2331
 5328 0052 F50C      		.word	3317
 5329 0054 DB0B      		.word	3035
 5330 0056 880F      		.word	3976
 5331 0058 A903      		.word	937
 5332 005a 9702      		.word	663
 5333 005c 420A      		.word	2626
 5334 005e 0804      		.word	1032
 5335 0060 590B      		.word	2905
 5336 0062 BD01      		.word	445
 5337 0064 A604      		.word	1190
 5338 0066 4A0B      		.word	2890
 5339 0068 2906      		.word	1577
 5340 006a 1009      		.word	2320
 5341 006c 3703      		.word	823
 5342 006e B204      		.word	1202
 5343 0070 1901      		.word	281
 5344 0072 960E      		.word	3734
 5345 0074 CE00      		.word	206
 5346 0076 F100      		.word	241
 5347 0078 F30B      		.word	3059
 5348 007a 9D04      		.word	1181
 5349 007c A10F      		.word	4001
 5350 007e C107      		.word	1985
 5351 0080 CF08      		.word	2255
 5352 0082 FE08      		.word	2302
 5353 0084 EF03      		.word	1007
 5354 0086 D109      		.word	2513
 5355 0088 1807      		.word	1816
 5356 008a C502      		.word	709
 5357 008c DF0D      		.word	3551
 5358 008e A509      		.word	2469
 5359 0090 4305      		.word	1347
 5360 0092 9D03      		.word	925
 5361 0094 2209      		.word	2338
 5362 0096 D103      		.word	977
 5363 0098 730D      		.word	3443
 5364 009a C307      		.word	1987
 5365 009c FC0D      		.word	3580
 5366 009e 4702      		.word	583
 5367 00a0 720C      		.word	3186
 5368 00a2 090A      		.word	2569
 5369 00a4 770F      		.word	3959
 5370 00a6 4A01      		.word	330
 5371 00a8 B60A      		.word	2742
 5372 00aa 4C0B      		.word	2892
 5373 00ac 530F      		.word	3923
 5374 00ae 880A      		.word	2696
 5375 00b0 170D      		.word	3351
 5376 00b2 0B00      		.word	11
 5377 00b4 0C07      		.word	1804
 5378 00b6 A50E      		.word	3749
 5379 00b8 250C      		.word	3109
 5380 00ba 3407      		.word	1844
 5381 00bc C40A      		.word	2756
 5382 00be A20F      		.word	4002
 5383 00c0 3801      		.word	312
 5384 00c2 D00B      		.word	3024
 5385 00c4 C009      		.word	2496
 5386 00c6 8D07      		.word	1933
 5387 00c8 5E06      		.word	1630
 5388 00ca 0201      		.word	258
 5389 00cc 5305      		.word	1363
 5390 00ce F80E      		.word	3832
 5391 00d0 2702      		.word	551
 5392 00d2 E104      		.word	1249
 5393 00d4 950E      		.word	3733
 5394 00d6 CF00      		.word	207
 5395 00d8 440B      		.word	2884
 5396 00da 4009      		.word	2368
 5397 00dc 8A05      		.word	1418
 5398 00de 1E0B      		.word	2846
 5399 00e0 C10D      		.word	3521
 5400 00e2 FD00      		.word	253
 5401 00e4 D809      		.word	2520
 5402 00e6 FC0C      		.word	3324
 5403 00e8 FA09      		.word	2554
 5404 00ea D503      		.word	981
 5405 00ec A806      		.word	1704
 5406 00ee 5A02      		.word	602
 5407 00f0 C108      		.word	2241
 5408 00f2 AD09      		.word	2477
 5409 00f4 FE02      		.word	766
 5410 00f6 740B      		.word	2932
 5411 00f8 4E09      		.word	2382
 5412 00fa 400E      		.word	3648
 5413 00fc 4F0D      		.word	3407
 5414 00fe EC04      		.word	1260
 5415 0100 5809      		.word	2392
 5416 0102 2C0D      		.word	3372
 5417 0104 8E0B      		.word	2958
 5418 0106 6E05      		.word	1390
 5419 0108 5301      		.word	339
 5420 010a 0703      		.word	775
 5421 010c 0D0B      		.word	2829
 5422 010e A602      		.word	678
 5423 0110 380E      		.word	3640
 5424 0112 FF04      		.word	1279
 5425 0114 450C      		.word	3141
 5426 0116 FE0E      		.word	3838
 5427 0118 3406      		.word	1588
 5428 011a 5C0D      		.word	3420
 5429 011c CA08      		.word	2250
 5430 011e 7E09      		.word	2430
 5431 0120 AA0C      		.word	3242
 5432 0122 7900      		.word	121
 5433 0124 D408      		.word	2260
 5434 0126 1B05      		.word	1307
 5435 0128 FC09      		.word	2556
 5436 012a 4602      		.word	582
 5437 012c A40B      		.word	2980
 5438 012e 900D      		.word	3472
 5439 0130 4408      		.word	2116
 5440 0132 5D06      		.word	1629
 5441 0134 5708      		.word	2135
 5442 0136 9B03      		.word	923
 5443 0138 3101      		.word	305
 5444 013a 6503      		.word	869
 5445 013c B00C      		.word	3248
 5446 013e 3B06      		.word	1595
 5447 0140 EB0B      		.word	3051
 5448 0142 3E0C      		.word	3134
 5449 0144 AD0E      		.word	3757
 5450 0146 6001      		.word	352
 5451 0148 BC0F      		.word	4028
 5452 014a 580A      		.word	2648
 5453 014c 100E      		.word	3600
 5454 014e 620F      		.word	3938
 5455 0150 F304      		.word	1267
 5456 0152 190B      		.word	2841
 5457 0154 1D03      		.word	797
 5458 0156 000F      		.word	3840
 5459 0158 920C      		.word	3218
 5460 015a 220F      		.word	3874
 5461 015c 8806      		.word	1672
 5462 015e AC08      		.word	2220
 5463 0160 A30D      		.word	3491
 5464 0162 8C06      		.word	1676
 5465 0164 6307      		.word	1891
 5466 0166 3C05      		.word	1340
 5467 0168 8A02      		.word	650
 5468 016a 9403      		.word	916
 5469 016c 4004      		.word	1088
 5470 016e FE02      		.word	766
 5471 0170 9902      		.word	665
 5472 0172 EA0A      		.word	2794
 5473 0174 CD03      		.word	973
 5474 0176 080C      		.word	3080
 5475 0178 560E      		.word	3670
 5476 017a B001      		.word	432
 5477 017c 3D04      		.word	1085
 5478 017e C40D      		.word	3524
 5480               		.section	.progmem.data.prvKeyR2_4096_192,"a"
 5483               	prvKeyR2_4096_192:
 5484 0000 0100      		.word	1
 5485 0002 FDFF      		.word	-3
 5486 0004 0200      		.word	2
 5487 0006 0300      		.word	3
 5488 0008 FCFF      		.word	-4
 5489 000a 0100      		.word	1
 5490 000c FBFF      		.word	-5
 5491 000e 0000      		.word	0
 5492 0010 0000      		.word	0
 5493 0012 FDFF      		.word	-3
 5494 0014 FEFF      		.word	-2
 5495 0016 0100      		.word	1
 5496 0018 0500      		.word	5
 5497 001a FBFF      		.word	-5
 5498 001c 0100      		.word	1
 5499 001e 0600      		.word	6
 5500 0020 0500      		.word	5
 5501 0022 0300      		.word	3
 5502 0024 FEFF      		.word	-2
 5503 0026 0000      		.word	0
 5504 0028 FDFF      		.word	-3
 5505 002a 0000      		.word	0
 5506 002c FEFF      		.word	-2
 5507 002e 0100      		.word	1
 5508 0030 FEFF      		.word	-2
 5509 0032 0000      		.word	0
 5510 0034 0500      		.word	5
 5511 0036 FCFF      		.word	-4
 5512 0038 0000      		.word	0
 5513 003a FDFF      		.word	-3
 5514 003c 0100      		.word	1
 5515 003e 0500      		.word	5
 5516 0040 0300      		.word	3
 5517 0042 0700      		.word	7
 5518 0044 0300      		.word	3
 5519 0046 0A00      		.word	10
 5520 0048 FCFF      		.word	-4
 5521 004a 0100      		.word	1
 5522 004c 0300      		.word	3
 5523 004e 0500      		.word	5
 5524 0050 FBFF      		.word	-5
 5525 0052 FEFF      		.word	-2
 5526 0054 0100      		.word	1
 5527 0056 F9FF      		.word	-7
 5528 0058 0000      		.word	0
 5529 005a FEFF      		.word	-2
 5530 005c FFFF      		.word	-1
 5531 005e 0100      		.word	1
 5532 0060 FEFF      		.word	-2
 5533 0062 0100      		.word	1
 5534 0064 0400      		.word	4
 5535 0066 F7FF      		.word	-9
 5536 0068 0100      		.word	1
 5537 006a FAFF      		.word	-6
 5538 006c 0000      		.word	0
 5539 006e FDFF      		.word	-3
 5540 0070 0000      		.word	0
 5541 0072 0500      		.word	5
 5542 0074 0500      		.word	5
 5543 0076 0600      		.word	6
 5544 0078 0300      		.word	3
 5545 007a F9FF      		.word	-7
 5546 007c 0100      		.word	1
 5547 007e 0500      		.word	5
 5548 0080 0600      		.word	6
 5549 0082 0300      		.word	3
 5550 0084 0200      		.word	2
 5551 0086 0300      		.word	3
 5552 0088 0000      		.word	0
 5553 008a FAFF      		.word	-6
 5554 008c 0000      		.word	0
 5555 008e FDFF      		.word	-3
 5556 0090 0100      		.word	1
 5557 0092 FDFF      		.word	-3
 5558 0094 0000      		.word	0
 5559 0096 FCFF      		.word	-4
 5560 0098 0100      		.word	1
 5561 009a 0400      		.word	4
 5562 009c 0300      		.word	3
 5563 009e 0400      		.word	4
 5564 00a0 FCFF      		.word	-4
 5565 00a2 0000      		.word	0
 5566 00a4 0700      		.word	7
 5567 00a6 0200      		.word	2
 5568 00a8 0200      		.word	2
 5569 00aa FBFF      		.word	-5
 5570 00ac 0200      		.word	2
 5571 00ae 0400      		.word	4
 5572 00b0 FBFF      		.word	-5
 5573 00b2 0100      		.word	1
 5574 00b4 0200      		.word	2
 5575 00b6 FCFF      		.word	-4
 5576 00b8 FFFF      		.word	-1
 5577 00ba 0000      		.word	0
 5578 00bc FFFF      		.word	-1
 5579 00be 0000      		.word	0
 5580 00c0 FAFF      		.word	-6
 5581 00c2 0100      		.word	1
 5582 00c4 FDFF      		.word	-3
 5583 00c6 0000      		.word	0
 5584 00c8 FFFF      		.word	-1
 5585 00ca 0100      		.word	1
 5586 00cc 0400      		.word	4
 5587 00ce F6FF      		.word	-10
 5588 00d0 FBFF      		.word	-5
 5589 00d2 0200      		.word	2
 5590 00d4 0200      		.word	2
 5591 00d6 0300      		.word	3
 5592 00d8 FCFF      		.word	-4
 5593 00da 0000      		.word	0
 5594 00dc FBFF      		.word	-5
 5595 00de 0100      		.word	1
 5596 00e0 0300      		.word	3
 5597 00e2 FDFF      		.word	-3
 5598 00e4 0200      		.word	2
 5599 00e6 0500      		.word	5
 5600 00e8 0500      		.word	5
 5601 00ea 0600      		.word	6
 5602 00ec 0500      		.word	5
 5603 00ee FEFF      		.word	-2
 5604 00f0 0000      		.word	0
 5605 00f2 FEFF      		.word	-2
 5606 00f4 FFFF      		.word	-1
 5607 00f6 0000      		.word	0
 5608 00f8 FEFF      		.word	-2
 5609 00fa FFFF      		.word	-1
 5610 00fc FEFF      		.word	-2
 5611 00fe 0200      		.word	2
 5612 0100 0600      		.word	6
 5613 0102 0700      		.word	7
 5614 0104 FDFF      		.word	-3
 5615 0106 0000      		.word	0
 5616 0108 0300      		.word	3
 5617 010a FCFF      		.word	-4
 5618 010c FEFF      		.word	-2
 5619 010e FFFF      		.word	-1
 5620 0110 0000      		.word	0
 5621 0112 0100      		.word	1
 5622 0114 0000      		.word	0
 5623 0116 FFFF      		.word	-1
 5624 0118 0100      		.word	1
 5625 011a FEFF      		.word	-2
 5626 011c 0100      		.word	1
 5627 011e FCFF      		.word	-4
 5628 0120 0100      		.word	1
 5629 0122 FCFF      		.word	-4
 5630 0124 0100      		.word	1
 5631 0126 FCFF      		.word	-4
 5632 0128 0000      		.word	0
 5633 012a FCFF      		.word	-4
 5634 012c FEFF      		.word	-2
 5635 012e 0000      		.word	0
 5636 0130 FCFF      		.word	-4
 5637 0132 0100      		.word	1
 5638 0134 0300      		.word	3
 5639 0136 0400      		.word	4
 5640 0138 0200      		.word	2
 5641 013a 0600      		.word	6
 5642 013c 0300      		.word	3
 5643 013e 0400      		.word	4
 5644 0140 0200      		.word	2
 5645 0142 0300      		.word	3
 5646 0144 0200      		.word	2
 5647 0146 0300      		.word	3
 5648 0148 FDFF      		.word	-3
 5649 014a FFFF      		.word	-1
 5650 014c FEFF      		.word	-2
 5651 014e FEFF      		.word	-2
 5652 0150 FFFF      		.word	-1
 5653 0152 0100      		.word	1
 5654 0154 0400      		.word	4
 5655 0156 0400      		.word	4
 5656 0158 FCFF      		.word	-4
 5657 015a 0300      		.word	3
 5658 015c 0600      		.word	6
 5659 015e 0400      		.word	4
 5660 0160 FDFF      		.word	-3
 5661 0162 0100      		.word	1
 5662 0164 0600      		.word	6
 5663 0166 FDFF      		.word	-3
 5664 0168 0100      		.word	1
 5665 016a FBFF      		.word	-5
 5666 016c FEFF      		.word	-2
 5667 016e 0100      		.word	1
 5668 0170 FBFF      		.word	-5
 5669 0172 0000      		.word	0
 5670 0174 0200      		.word	2
 5671 0176 FCFF      		.word	-4
 5672 0178 0200      		.word	2
 5673 017a FDFF      		.word	-3
 5674 017c 0100      		.word	1
 5675 017e 0400      		.word	4
 5677               		.section	.progmem.data.pubKeyA_4093_320,"a"
 5680               	pubKeyA_4093_320:
 5681 0000 560B      		.word	2902
 5682 0002 8809      		.word	2440
 5683 0004 BE0C      		.word	3262
 5684 0006 250F      		.word	3877
 5685 0008 D90E      		.word	3801
 5686 000a D30B      		.word	3027
 5687 000c DB00      		.word	219
 5688 000e 0A09      		.word	2314
 5689 0010 C503      		.word	965
 5690 0012 EA09      		.word	2538
 5691 0014 A205      		.word	1442
 5692 0016 900F      		.word	3984
 5693 0018 D104      		.word	1233
 5694 001a 0104      		.word	1025
 5695 001c F108      		.word	2289
 5696 001e F10B      		.word	3057
 5697 0020 7306      		.word	1651
 5698 0022 060B      		.word	2822
 5699 0024 8A09      		.word	2442
 5700 0026 AC04      		.word	1196
 5701 0028 100C      		.word	3088
 5702 002a 6808      		.word	2152
 5703 002c CE09      		.word	2510
 5704 002e 0A07      		.word	1802
 5705 0030 9809      		.word	2456
 5706 0032 FA06      		.word	1786
 5707 0034 0E07      		.word	1806
 5708 0036 310E      		.word	3633
 5709 0038 0506      		.word	1541
 5710 003a EC09      		.word	2540
 5711 003c 7807      		.word	1912
 5712 003e 260E      		.word	3622
 5713 0040 8209      		.word	2434
 5714 0042 3A0B      		.word	2874
 5715 0044 5E0E      		.word	3678
 5716 0046 3908      		.word	2105
 5717 0048 0D0F      		.word	3853
 5718 004a E10D      		.word	3553
 5719 004c 5101      		.word	337
 5720 004e EB00      		.word	235
 5721 0050 9B0B      		.word	2971
 5722 0052 2503      		.word	805
 5723 0054 4D0B      		.word	2893
 5724 0056 9502      		.word	661
 5725 0058 AC02      		.word	684
 5726 005a 720C      		.word	3186
 5727 005c 2E0F      		.word	3886
 5728 005e EB0B      		.word	3051
 5729 0060 D40F      		.word	4052
 5730 0062 E109      		.word	2529
 5731 0064 7C0A      		.word	2684
 5732 0066 F30D      		.word	3571
 5733 0068 4C01      		.word	332
 5734 006a 150E      		.word	3605
 5735 006c EE03      		.word	1006
 5736 006e E506      		.word	1765
 5737 0070 8309      		.word	2435
 5738 0072 D40D      		.word	3540
 5739 0074 9005      		.word	1424
 5740 0076 0201      		.word	258
 5741 0078 0507      		.word	1797
 5742 007a B401      		.word	436
 5743 007c 6603      		.word	870
 5744 007e B508      		.word	2229
 5745 0080 FB0C      		.word	3323
 5746 0082 C40A      		.word	2756
 5747 0084 BC00      		.word	188
 5748 0086 0101      		.word	257
 5749 0088 7901      		.word	377
 5750 008a 3102      		.word	561
 5751 008c D800      		.word	216
 5752 008e EB06      		.word	1771
 5753 0090 2802      		.word	552
 5754 0092 0F01      		.word	271
 5755 0094 D10A      		.word	2769
 5756 0096 E70E      		.word	3815
 5757 0098 3805      		.word	1336
 5758 009a 790C      		.word	3193
 5759 009c 4A02      		.word	586
 5760 009e C101      		.word	449
 5761 00a0 5504      		.word	1109
 5762 00a2 3F0E      		.word	3647
 5763 00a4 F408      		.word	2292
 5764 00a6 6F01      		.word	367
 5765 00a8 1209      		.word	2322
 5766 00aa 2A0B      		.word	2858
 5767 00ac 9509      		.word	2453
 5768 00ae D90C      		.word	3289
 5769 00b0 BD01      		.word	445
 5770 00b2 0A0C      		.word	3082
 5771 00b4 F00E      		.word	3824
 5772 00b6 130F      		.word	3859
 5773 00b8 6205      		.word	1378
 5774 00ba C90D      		.word	3529
 5775 00bc D902      		.word	729
 5776 00be EE06      		.word	1774
 5777 00c0 A102      		.word	673
 5778 00c2 3C08      		.word	2108
 5779 00c4 7201      		.word	370
 5780 00c6 150D      		.word	3349
 5781 00c8 E008      		.word	2272
 5782 00ca 8B05      		.word	1419
 5783 00cc 7607      		.word	1910
 5784 00ce AF0B      		.word	2991
 5785 00d0 0F01      		.word	271
 5786 00d2 0E0D      		.word	3342
 5787 00d4 ED09      		.word	2541
 5788 00d6 5508      		.word	2133
 5789 00d8 230A      		.word	2595
 5790 00da 4306      		.word	1603
 5791 00dc F40A      		.word	2804
 5792 00de CF0C      		.word	3279
 5793 00e0 5801      		.word	344
 5794 00e2 010D      		.word	3329
 5795 00e4 0F05      		.word	1295
 5796 00e6 2F02      		.word	559
 5797 00e8 8409      		.word	2436
 5798 00ea D10E      		.word	3793
 5799 00ec 0D03      		.word	781
 5800 00ee 9D08      		.word	2205
 5801 00f0 680D      		.word	3432
 5802 00f2 B400      		.word	180
 5803 00f4 C10D      		.word	3521
 5804 00f6 EA09      		.word	2538
 5805 00f8 EC04      		.word	1260
 5806 00fa 0407      		.word	1796
 5807 00fc 9206      		.word	1682
 5808 00fe 2D03      		.word	813
 5809 0100 E10E      		.word	3809
 5810 0102 4B0D      		.word	3403
 5811 0104 BD00      		.word	189
 5812 0106 E302      		.word	739
 5813 0108 8B0D      		.word	3467
 5814 010a 8D0C      		.word	3213
 5815 010c 1D0E      		.word	3613
 5816 010e B20E      		.word	3762
 5817 0110 CB0A      		.word	2763
 5818 0112 560D      		.word	3414
 5819 0114 3308      		.word	2099
 5820 0116 9C0B      		.word	2972
 5821 0118 6006      		.word	1632
 5822 011a 3B02      		.word	571
 5823 011c 5100      		.word	81
 5824 011e 9208      		.word	2194
 5825 0120 EB0A      		.word	2795
 5826 0122 BB02      		.word	699
 5827 0124 FD08      		.word	2301
 5828 0126 A90A      		.word	2729
 5829 0128 BE01      		.word	446
 5830 012a 740B      		.word	2932
 5831 012c 8F00      		.word	143
 5832 012e 9B04      		.word	1179
 5833 0130 CA0F      		.word	4042
 5834 0132 AF00      		.word	175
 5835 0134 300C      		.word	3120
 5836 0136 6D02      		.word	621
 5837 0138 2D0F      		.word	3885
 5838 013a 350C      		.word	3125
 5839 013c 800C      		.word	3200
 5840 013e 540E      		.word	3668
 5841 0140 CE01      		.word	462
 5842 0142 DC02      		.word	732
 5843 0144 3E0F      		.word	3902
 5844 0146 8A0A      		.word	2698
 5845 0148 F307      		.word	2035
 5846 014a 2A0A      		.word	2602
 5847 014c E802      		.word	744
 5848 014e 840E      		.word	3716
 5849 0150 9802      		.word	664
 5850 0152 880B      		.word	2952
 5851 0154 180E      		.word	3608
 5852 0156 E204      		.word	1250
 5853 0158 0501      		.word	261
 5854 015a FC01      		.word	508
 5855 015c 140D      		.word	3348
 5856 015e 070E      		.word	3591
 5857 0160 CF07      		.word	1999
 5858 0162 4A06      		.word	1610
 5859 0164 8D0B      		.word	2957
 5860 0166 700F      		.word	3952
 5861 0168 F800      		.word	248
 5862 016a 8102      		.word	641
 5863 016c A50B      		.word	2981
 5864 016e BA09      		.word	2490
 5865 0170 8209      		.word	2434
 5866 0172 6E0F      		.word	3950
 5867 0174 0F0D      		.word	3343
 5868 0176 CC06      		.word	1740
 5869 0178 C60E      		.word	3782
 5870 017a 3A07      		.word	1850
 5871 017c 7004      		.word	1136
 5872 017e C406      		.word	1732
 5873 0180 BE0F      		.word	4030
 5874 0182 3801      		.word	312
 5875 0184 F109      		.word	2545
 5876 0186 7304      		.word	1139
 5877 0188 5B07      		.word	1883
 5878 018a 150F      		.word	3861
 5879 018c 6409      		.word	2404
 5880 018e C400      		.word	196
 5881 0190 8E0D      		.word	3470
 5882 0192 F108      		.word	2289
 5883 0194 A308      		.word	2211
 5884 0196 1501      		.word	277
 5885 0198 BC0B      		.word	3004
 5886 019a B30A      		.word	2739
 5887 019c 0F09      		.word	2319
 5888 019e 8E0E      		.word	3726
 5889 01a0 C800      		.word	200
 5890 01a2 0309      		.word	2307
 5891 01a4 8A02      		.word	650
 5892 01a6 4C05      		.word	1356
 5893 01a8 B10E      		.word	3761
 5894 01aa 290F      		.word	3881
 5895 01ac 6009      		.word	2400
 5896 01ae 650E      		.word	3685
 5897 01b0 7A0E      		.word	3706
 5898 01b2 3E0F      		.word	3902
 5899 01b4 C608      		.word	2246
 5900 01b6 9D0E      		.word	3741
 5901 01b8 2E04      		.word	1070
 5902 01ba 7D05      		.word	1405
 5903 01bc 4E0D      		.word	3406
 5904 01be F10F      		.word	4081
 5905 01c0 140D      		.word	3348
 5906 01c2 6201      		.word	354
 5907 01c4 0606      		.word	1542
 5908 01c6 0808      		.word	2056
 5909 01c8 1A03      		.word	794
 5910 01ca C402      		.word	708
 5911 01cc 540F      		.word	3924
 5912 01ce FD05      		.word	1533
 5913 01d0 670F      		.word	3943
 5914 01d2 E801      		.word	488
 5915 01d4 2E08      		.word	2094
 5916 01d6 1B08      		.word	2075
 5917 01d8 D50F      		.word	4053
 5918 01da 8C0E      		.word	3724
 5919 01dc 2801      		.word	296
 5920 01de 4202      		.word	578
 5921 01e0 4100      		.word	65
 5922 01e2 A800      		.word	168
 5923 01e4 C303      		.word	963
 5924 01e6 030E      		.word	3587
 5925 01e8 9A06      		.word	1690
 5926 01ea 640D      		.word	3428
 5927 01ec 5807      		.word	1880
 5928 01ee 8D0C      		.word	3213
 5929 01f0 2D08      		.word	2093
 5930 01f2 2D0F      		.word	3885
 5931 01f4 B307      		.word	1971
 5932 01f6 7403      		.word	884
 5933 01f8 B601      		.word	438
 5934 01fa CE0D      		.word	3534
 5935 01fc EC0C      		.word	3308
 5936 01fe 660B      		.word	2918
 5937 0200 C203      		.word	962
 5938 0202 7701      		.word	375
 5939 0204 2107      		.word	1825
 5940 0206 070C      		.word	3079
 5941 0208 CF07      		.word	1999
 5942 020a C407      		.word	1988
 5943 020c BD0C      		.word	3261
 5944 020e DE0B      		.word	3038
 5945 0210 FC0A      		.word	2812
 5946 0212 B600      		.word	182
 5947 0214 5C04      		.word	1116
 5948 0216 5505      		.word	1365
 5949 0218 1601      		.word	278
 5950 021a 560A      		.word	2646
 5951 021c 5B0E      		.word	3675
 5952 021e 4900      		.word	73
 5953 0220 6001      		.word	352
 5954 0222 6906      		.word	1641
 5955 0224 1B01      		.word	283
 5956 0226 3409      		.word	2356
 5957 0228 6B06      		.word	1643
 5958 022a DD05      		.word	1501
 5959 022c 1F0D      		.word	3359
 5960 022e B705      		.word	1463
 5961 0230 890C      		.word	3209
 5962 0232 4700      		.word	71
 5963 0234 8102      		.word	641
 5964 0236 230C      		.word	3107
 5965 0238 430C      		.word	3139
 5966 023a 960C      		.word	3222
 5967 023c 2505      		.word	1317
 5968 023e 3D04      		.word	1085
 5969 0240 C204      		.word	1218
 5970 0242 4C05      		.word	1356
 5971 0244 A80C      		.word	3240
 5972 0246 A307      		.word	1955
 5973 0248 0506      		.word	1541
 5974 024a 240C      		.word	3108
 5975 024c 950C      		.word	3221
 5976 024e EA09      		.word	2538
 5977 0250 0B08      		.word	2059
 5978 0252 3106      		.word	1585
 5979 0254 8C0C      		.word	3212
 5980 0256 5905      		.word	1369
 5981 0258 9208      		.word	2194
 5982 025a F902      		.word	761
 5983 025c A50A      		.word	2725
 5984 025e 6302      		.word	611
 5985 0260 5706      		.word	1623
 5986 0262 CE09      		.word	2510
 5987 0264 7207      		.word	1906
 5988 0266 1007      		.word	1808
 5989 0268 D20F      		.word	4050
 5990 026a CD08      		.word	2253
 5991 026c 640D      		.word	3428
 5992 026e F20C      		.word	3314
 5993 0270 1C0E      		.word	3612
 5994 0272 EE06      		.word	1774
 5995 0274 AD09      		.word	2477
 5996 0276 E60E      		.word	3814
 5997 0278 CA08      		.word	2250
 5998 027a 2E03      		.word	814
 5999 027c 5A09      		.word	2394
 6000 027e 0305      		.word	1283
 6002               		.section	.progmem.data.pubKeyP_4093_320,"a"
 6005               	pubKeyP_4093_320:
 6006 0000 B509      		.word	2485
 6007 0002 000D      		.word	3328
 6008 0004 8708      		.word	2183
 6009 0006 3B05      		.word	1339
 6010 0008 D90F      		.word	4057
 6011 000a 5F05      		.word	1375
 6012 000c 1103      		.word	785
 6013 000e 5F04      		.word	1119
 6014 0010 F00B      		.word	3056
 6015 0012 B608      		.word	2230
 6016 0014 C000      		.word	192
 6017 0016 0305      		.word	1283
 6018 0018 D201      		.word	466
 6019 001a 5600      		.word	86
 6020 001c E50E      		.word	3813
 6021 001e 030F      		.word	3843
 6022 0020 2F05      		.word	1327
 6023 0022 3302      		.word	563
 6024 0024 1F08      		.word	2079
 6025 0026 4009      		.word	2368
 6026 0028 EE02      		.word	750
 6027 002a 6408      		.word	2148
 6028 002c 5C0E      		.word	3676
 6029 002e 3F0F      		.word	3903
 6030 0030 B405      		.word	1460
 6031 0032 A706      		.word	1703
 6032 0034 8003      		.word	896
 6033 0036 C704      		.word	1223
 6034 0038 CF0F      		.word	4047
 6035 003a C60C      		.word	3270
 6036 003c E901      		.word	489
 6037 003e E30B      		.word	3043
 6038 0040 C90A      		.word	2761
 6039 0042 0704      		.word	1031
 6040 0044 6908      		.word	2153
 6041 0046 8A0A      		.word	2698
 6042 0048 F50B      		.word	3061
 6043 004a 9D09      		.word	2461
 6044 004c DC09      		.word	2524
 6045 004e C304      		.word	1219
 6046 0050 5B00      		.word	91
 6047 0052 1E0F      		.word	3870
 6048 0054 670B      		.word	2919
 6049 0056 B905      		.word	1465
 6050 0058 9D0B      		.word	2973
 6051 005a D40F      		.word	4052
 6052 005c B101      		.word	433
 6053 005e 9F04      		.word	1183
 6054 0060 A90F      		.word	4009
 6055 0062 E607      		.word	2022
 6056 0064 C201      		.word	450
 6057 0066 C106      		.word	1729
 6058 0068 C200      		.word	194
 6059 006a F106      		.word	1777
 6060 006c BB01      		.word	443
 6061 006e B40E      		.word	3764
 6062 0070 C40B      		.word	3012
 6063 0072 E90D      		.word	3561
 6064 0074 0601      		.word	262
 6065 0076 7309      		.word	2419
 6066 0078 8708      		.word	2183
 6067 007a D605      		.word	1494
 6068 007c 3A04      		.word	1082
 6069 007e 120C      		.word	3090
 6070 0080 420D      		.word	3394
 6071 0082 250E      		.word	3621
 6072 0084 A300      		.word	163
 6073 0086 690E      		.word	3689
 6074 0088 E80D      		.word	3560
 6075 008a EB08      		.word	2283
 6076 008c 9F01      		.word	415
 6077 008e 6805      		.word	1384
 6078 0090 660B      		.word	2918
 6079 0092 660C      		.word	3174
 6080 0094 8009      		.word	2432
 6081 0096 1208      		.word	2066
 6082 0098 2E0F      		.word	3886
 6083 009a A206      		.word	1698
 6084 009c 0C0A      		.word	2572
 6085 009e B60F      		.word	4022
 6086 00a0 1B06      		.word	1563
 6087 00a2 C10D      		.word	3521
 6088 00a4 1509      		.word	2325
 6089 00a6 3F02      		.word	575
 6090 00a8 9005      		.word	1424
 6091 00aa C003      		.word	960
 6092 00ac E402      		.word	740
 6093 00ae 540A      		.word	2644
 6094 00b0 070B      		.word	2823
 6095 00b2 7804      		.word	1144
 6096 00b4 C504      		.word	1221
 6097 00b6 390D      		.word	3385
 6098 00b8 0207      		.word	1794
 6099 00ba D704      		.word	1239
 6100 00bc 3E00      		.word	62
 6101 00be EB01      		.word	491
 6102 00c0 3D02      		.word	573
 6103 00c2 D505      		.word	1493
 6104 00c4 4D06      		.word	1613
 6105 00c6 EA0B      		.word	3050
 6106 00c8 6A09      		.word	2410
 6107 00ca BD0A      		.word	2749
 6108 00cc 670C      		.word	3175
 6109 00ce 1F01      		.word	287
 6110 00d0 3E04      		.word	1086
 6111 00d2 BD07      		.word	1981
 6112 00d4 C906      		.word	1737
 6113 00d6 F307      		.word	2035
 6114 00d8 CB06      		.word	1739
 6115 00da A504      		.word	1189
 6116 00dc 2406      		.word	1572
 6117 00de F70C      		.word	3319
 6118 00e0 DA03      		.word	986
 6119 00e2 2901      		.word	297
 6120 00e4 6F00      		.word	111
 6121 00e6 1207      		.word	1810
 6122 00e8 9200      		.word	146
 6123 00ea 500E      		.word	3664
 6124 00ec 6E05      		.word	1390
 6125 00ee 5908      		.word	2137
 6126 00f0 8500      		.word	133
 6127 00f2 3806      		.word	1592
 6128 00f4 5504      		.word	1109
 6129 00f6 8C0D      		.word	3468
 6130 00f8 1A06      		.word	1562
 6131 00fa FD0E      		.word	3837
 6132 00fc 0D07      		.word	1805
 6133 00fe 5B01      		.word	347
 6134 0100 DC07      		.word	2012
 6135 0102 E009      		.word	2528
 6136 0104 6408      		.word	2148
 6137 0106 2900      		.word	41
 6138 0108 4107      		.word	1857
 6139 010a E30A      		.word	2787
 6140 010c 5C04      		.word	1116
 6141 010e 2E0A      		.word	2606
 6142 0110 D10F      		.word	4049
 6143 0112 B006      		.word	1712
 6144 0114 9A03      		.word	922
 6145 0116 A301      		.word	419
 6146 0118 1806      		.word	1560
 6147 011a A604      		.word	1190
 6148 011c 9C0E      		.word	3740
 6149 011e 9B0D      		.word	3483
 6150 0120 770B      		.word	2935
 6151 0122 470D      		.word	3399
 6152 0124 0C0E      		.word	3596
 6153 0126 7B01      		.word	379
 6154 0128 C80F      		.word	4040
 6155 012a F30C      		.word	3315
 6156 012c D903      		.word	985
 6157 012e 5C0D      		.word	3420
 6158 0130 1C0E      		.word	3612
 6159 0132 FC06      		.word	1788
 6160 0134 5706      		.word	1623
 6161 0136 9F04      		.word	1183
 6162 0138 500F      		.word	3920
 6163 013a A607      		.word	1958
 6164 013c 2106      		.word	1569
 6165 013e 9105      		.word	1425
 6166 0140 A00E      		.word	3744
 6167 0142 380F      		.word	3896
 6168 0144 1301      		.word	275
 6169 0146 C702      		.word	711
 6170 0148 730B      		.word	2931
 6171 014a C206      		.word	1730
 6172 014c 8C02      		.word	652
 6173 014e 4A0B      		.word	2890
 6174 0150 750B      		.word	2933
 6175 0152 C80D      		.word	3528
 6176 0154 D003      		.word	976
 6177 0156 B207      		.word	1970
 6178 0158 3A06      		.word	1594
 6179 015a 3A07      		.word	1850
 6180 015c DE02      		.word	734
 6181 015e 4806      		.word	1608
 6182 0160 BA0B      		.word	3002
 6183 0162 730E      		.word	3699
 6184 0164 C402      		.word	708
 6185 0166 5309      		.word	2387
 6186 0168 C608      		.word	2246
 6187 016a 2A02      		.word	554
 6188 016c F900      		.word	249
 6189 016e 5F0D      		.word	3423
 6190 0170 3906      		.word	1593
 6191 0172 6906      		.word	1641
 6192 0174 8008      		.word	2176
 6193 0176 7101      		.word	369
 6194 0178 4C07      		.word	1868
 6195 017a 2603      		.word	806
 6196 017c 2509      		.word	2341
 6197 017e 3C0E      		.word	3644
 6198 0180 0401      		.word	260
 6199 0182 1708      		.word	2071
 6200 0184 2F0F      		.word	3887
 6201 0186 6E04      		.word	1134
 6202 0188 6108      		.word	2145
 6203 018a 1A00      		.word	26
 6204 018c 9B07      		.word	1947
 6205 018e 760A      		.word	2678
 6206 0190 130A      		.word	2579
 6207 0192 2C04      		.word	1068
 6208 0194 1908      		.word	2073
 6209 0196 A305      		.word	1443
 6210 0198 C202      		.word	706
 6211 019a 480B      		.word	2888
 6212 019c 390C      		.word	3129
 6213 019e 2F0E      		.word	3631
 6214 01a0 F809      		.word	2552
 6215 01a2 DD0B      		.word	3037
 6216 01a4 6A0F      		.word	3946
 6217 01a6 7E02      		.word	638
 6218 01a8 AF06      		.word	1711
 6219 01aa DB04      		.word	1243
 6220 01ac 3807      		.word	1848
 6221 01ae 8A09      		.word	2442
 6222 01b0 1302      		.word	531
 6223 01b2 9F07      		.word	1951
 6224 01b4 C106      		.word	1729
 6225 01b6 0708      		.word	2055
 6226 01b8 2F07      		.word	1839
 6227 01ba 7D03      		.word	893
 6228 01bc A804      		.word	1192
 6229 01be 830D      		.word	3459
 6230 01c0 0B03      		.word	779
 6231 01c2 D409      		.word	2516
 6232 01c4 0D03      		.word	781
 6233 01c6 0F04      		.word	1039
 6234 01c8 B504      		.word	1205
 6235 01ca B40E      		.word	3764
 6236 01cc 6D02      		.word	621
 6237 01ce 600D      		.word	3424
 6238 01d0 9A0B      		.word	2970
 6239 01d2 C10F      		.word	4033
 6240 01d4 A504      		.word	1189
 6241 01d6 2B06      		.word	1579
 6242 01d8 6501      		.word	357
 6243 01da CB0F      		.word	4043
 6244 01dc 9C03      		.word	924
 6245 01de 0E0D      		.word	3342
 6246 01e0 8A0E      		.word	3722
 6247 01e2 040D      		.word	3332
 6248 01e4 2505      		.word	1317
 6249 01e6 1507      		.word	1813
 6250 01e8 DE02      		.word	734
 6251 01ea 6506      		.word	1637
 6252 01ec E204      		.word	1250
 6253 01ee 700D      		.word	3440
 6254 01f0 920F      		.word	3986
 6255 01f2 C80F      		.word	4040
 6256 01f4 7A0E      		.word	3706
 6257 01f6 1904      		.word	1049
 6258 01f8 D40B      		.word	3028
 6259 01fa 9102      		.word	657
 6260 01fc 350F      		.word	3893
 6261 01fe C908      		.word	2249
 6262 0200 1D04      		.word	1053
 6263 0202 1C06      		.word	1564
 6264 0204 120E      		.word	3602
 6265 0206 9509      		.word	2453
 6266 0208 410A      		.word	2625
 6267 020a F907      		.word	2041
 6268 020c E509      		.word	2533
 6269 020e F101      		.word	497
 6270 0210 4900      		.word	73
 6271 0212 5102      		.word	593
 6272 0214 B507      		.word	1973
 6273 0216 DB07      		.word	2011
 6274 0218 7709      		.word	2423
 6275 021a E307      		.word	2019
 6276 021c 4D0C      		.word	3149
 6277 021e 1E0F      		.word	3870
 6278 0220 7300      		.word	115
 6279 0222 E607      		.word	2022
 6280 0224 D208      		.word	2258
 6281 0226 6207      		.word	1890
 6282 0228 B608      		.word	2230
 6283 022a 9B05      		.word	1435
 6284 022c 1908      		.word	2073
 6285 022e AB01      		.word	427
 6286 0230 3D04      		.word	1085
 6287 0232 A507      		.word	1957
 6288 0234 510C      		.word	3153
 6289 0236 1606      		.word	1558
 6290 0238 7309      		.word	2419
 6291 023a EC04      		.word	1260
 6292 023c A80C      		.word	3240
 6293 023e FC01      		.word	508
 6294 0240 7C0C      		.word	3196
 6295 0242 3309      		.word	2355
 6296 0244 BC06      		.word	1724
 6297 0246 9008      		.word	2192
 6298 0248 7203      		.word	882
 6299 024a C10F      		.word	4033
 6300 024c 2B06      		.word	1579
 6301 024e 130E      		.word	3603
 6302 0250 4E07      		.word	1870
 6303 0252 420B      		.word	2882
 6304 0254 E407      		.word	2020
 6305 0256 F308      		.word	2291
 6306 0258 9B03      		.word	923
 6307 025a 9101      		.word	401
 6308 025c 0A06      		.word	1546
 6309 025e 7306      		.word	1651
 6310 0260 F10F      		.word	4081
 6311 0262 8D03      		.word	909
 6312 0264 EB04      		.word	1259
 6313 0266 ED03      		.word	1005
 6314 0268 3B03      		.word	827
 6315 026a 400A      		.word	2624
 6316 026c 4204      		.word	1090
 6317 026e E40A      		.word	2788
 6318 0270 A80A      		.word	2728
 6319 0272 D90C      		.word	3289
 6320 0274 0001      		.word	256
 6321 0276 DE09      		.word	2526
 6322 0278 B705      		.word	1463
 6323 027a 2607      		.word	1830
 6324 027c 4408      		.word	2116
 6325 027e B101      		.word	433
 6327               		.section	.progmem.data.prvKeyR2_4093_320,"a"
 6330               	prvKeyR2_4093_320:
 6331 0000 0000      		.word	0
 6332 0002 0000      		.word	0
 6333 0004 0000      		.word	0
 6334 0006 0000      		.word	0
 6335 0008 0000      		.word	0
 6336 000a 0000      		.word	0
 6337 000c 0000      		.word	0
 6338 000e 0000      		.word	0
 6339 0010 0000      		.word	0
 6340 0012 0000      		.word	0
 6341 0014 0000      		.word	0
 6342 0016 0000      		.word	0
 6343 0018 0000      		.word	0
 6344 001a 0000      		.word	0
 6345 001c 0000      		.word	0
 6346 001e 0000      		.word	0
 6347 0020 0000      		.word	0
 6348 0022 0000      		.word	0
 6349 0024 0000      		.word	0
 6350 0026 0000      		.word	0
 6351 0028 0000      		.word	0
 6352 002a 0000      		.word	0
 6353 002c 0000      		.word	0
 6354 002e 0000      		.word	0
 6355 0030 0000      		.word	0
 6356 0032 0000      		.word	0
 6357 0034 0000      		.word	0
 6358 0036 0000      		.word	0
 6359 0038 0000      		.word	0
 6360 003a 0000      		.word	0
 6361 003c 0000      		.word	0
 6362 003e 0000      		.word	0
 6363 0040 0000      		.word	0
 6364 0042 0000      		.word	0
 6365 0044 0000      		.word	0
 6366 0046 0000      		.word	0
 6367 0048 0000      		.word	0
 6368 004a 0000      		.word	0
 6369 004c 0000      		.word	0
 6370 004e 0000      		.word	0
 6371 0050 0000      		.word	0
 6372 0052 0100      		.word	1
 6373 0054 0000      		.word	0
 6374 0056 0000      		.word	0
 6375 0058 0000      		.word	0
 6376 005a 0000      		.word	0
 6377 005c 0000      		.word	0
 6378 005e 0000      		.word	0
 6379 0060 0000      		.word	0
 6380 0062 0000      		.word	0
 6381 0064 0000      		.word	0
 6382 0066 0000      		.word	0
 6383 0068 0000      		.word	0
 6384 006a 0100      		.word	1
 6385 006c 0000      		.word	0
 6386 006e 0000      		.word	0
 6387 0070 0000      		.word	0
 6388 0072 0000      		.word	0
 6389 0074 0000      		.word	0
 6390 0076 0000      		.word	0
 6391 0078 0100      		.word	1
 6392 007a 0000      		.word	0
 6393 007c 0000      		.word	0
 6394 007e 0000      		.word	0
 6395 0080 0000      		.word	0
 6396 0082 0000      		.word	0
 6397 0084 0000      		.word	0
 6398 0086 0000      		.word	0
 6399 0088 0000      		.word	0
 6400 008a 0000      		.word	0
 6401 008c 0000      		.word	0
 6402 008e 0000      		.word	0
 6403 0090 0000      		.word	0
 6404 0092 0000      		.word	0
 6405 0094 0000      		.word	0
 6406 0096 0000      		.word	0
 6407 0098 0000      		.word	0
 6408 009a 0000      		.word	0
 6409 009c 0000      		.word	0
 6410 009e 0000      		.word	0
 6411 00a0 0000      		.word	0
 6412 00a2 0000      		.word	0
 6413 00a4 0000      		.word	0
 6414 00a6 0000      		.word	0
 6415 00a8 0000      		.word	0
 6416 00aa 0000      		.word	0
 6417 00ac 0000      		.word	0
 6418 00ae 0000      		.word	0
 6419 00b0 0000      		.word	0
 6420 00b2 0000      		.word	0
 6421 00b4 0000      		.word	0
 6422 00b6 0000      		.word	0
 6423 00b8 0100      		.word	1
 6424 00ba 0000      		.word	0
 6425 00bc 0000      		.word	0
 6426 00be 0000      		.word	0
 6427 00c0 0000      		.word	0
 6428 00c2 0000      		.word	0
 6429 00c4 0000      		.word	0
 6430 00c6 0000      		.word	0
 6431 00c8 0000      		.word	0
 6432 00ca 0000      		.word	0
 6433 00cc 0000      		.word	0
 6434 00ce 0000      		.word	0
 6435 00d0 0000      		.word	0
 6436 00d2 0000      		.word	0
 6437 00d4 0000      		.word	0
 6438 00d6 0000      		.word	0
 6439 00d8 0000      		.word	0
 6440 00da 0000      		.word	0
 6441 00dc 0000      		.word	0
 6442 00de 0000      		.word	0
 6443 00e0 0000      		.word	0
 6444 00e2 0000      		.word	0
 6445 00e4 0000      		.word	0
 6446 00e6 0000      		.word	0
 6447 00e8 0000      		.word	0
 6448 00ea 0000      		.word	0
 6449 00ec 0000      		.word	0
 6450 00ee 0000      		.word	0
 6451 00f0 0000      		.word	0
 6452 00f2 0000      		.word	0
 6453 00f4 0000      		.word	0
 6454 00f6 0000      		.word	0
 6455 00f8 0000      		.word	0
 6456 00fa 0000      		.word	0
 6457 00fc 0000      		.word	0
 6458 00fe 0000      		.word	0
 6459 0100 0000      		.word	0
 6460 0102 0000      		.word	0
 6461 0104 0000      		.word	0
 6462 0106 0000      		.word	0
 6463 0108 0000      		.word	0
 6464 010a 0000      		.word	0
 6465 010c 0000      		.word	0
 6466 010e 0000      		.word	0
 6467 0110 0000      		.word	0
 6468 0112 0000      		.word	0
 6469 0114 0000      		.word	0
 6470 0116 0000      		.word	0
 6471 0118 0000      		.word	0
 6472 011a 0000      		.word	0
 6473 011c 0000      		.word	0
 6474 011e 0000      		.word	0
 6475 0120 0100      		.word	1
 6476 0122 0000      		.word	0
 6477 0124 0000      		.word	0
 6478 0126 0000      		.word	0
 6479 0128 0000      		.word	0
 6480 012a 0100      		.word	1
 6481 012c 0000      		.word	0
 6482 012e 0000      		.word	0
 6483 0130 0000      		.word	0
 6484 0132 0000      		.word	0
 6485 0134 0000      		.word	0
 6486 0136 0000      		.word	0
 6487 0138 0000      		.word	0
 6488 013a 0000      		.word	0
 6489 013c 0000      		.word	0
 6490 013e 0000      		.word	0
 6491 0140 0000      		.word	0
 6492 0142 0000      		.word	0
 6493 0144 0000      		.word	0
 6494 0146 0000      		.word	0
 6495 0148 0000      		.word	0
 6496 014a 0000      		.word	0
 6497 014c 0000      		.word	0
 6498 014e 0000      		.word	0
 6499 0150 0000      		.word	0
 6500 0152 0000      		.word	0
 6501 0154 0000      		.word	0
 6502 0156 0000      		.word	0
 6503 0158 0000      		.word	0
 6504 015a 0000      		.word	0
 6505 015c 0000      		.word	0
 6506 015e 0000      		.word	0
 6507 0160 0000      		.word	0
 6508 0162 0000      		.word	0
 6509 0164 0000      		.word	0
 6510 0166 0000      		.word	0
 6511 0168 0000      		.word	0
 6512 016a 0000      		.word	0
 6513 016c 0000      		.word	0
 6514 016e 0000      		.word	0
 6515 0170 0000      		.word	0
 6516 0172 0000      		.word	0
 6517 0174 0000      		.word	0
 6518 0176 0000      		.word	0
 6519 0178 0000      		.word	0
 6520 017a 0000      		.word	0
 6521 017c 0000      		.word	0
 6522 017e 0000      		.word	0
 6523 0180 0000      		.word	0
 6524 0182 0000      		.word	0
 6525 0184 0000      		.word	0
 6526 0186 0000      		.word	0
 6527 0188 0000      		.word	0
 6528 018a 0000      		.word	0
 6529 018c 0000      		.word	0
 6530 018e 0000      		.word	0
 6531 0190 0000      		.word	0
 6532 0192 0000      		.word	0
 6533 0194 0000      		.word	0
 6534 0196 0000      		.word	0
 6535 0198 0000      		.word	0
 6536 019a 0000      		.word	0
 6537 019c 0000      		.word	0
 6538 019e 0000      		.word	0
 6539 01a0 0000      		.word	0
 6540 01a2 0000      		.word	0
 6541 01a4 0100      		.word	1
 6542 01a6 0000      		.word	0
 6543 01a8 0000      		.word	0
 6544 01aa 0000      		.word	0
 6545 01ac 0000      		.word	0
 6546 01ae 0000      		.word	0
 6547 01b0 0000      		.word	0
 6548 01b2 0000      		.word	0
 6549 01b4 0100      		.word	1
 6550 01b6 0000      		.word	0
 6551 01b8 0000      		.word	0
 6552 01ba 0000      		.word	0
 6553 01bc 0000      		.word	0
 6554 01be 0000      		.word	0
 6555 01c0 0000      		.word	0
 6556 01c2 0000      		.word	0
 6557 01c4 0000      		.word	0
 6558 01c6 0000      		.word	0
 6559 01c8 0000      		.word	0
 6560 01ca 0000      		.word	0
 6561 01cc 0000      		.word	0
 6562 01ce 0000      		.word	0
 6563 01d0 0000      		.word	0
 6564 01d2 0000      		.word	0
 6565 01d4 0000      		.word	0
 6566 01d6 0000      		.word	0
 6567 01d8 0000      		.word	0
 6568 01da 0000      		.word	0
 6569 01dc 0000      		.word	0
 6570 01de 0000      		.word	0
 6571 01e0 0000      		.word	0
 6572 01e2 0000      		.word	0
 6573 01e4 0000      		.word	0
 6574 01e6 0000      		.word	0
 6575 01e8 0000      		.word	0
 6576 01ea 0000      		.word	0
 6577 01ec 0000      		.word	0
 6578 01ee 0000      		.word	0
 6579 01f0 0000      		.word	0
 6580 01f2 0000      		.word	0
 6581 01f4 0000      		.word	0
 6582 01f6 0000      		.word	0
 6583 01f8 0000      		.word	0
 6584 01fa 0000      		.word	0
 6585 01fc 0000      		.word	0
 6586 01fe 0000      		.word	0
 6587 0200 0000      		.word	0
 6588 0202 0000      		.word	0
 6589 0204 0000      		.word	0
 6590 0206 0000      		.word	0
 6591 0208 0000      		.word	0
 6592 020a 0000      		.word	0
 6593 020c 0000      		.word	0
 6594 020e 0000      		.word	0
 6595 0210 0000      		.word	0
 6596 0212 0000      		.word	0
 6597 0214 0000      		.word	0
 6598 0216 0000      		.word	0
 6599 0218 0000      		.word	0
 6600 021a 0000      		.word	0
 6601 021c 0000      		.word	0
 6602 021e 0000      		.word	0
 6603 0220 0100      		.word	1
 6604 0222 0000      		.word	0
 6605 0224 0000      		.word	0
 6606 0226 0000      		.word	0
 6607 0228 0000      		.word	0
 6608 022a 0000      		.word	0
 6609 022c 0000      		.word	0
 6610 022e 0000      		.word	0
 6611 0230 0000      		.word	0
 6612 0232 0000      		.word	0
 6613 0234 0000      		.word	0
 6614 0236 0000      		.word	0
 6615 0238 0000      		.word	0
 6616 023a 0000      		.word	0
 6617 023c 0000      		.word	0
 6618 023e 0100      		.word	1
 6619 0240 0000      		.word	0
 6620 0242 0000      		.word	0
 6621 0244 0000      		.word	0
 6622 0246 0000      		.word	0
 6623 0248 0000      		.word	0
 6624 024a 0000      		.word	0
 6625 024c 0000      		.word	0
 6626 024e 0000      		.word	0
 6627 0250 0000      		.word	0
 6628 0252 0000      		.word	0
 6629 0254 0000      		.word	0
 6630 0256 0000      		.word	0
 6631 0258 0000      		.word	0
 6632 025a 0000      		.word	0
 6633 025c 0000      		.word	0
 6634 025e 0000      		.word	0
 6635 0260 0000      		.word	0
 6636 0262 0000      		.word	0
 6637 0264 0000      		.word	0
 6638 0266 0000      		.word	0
 6639 0268 0000      		.word	0
 6640 026a 0000      		.word	0
 6641 026c 0000      		.word	0
 6642 026e 0000      		.word	0
 6643 0270 0000      		.word	0
 6644 0272 0000      		.word	0
 6645 0274 0000      		.word	0
 6646 0276 0000      		.word	0
 6647 0278 0000      		.word	0
 6648 027a 0000      		.word	0
 6649 027c 0000      		.word	0
 6650 027e 0100      		.word	1
 6652               		.section	.progmem.data.pubKeyA_4093_256,"a"
 6655               	pubKeyA_4093_256:
 6656 0000 1E04      		.word	1054
 6657 0002 CE06      		.word	1742
 6658 0004 C405      		.word	1476
 6659 0006 3C09      		.word	2364
 6660 0008 D403      		.word	980
 6661 000a FB0E      		.word	3835
 6662 000c 4609      		.word	2374
 6663 000e 6307      		.word	1891
 6664 0010 FC0A      		.word	2812
 6665 0012 6D0E      		.word	3693
 6666 0014 0005      		.word	1280
 6667 0016 9502      		.word	661
 6668 0018 2B0E      		.word	3627
 6669 001a 0106      		.word	1537
 6670 001c 7208      		.word	2162
 6671 001e F606      		.word	1782
 6672 0020 4C09      		.word	2380
 6673 0022 7609      		.word	2422
 6674 0024 9F04      		.word	1183
 6675 0026 7B02      		.word	635
 6676 0028 7F03      		.word	895
 6677 002a BF09      		.word	2495
 6678 002c A801      		.word	424
 6679 002e D808      		.word	2264
 6680 0030 960F      		.word	3990
 6681 0032 3604      		.word	1078
 6682 0034 0802      		.word	520
 6683 0036 7F0A      		.word	2687
 6684 0038 7A0D      		.word	3450
 6685 003a 220F      		.word	3874
 6686 003c 0704      		.word	1031
 6687 003e 2503      		.word	805
 6688 0040 8300      		.word	131
 6689 0042 D007      		.word	2000
 6690 0044 0E07      		.word	1806
 6691 0046 0804      		.word	1032
 6692 0048 D001      		.word	464
 6693 004a AC09      		.word	2476
 6694 004c 500F      		.word	3920
 6695 004e 3609      		.word	2358
 6696 0050 5A0B      		.word	2906
 6697 0052 F308      		.word	2291
 6698 0054 4C09      		.word	2380
 6699 0056 0F00      		.word	15
 6700 0058 7108      		.word	2161
 6701 005a 3B05      		.word	1339
 6702 005c C70B      		.word	3015
 6703 005e EC0A      		.word	2796
 6704 0060 C000      		.word	192
 6705 0062 720E      		.word	3698
 6706 0064 2408      		.word	2084
 6707 0066 5409      		.word	2388
 6708 0068 340F      		.word	3892
 6709 006a 2B08      		.word	2091
 6710 006c 670A      		.word	2663
 6711 006e D202      		.word	722
 6712 0070 1B09      		.word	2331
 6713 0072 D002      		.word	720
 6714 0074 5C0F      		.word	3932
 6715 0076 0C01      		.word	268
 6716 0078 210C      		.word	3105
 6717 007a 4807      		.word	1864
 6718 007c A408      		.word	2212
 6719 007e BC0F      		.word	4028
 6720 0080 600A      		.word	2656
 6721 0082 450B      		.word	2885
 6722 0084 A403      		.word	932
 6723 0086 D80A      		.word	2776
 6724 0088 6400      		.word	100
 6725 008a F805      		.word	1528
 6726 008c 7709      		.word	2423
 6727 008e 7202      		.word	626
 6728 0090 3606      		.word	1590
 6729 0092 2F06      		.word	1583
 6730 0094 2E02      		.word	558
 6731 0096 4C06      		.word	1612
 6732 0098 890A      		.word	2697
 6733 009a 0D01      		.word	269
 6734 009c F302      		.word	755
 6735 009e BF0D      		.word	3519
 6736 00a0 C908      		.word	2249
 6737 00a2 DD0C      		.word	3293
 6738 00a4 3A06      		.word	1594
 6739 00a6 8104      		.word	1153
 6740 00a8 AB02      		.word	683
 6741 00aa A50A      		.word	2725
 6742 00ac 0F07      		.word	1807
 6743 00ae C304      		.word	1219
 6744 00b0 3B05      		.word	1339
 6745 00b2 A807      		.word	1960
 6746 00b4 E30F      		.word	4067
 6747 00b6 4109      		.word	2369
 6748 00b8 7A00      		.word	122
 6749 00ba D80F      		.word	4056
 6750 00bc 4F01      		.word	335
 6751 00be 6B0C      		.word	3179
 6752 00c0 BF0E      		.word	3775
 6753 00c2 F901      		.word	505
 6754 00c4 820E      		.word	3714
 6755 00c6 770D      		.word	3447
 6756 00c8 680F      		.word	3944
 6757 00ca 9B05      		.word	1435
 6758 00cc 4F0F      		.word	3919
 6759 00ce 030F      		.word	3843
 6760 00d0 BB0B      		.word	3003
 6761 00d2 EF0E      		.word	3823
 6762 00d4 C80D      		.word	3528
 6763 00d6 8803      		.word	904
 6764 00d8 C902      		.word	713
 6765 00da 5B06      		.word	1627
 6766 00dc 9E09      		.word	2462
 6767 00de 1004      		.word	1040
 6768 00e0 FD04      		.word	1277
 6769 00e2 AA01      		.word	426
 6770 00e4 520A      		.word	2642
 6771 00e6 D70A      		.word	2775
 6772 00e8 B102      		.word	689
 6773 00ea AB0D      		.word	3499
 6774 00ec AB0E      		.word	3755
 6775 00ee DC02      		.word	732
 6776 00f0 3F0D      		.word	3391
 6777 00f2 C206      		.word	1730
 6778 00f4 DB06      		.word	1755
 6779 00f6 6506      		.word	1637
 6780 00f8 520A      		.word	2642
 6781 00fa 5700      		.word	87
 6782 00fc FC0E      		.word	3836
 6783 00fe EF03      		.word	1007
 6784 0100 DD06      		.word	1757
 6785 0102 9004      		.word	1168
 6786 0104 9B0D      		.word	3483
 6787 0106 8C08      		.word	2188
 6788 0108 D50C      		.word	3285
 6789 010a 2209      		.word	2338
 6790 010c 2E0C      		.word	3118
 6791 010e FC03      		.word	1020
 6792 0110 9E02      		.word	670
 6793 0112 9809      		.word	2456
 6794 0114 DA06      		.word	1754
 6795 0116 3A0D      		.word	3386
 6796 0118 B307      		.word	1971
 6797 011a B500      		.word	181
 6798 011c 4B09      		.word	2379
 6799 011e E208      		.word	2274
 6800 0120 2D04      		.word	1069
 6801 0122 EE01      		.word	494
 6802 0124 3604      		.word	1078
 6803 0126 A80A      		.word	2728
 6804 0128 BF09      		.word	2495
 6805 012a 4106      		.word	1601
 6806 012c 8502      		.word	645
 6807 012e 650A      		.word	2661
 6808 0130 FA0D      		.word	3578
 6809 0132 3900      		.word	57
 6810 0134 A10E      		.word	3745
 6811 0136 4E0D      		.word	3406
 6812 0138 2E0F      		.word	3886
 6813 013a AA03      		.word	938
 6814 013c 2002      		.word	544
 6815 013e 9401      		.word	404
 6816 0140 980A      		.word	2712
 6817 0142 6D08      		.word	2157
 6818 0144 7402      		.word	628
 6819 0146 4000      		.word	64
 6820 0148 0808      		.word	2056
 6821 014a E40E      		.word	3812
 6822 014c 210C      		.word	3105
 6823 014e A90C      		.word	3241
 6824 0150 3F07      		.word	1855
 6825 0152 4E09      		.word	2382
 6826 0154 0C06      		.word	1548
 6827 0156 E203      		.word	994
 6828 0158 DD07      		.word	2013
 6829 015a 2D07      		.word	1837
 6830 015c D20F      		.word	4050
 6831 015e D802      		.word	728
 6832 0160 FA0E      		.word	3834
 6833 0162 2809      		.word	2344
 6834 0164 B807      		.word	1976
 6835 0166 C009      		.word	2496
 6836 0168 D201      		.word	466
 6837 016a 3804      		.word	1080
 6838 016c E809      		.word	2536
 6839 016e 340F      		.word	3892
 6840 0170 8B0B      		.word	2955
 6841 0172 8D0D      		.word	3469
 6842 0174 8A02      		.word	650
 6843 0176 D10D      		.word	3537
 6844 0178 1405      		.word	1300
 6845 017a 620D      		.word	3426
 6846 017c 1108      		.word	2065
 6847 017e 3C03      		.word	828
 6848 0180 A602      		.word	678
 6849 0182 6509      		.word	2405
 6850 0184 C303      		.word	963
 6851 0186 B001      		.word	432
 6852 0188 AF0F      		.word	4015
 6853 018a AA07      		.word	1962
 6854 018c E405      		.word	1508
 6855 018e 0D07      		.word	1805
 6856 0190 6506      		.word	1637
 6857 0192 3501      		.word	309
 6858 0194 8709      		.word	2439
 6859 0196 8306      		.word	1667
 6860 0198 0C0F      		.word	3852
 6861 019a EF0C      		.word	3311
 6862 019c 7708      		.word	2167
 6863 019e D200      		.word	210
 6864 01a0 850D      		.word	3461
 6865 01a2 1001      		.word	272
 6866 01a4 2B03      		.word	811
 6867 01a6 AF0D      		.word	3503
 6868 01a8 3A04      		.word	1082
 6869 01aa B80A      		.word	2744
 6870 01ac 7001      		.word	368
 6871 01ae C000      		.word	192
 6872 01b0 2703      		.word	807
 6873 01b2 D003      		.word	976
 6874 01b4 7802      		.word	632
 6875 01b6 7801      		.word	376
 6876 01b8 4609      		.word	2374
 6877 01ba 830E      		.word	3715
 6878 01bc 1103      		.word	785
 6879 01be 3306      		.word	1587
 6880 01c0 B101      		.word	433
 6881 01c2 BD08      		.word	2237
 6882 01c4 1008      		.word	2064
 6883 01c6 3E0C      		.word	3134
 6884 01c8 BE0A      		.word	2750
 6885 01ca DC02      		.word	732
 6886 01cc C506      		.word	1733
 6887 01ce 4B08      		.word	2123
 6888 01d0 870E      		.word	3719
 6889 01d2 F40F      		.word	4084
 6890 01d4 AF04      		.word	1199
 6891 01d6 3A0B      		.word	2874
 6892 01d8 F80D      		.word	3576
 6893 01da 590E      		.word	3673
 6894 01dc D606      		.word	1750
 6895 01de 9403      		.word	916
 6896 01e0 1906      		.word	1561
 6897 01e2 F30B      		.word	3059
 6898 01e4 6C0E      		.word	3692
 6899 01e6 0806      		.word	1544
 6900 01e8 0C03      		.word	780
 6901 01ea 4300      		.word	67
 6902 01ec A40D      		.word	3492
 6903 01ee DF0A      		.word	2783
 6904 01f0 2F03      		.word	815
 6905 01f2 4D06      		.word	1613
 6906 01f4 9E0C      		.word	3230
 6907 01f6 9303      		.word	915
 6908 01f8 2E0E      		.word	3630
 6909 01fa F208      		.word	2290
 6910 01fc 0401      		.word	260
 6911 01fe 4B0B      		.word	2891
 6913               		.section	.progmem.data.pubKeyP_4093_256,"a"
 6916               	pubKeyP_4093_256:
 6917 0000 F60D      		.word	3574
 6918 0002 420E      		.word	3650
 6919 0004 6F0D      		.word	3439
 6920 0006 0D0C      		.word	3085
 6921 0008 B403      		.word	948
 6922 000a EA0A      		.word	2794
 6923 000c F90E      		.word	3833
 6924 000e 040C      		.word	3076
 6925 0010 CF05      		.word	1487
 6926 0012 350D      		.word	3381
 6927 0014 8301      		.word	387
 6928 0016 3D04      		.word	1085
 6929 0018 EA01      		.word	490
 6930 001a 4D08      		.word	2125
 6931 001c 100D      		.word	3344
 6932 001e E00D      		.word	3552
 6933 0020 850D      		.word	3461
 6934 0022 7A00      		.word	122
 6935 0024 AB05      		.word	1451
 6936 0026 5609      		.word	2390
 6937 0028 2806      		.word	1576
 6938 002a B008      		.word	2224
 6939 002c 9A06      		.word	1690
 6940 002e 640C      		.word	3172
 6941 0030 A907      		.word	1961
 6942 0032 C209      		.word	2498
 6943 0034 0F04      		.word	1039
 6944 0036 2904      		.word	1065
 6945 0038 3106      		.word	1585
 6946 003a 410A      		.word	2625
 6947 003c CB0F      		.word	4043
 6948 003e 7207      		.word	1906
 6949 0040 E707      		.word	2023
 6950 0042 9A00      		.word	154
 6951 0044 6107      		.word	1889
 6952 0046 460E      		.word	3654
 6953 0048 A008      		.word	2208
 6954 004a 7003      		.word	880
 6955 004c 7903      		.word	889
 6956 004e 7505      		.word	1397
 6957 0050 430A      		.word	2627
 6958 0052 C402      		.word	708
 6959 0054 C40E      		.word	3780
 6960 0056 1301      		.word	275
 6961 0058 AF07      		.word	1967
 6962 005a D806      		.word	1752
 6963 005c D60D      		.word	3542
 6964 005e 0F07      		.word	1807
 6965 0060 A501      		.word	421
 6966 0062 2801      		.word	296
 6967 0064 E208      		.word	2274
 6968 0066 D00F      		.word	4048
 6969 0068 DD0C      		.word	3293
 6970 006a 850B      		.word	2949
 6971 006c 2101      		.word	289
 6972 006e 9D09      		.word	2461
 6973 0070 EC04      		.word	1260
 6974 0072 0D04      		.word	1037
 6975 0074 C506      		.word	1733
 6976 0076 7E0A      		.word	2686
 6977 0078 C30C      		.word	3267
 6978 007a F409      		.word	2548
 6979 007c 0A08      		.word	2058
 6980 007e F005      		.word	1520
 6981 0080 0005      		.word	1280
 6982 0082 BE0E      		.word	3774
 6983 0084 710E      		.word	3697
 6984 0086 6103      		.word	865
 6985 0088 9800      		.word	152
 6986 008a 6B0D      		.word	3435
 6987 008c B202      		.word	690
 6988 008e B70D      		.word	3511
 6989 0090 BF0E      		.word	3775
 6990 0092 5D0D      		.word	3421
 6991 0094 1F02      		.word	543
 6992 0096 6409      		.word	2404
 6993 0098 5900      		.word	89
 6994 009a BD0D      		.word	3517
 6995 009c C50D      		.word	3525
 6996 009e 1005      		.word	1296
 6997 00a0 5100      		.word	81
 6998 00a2 2602      		.word	550
 6999 00a4 D306      		.word	1747
 7000 00a6 3206      		.word	1586
 7001 00a8 1302      		.word	531
 7002 00aa 980A      		.word	2712
 7003 00ac EF07      		.word	2031
 7004 00ae B00B      		.word	2992
 7005 00b0 1807      		.word	1816
 7006 00b2 A105      		.word	1441
 7007 00b4 A008      		.word	2208
 7008 00b6 F002      		.word	752
 7009 00b8 EE09      		.word	2542
 7010 00ba 300D      		.word	3376
 7011 00bc B805      		.word	1464
 7012 00be 7601      		.word	374
 7013 00c0 D305      		.word	1491
 7014 00c2 030D      		.word	3331
 7015 00c4 0209      		.word	2306
 7016 00c6 770D      		.word	3447
 7017 00c8 ED03      		.word	1005
 7018 00ca E508      		.word	2277
 7019 00cc F302      		.word	755
 7020 00ce 010A      		.word	2561
 7021 00d0 A400      		.word	164
 7022 00d2 E30D      		.word	3555
 7023 00d4 0701      		.word	263
 7024 00d6 710D      		.word	3441
 7025 00d8 D50A      		.word	2773
 7026 00da 800E      		.word	3712
 7027 00dc FE07      		.word	2046
 7028 00de A80D      		.word	3496
 7029 00e0 9204      		.word	1170
 7030 00e2 CE04      		.word	1230
 7031 00e4 3200      		.word	50
 7032 00e6 EC02      		.word	748
 7033 00e8 4000      		.word	64
 7034 00ea 500E      		.word	3664
 7035 00ec 7506      		.word	1653
 7036 00ee 1708      		.word	2071
 7037 00f0 FB0D      		.word	3579
 7038 00f2 950F      		.word	3989
 7039 00f4 E808      		.word	2280
 7040 00f6 6A06      		.word	1642
 7041 00f8 120D      		.word	3346
 7042 00fa F906      		.word	1785
 7043 00fc 3B01      		.word	315
 7044 00fe AC0E      		.word	3756
 7045 0100 8504      		.word	1157
 7046 0102 9F0B      		.word	2975
 7047 0104 4806      		.word	1608
 7048 0106 C105      		.word	1473
 7049 0108 2000      		.word	32
 7050 010a 3107      		.word	1841
 7051 010c D809      		.word	2520
 7052 010e 1509      		.word	2325
 7053 0110 DF0A      		.word	2783
 7054 0112 2B0A      		.word	2603
 7055 0114 9F03      		.word	927
 7056 0116 700B      		.word	2928
 7057 0118 9904      		.word	1177
 7058 011a 9902      		.word	665
 7059 011c 5E04      		.word	1118
 7060 011e 0802      		.word	520
 7061 0120 A900      		.word	169
 7062 0122 EA09      		.word	2538
 7063 0124 E705      		.word	1511
 7064 0126 1902      		.word	537
 7065 0128 EE0E      		.word	3822
 7066 012a CF09      		.word	2511
 7067 012c B00F      		.word	4016
 7068 012e B509      		.word	2485
 7069 0130 2100      		.word	33
 7070 0132 280D      		.word	3368
 7071 0134 3A0E      		.word	3642
 7072 0136 740D      		.word	3444
 7073 0138 ED06      		.word	1773
 7074 013a 5F04      		.word	1119
 7075 013c 810E      		.word	3713
 7076 013e 1A03      		.word	794
 7077 0140 6406      		.word	1636
 7078 0142 870F      		.word	3975
 7079 0144 C603      		.word	966
 7080 0146 5107      		.word	1873
 7081 0148 CC00      		.word	204
 7082 014a 8B06      		.word	1675
 7083 014c B301      		.word	435
 7084 014e D401      		.word	468
 7085 0150 FC0C      		.word	3324
 7086 0152 FE0B      		.word	3070
 7087 0154 6508      		.word	2149
 7088 0156 CD0D      		.word	3533
 7089 0158 7703      		.word	887
 7090 015a DC02      		.word	732
 7091 015c B703      		.word	951
 7092 015e D30D      		.word	3539
 7093 0160 090A      		.word	2569
 7094 0162 1D0E      		.word	3613
 7095 0164 4708      		.word	2119
 7096 0166 8F0E      		.word	3727
 7097 0168 A001      		.word	416
 7098 016a 4806      		.word	1608
 7099 016c CC07      		.word	1996
 7100 016e F902      		.word	761
 7101 0170 8309      		.word	2435
 7102 0172 CE02      		.word	718
 7103 0174 2A0D      		.word	3370
 7104 0176 920D      		.word	3474
 7105 0178 0B04      		.word	1035
 7106 017a 6C0E      		.word	3692
 7107 017c 7407      		.word	1908
 7108 017e D902      		.word	729
 7109 0180 7800      		.word	120
 7110 0182 ED0B      		.word	3053
 7111 0184 9F07      		.word	1951
 7112 0186 E70F      		.word	4071
 7113 0188 C606      		.word	1734
 7114 018a 400B      		.word	2880
 7115 018c 790C      		.word	3193
 7116 018e 0C03      		.word	780
 7117 0190 070A      		.word	2567
 7118 0192 5308      		.word	2131
 7119 0194 6408      		.word	2148
 7120 0196 F307      		.word	2035
 7121 0198 500D      		.word	3408
 7122 019a A003      		.word	928
 7123 019c 8402      		.word	644
 7124 019e 4908      		.word	2121
 7125 01a0 8600      		.word	134
 7126 01a2 6208      		.word	2146
 7127 01a4 180E      		.word	3608
 7128 01a6 C405      		.word	1476
 7129 01a8 8708      		.word	2183
 7130 01aa F909      		.word	2553
 7131 01ac E007      		.word	2016
 7132 01ae 140E      		.word	3604
 7133 01b0 0208      		.word	2050
 7134 01b2 EA0A      		.word	2794
 7135 01b4 560F      		.word	3926
 7136 01b6 E607      		.word	2022
 7137 01b8 A20F      		.word	4002
 7138 01ba 5502      		.word	597
 7139 01bc C10C      		.word	3265
 7140 01be BE0F      		.word	4030
 7141 01c0 A70C      		.word	3239
 7142 01c2 D705      		.word	1495
 7143 01c4 8E08      		.word	2190
 7144 01c6 8C02      		.word	652
 7145 01c8 110E      		.word	3601
 7146 01ca EF03      		.word	1007
 7147 01cc E00C      		.word	3296
 7148 01ce 5903      		.word	857
 7149 01d0 AD03      		.word	941
 7150 01d2 7600      		.word	118
 7151 01d4 7309      		.word	2419
 7152 01d6 590A      		.word	2649
 7153 01d8 8A09      		.word	2442
 7154 01da D104      		.word	1233
 7155 01dc 490C      		.word	3145
 7156 01de 1605      		.word	1302
 7157 01e0 1C0E      		.word	3612
 7158 01e2 8104      		.word	1153
 7159 01e4 9606      		.word	1686
 7160 01e6 1D03      		.word	797
 7161 01e8 6903      		.word	873
 7162 01ea 1102      		.word	529
 7163 01ec 130A      		.word	2579
 7164 01ee 750C      		.word	3189
 7165 01f0 8009      		.word	2432
 7166 01f2 FA0F      		.word	4090
 7167 01f4 0303      		.word	771
 7168 01f6 AC0F      		.word	4012
 7169 01f8 0C0E      		.word	3596
 7170 01fa 2203      		.word	802
 7171 01fc 1E05      		.word	1310
 7172 01fe 7D01      		.word	381
 7174               		.section	.progmem.data.prvKeyR2_4093_256,"a"
 7177               	prvKeyR2_4093_256:
 7178 0000 0000      		.word	0
 7179 0002 0000      		.word	0
 7180 0004 0000      		.word	0
 7181 0006 0000      		.word	0
 7182 0008 0000      		.word	0
 7183 000a 0000      		.word	0
 7184 000c 0000      		.word	0
 7185 000e 0000      		.word	0
 7186 0010 0000      		.word	0
 7187 0012 0000      		.word	0
 7188 0014 0000      		.word	0
 7189 0016 0000      		.word	0
 7190 0018 0000      		.word	0
 7191 001a 0000      		.word	0
 7192 001c 0000      		.word	0
 7193 001e 0000      		.word	0
 7194 0020 0000      		.word	0
 7195 0022 0000      		.word	0
 7196 0024 0000      		.word	0
 7197 0026 0000      		.word	0
 7198 0028 0000      		.word	0
 7199 002a 0000      		.word	0
 7200 002c 0000      		.word	0
 7201 002e 0100      		.word	1
 7202 0030 0000      		.word	0
 7203 0032 0000      		.word	0
 7204 0034 0000      		.word	0
 7205 0036 0000      		.word	0
 7206 0038 0000      		.word	0
 7207 003a 0000      		.word	0
 7208 003c 0000      		.word	0
 7209 003e 0000      		.word	0
 7210 0040 0000      		.word	0
 7211 0042 0000      		.word	0
 7212 0044 0000      		.word	0
 7213 0046 0000      		.word	0
 7214 0048 0000      		.word	0
 7215 004a 0000      		.word	0
 7216 004c 0000      		.word	0
 7217 004e 0000      		.word	0
 7218 0050 0000      		.word	0
 7219 0052 0000      		.word	0
 7220 0054 0000      		.word	0
 7221 0056 0000      		.word	0
 7222 0058 0000      		.word	0
 7223 005a 0000      		.word	0
 7224 005c 0000      		.word	0
 7225 005e 0000      		.word	0
 7226 0060 0000      		.word	0
 7227 0062 0000      		.word	0
 7228 0064 0000      		.word	0
 7229 0066 0000      		.word	0
 7230 0068 0000      		.word	0
 7231 006a 0000      		.word	0
 7232 006c 0000      		.word	0
 7233 006e 0000      		.word	0
 7234 0070 0000      		.word	0
 7235 0072 0000      		.word	0
 7236 0074 0000      		.word	0
 7237 0076 0000      		.word	0
 7238 0078 0000      		.word	0
 7239 007a 0000      		.word	0
 7240 007c 0000      		.word	0
 7241 007e 0000      		.word	0
 7242 0080 0000      		.word	0
 7243 0082 0000      		.word	0
 7244 0084 0000      		.word	0
 7245 0086 0000      		.word	0
 7246 0088 0000      		.word	0
 7247 008a 0000      		.word	0
 7248 008c 0000      		.word	0
 7249 008e 0000      		.word	0
 7250 0090 0000      		.word	0
 7251 0092 0000      		.word	0
 7252 0094 0000      		.word	0
 7253 0096 0000      		.word	0
 7254 0098 0000      		.word	0
 7255 009a 0000      		.word	0
 7256 009c 0000      		.word	0
 7257 009e 0000      		.word	0
 7258 00a0 0100      		.word	1
 7259 00a2 0000      		.word	0
 7260 00a4 0000      		.word	0
 7261 00a6 0000      		.word	0
 7262 00a8 0000      		.word	0
 7263 00aa 0000      		.word	0
 7264 00ac 0000      		.word	0
 7265 00ae 0100      		.word	1
 7266 00b0 0000      		.word	0
 7267 00b2 0000      		.word	0
 7268 00b4 0000      		.word	0
 7269 00b6 0000      		.word	0
 7270 00b8 0000      		.word	0
 7271 00ba 0000      		.word	0
 7272 00bc 0000      		.word	0
 7273 00be 0100      		.word	1
 7274 00c0 0000      		.word	0
 7275 00c2 0000      		.word	0
 7276 00c4 0000      		.word	0
 7277 00c6 0000      		.word	0
 7278 00c8 0000      		.word	0
 7279 00ca 0100      		.word	1
 7280 00cc 0000      		.word	0
 7281 00ce 0000      		.word	0
 7282 00d0 0000      		.word	0
 7283 00d2 0000      		.word	0
 7284 00d4 0000      		.word	0
 7285 00d6 0000      		.word	0
 7286 00d8 0000      		.word	0
 7287 00da 0000      		.word	0
 7288 00dc 0000      		.word	0
 7289 00de 0000      		.word	0
 7290 00e0 0000      		.word	0
 7291 00e2 0000      		.word	0
 7292 00e4 0000      		.word	0
 7293 00e6 0000      		.word	0
 7294 00e8 0000      		.word	0
 7295 00ea 0000      		.word	0
 7296 00ec 0100      		.word	1
 7297 00ee 0000      		.word	0
 7298 00f0 0000      		.word	0
 7299 00f2 0000      		.word	0
 7300 00f4 0000      		.word	0
 7301 00f6 0000      		.word	0
 7302 00f8 0000      		.word	0
 7303 00fa 0000      		.word	0
 7304 00fc 0000      		.word	0
 7305 00fe 0000      		.word	0
 7306 0100 0000      		.word	0
 7307 0102 0000      		.word	0
 7308 0104 0000      		.word	0
 7309 0106 0000      		.word	0
 7310 0108 0000      		.word	0
 7311 010a 0000      		.word	0
 7312 010c 0000      		.word	0
 7313 010e 0000      		.word	0
 7314 0110 0000      		.word	0
 7315 0112 0000      		.word	0
 7316 0114 0000      		.word	0
 7317 0116 0100      		.word	1
 7318 0118 0000      		.word	0
 7319 011a 0000      		.word	0
 7320 011c 0000      		.word	0
 7321 011e 0000      		.word	0
 7322 0120 0000      		.word	0
 7323 0122 0000      		.word	0
 7324 0124 0000      		.word	0
 7325 0126 0000      		.word	0
 7326 0128 0000      		.word	0
 7327 012a 0000      		.word	0
 7328 012c 0000      		.word	0
 7329 012e 0000      		.word	0
 7330 0130 0000      		.word	0
 7331 0132 0000      		.word	0
 7332 0134 0000      		.word	0
 7333 0136 0000      		.word	0
 7334 0138 0000      		.word	0
 7335 013a 0000      		.word	0
 7336 013c 0000      		.word	0
 7337 013e 0000      		.word	0
 7338 0140 0000      		.word	0
 7339 0142 0000      		.word	0
 7340 0144 0000      		.word	0
 7341 0146 0000      		.word	0
 7342 0148 0000      		.word	0
 7343 014a 0000      		.word	0
 7344 014c 0000      		.word	0
 7345 014e 0000      		.word	0
 7346 0150 0000      		.word	0
 7347 0152 0000      		.word	0
 7348 0154 0000      		.word	0
 7349 0156 0000      		.word	0
 7350 0158 0000      		.word	0
 7351 015a 0000      		.word	0
 7352 015c 0000      		.word	0
 7353 015e 0000      		.word	0
 7354 0160 0000      		.word	0
 7355 0162 0000      		.word	0
 7356 0164 0000      		.word	0
 7357 0166 0000      		.word	0
 7358 0168 0000      		.word	0
 7359 016a 0000      		.word	0
 7360 016c 0000      		.word	0
 7361 016e 0000      		.word	0
 7362 0170 0000      		.word	0
 7363 0172 0000      		.word	0
 7364 0174 0000      		.word	0
 7365 0176 0000      		.word	0
 7366 0178 0000      		.word	0
 7367 017a 0000      		.word	0
 7368 017c 0000      		.word	0
 7369 017e 0000      		.word	0
 7370 0180 0000      		.word	0
 7371 0182 0000      		.word	0
 7372 0184 0000      		.word	0
 7373 0186 0000      		.word	0
 7374 0188 0000      		.word	0
 7375 018a 0000      		.word	0
 7376 018c 0000      		.word	0
 7377 018e 0000      		.word	0
 7378 0190 0000      		.word	0
 7379 0192 0000      		.word	0
 7380 0194 0000      		.word	0
 7381 0196 0000      		.word	0
 7382 0198 0000      		.word	0
 7383 019a 0000      		.word	0
 7384 019c 0000      		.word	0
 7385 019e 0000      		.word	0
 7386 01a0 0000      		.word	0
 7387 01a2 0000      		.word	0
 7388 01a4 0000      		.word	0
 7389 01a6 0000      		.word	0
 7390 01a8 0000      		.word	0
 7391 01aa 0000      		.word	0
 7392 01ac 0000      		.word	0
 7393 01ae 0000      		.word	0
 7394 01b0 0000      		.word	0
 7395 01b2 0000      		.word	0
 7396 01b4 0000      		.word	0
 7397 01b6 0000      		.word	0
 7398 01b8 0000      		.word	0
 7399 01ba 0100      		.word	1
 7400 01bc 0000      		.word	0
 7401 01be 0000      		.word	0
 7402 01c0 0000      		.word	0
 7403 01c2 0000      		.word	0
 7404 01c4 0000      		.word	0
 7405 01c6 0000      		.word	0
 7406 01c8 0000      		.word	0
 7407 01ca 0000      		.word	0
 7408 01cc 0000      		.word	0
 7409 01ce 0000      		.word	0
 7410 01d0 0000      		.word	0
 7411 01d2 0000      		.word	0
 7412 01d4 0000      		.word	0
 7413 01d6 0000      		.word	0
 7414 01d8 0000      		.word	0
 7415 01da 0000      		.word	0
 7416 01dc 0000      		.word	0
 7417 01de 0000      		.word	0
 7418 01e0 0000      		.word	0
 7419 01e2 0000      		.word	0
 7420 01e4 0000      		.word	0
 7421 01e6 0000      		.word	0
 7422 01e8 0000      		.word	0
 7423 01ea 0000      		.word	0
 7424 01ec 0000      		.word	0
 7425 01ee 0000      		.word	0
 7426 01f0 0000      		.word	0
 7427 01f2 0100      		.word	1
 7428 01f4 0000      		.word	0
 7429 01f6 0000      		.word	0
 7430 01f8 0000      		.word	0
 7431 01fa 0000      		.word	0
 7432 01fc 0000      		.word	0
 7433 01fe 0000      		.word	0
 7435               		.section	.progmem.data.pubKeyA_4093_192,"a"
 7438               	pubKeyA_4093_192:
 7439 0000 D104      		.word	1233
 7440 0002 D307      		.word	2003
 7441 0004 0C03      		.word	780
 7442 0006 E406      		.word	1764
 7443 0008 850F      		.word	3973
 7444 000a 8808      		.word	2184
 7445 000c 570C      		.word	3159
 7446 000e FA0A      		.word	2810
 7447 0010 F20B      		.word	3058
 7448 0012 F705      		.word	1527
 7449 0014 050B      		.word	2821
 7450 0016 2509      		.word	2341
 7451 0018 9E03      		.word	926
 7452 001a 0309      		.word	2307
 7453 001c AD0E      		.word	3757
 7454 001e B205      		.word	1458
 7455 0020 8703      		.word	903
 7456 0022 9902      		.word	665
 7457 0024 3D03      		.word	829
 7458 0026 DA0D      		.word	3546
 7459 0028 1308      		.word	2067
 7460 002a 0601      		.word	262
 7461 002c 1C0E      		.word	3612
 7462 002e AE04      		.word	1198
 7463 0030 440F      		.word	3908
 7464 0032 F102      		.word	753
 7465 0034 AC04      		.word	1196
 7466 0036 4B06      		.word	1611
 7467 0038 240E      		.word	3620
 7468 003a 5102      		.word	593
 7469 003c AC03      		.word	940
 7470 003e 010F      		.word	3841
 7471 0040 4603      		.word	838
 7472 0042 4F04      		.word	1103
 7473 0044 5A00      		.word	90
 7474 0046 D10F      		.word	4049
 7475 0048 FD06      		.word	1789
 7476 004a E003      		.word	992
 7477 004c F507      		.word	2037
 7478 004e AE0F      		.word	4014
 7479 0050 E605      		.word	1510
 7480 0052 8B0A      		.word	2699
 7481 0054 EC05      		.word	1516
 7482 0056 840C      		.word	3204
 7483 0058 8102      		.word	641
 7484 005a E70E      		.word	3815
 7485 005c 7F02      		.word	639
 7486 005e 550B      		.word	2901
 7487 0060 8409      		.word	2436
 7488 0062 CA0B      		.word	3018
 7489 0064 940B      		.word	2964
 7490 0066 6202      		.word	610
 7491 0068 6B02      		.word	619
 7492 006a AA00      		.word	170
 7493 006c 7000      		.word	112
 7494 006e 180B      		.word	2840
 7495 0070 4004      		.word	1088
 7496 0072 D404      		.word	1236
 7497 0074 5200      		.word	82
 7498 0076 5F02      		.word	607
 7499 0078 380D      		.word	3384
 7500 007a 5402      		.word	596
 7501 007c A506      		.word	1701
 7502 007e EF0B      		.word	3055
 7503 0080 A000      		.word	160
 7504 0082 D505      		.word	1493
 7505 0084 AF0E      		.word	3759
 7506 0086 DF09      		.word	2527
 7507 0088 5C0C      		.word	3164
 7508 008a 950A      		.word	2709
 7509 008c 4609      		.word	2374
 7510 008e 1C0E      		.word	3612
 7511 0090 A804      		.word	1192
 7512 0092 5507      		.word	1877
 7513 0094 5107      		.word	1873
 7514 0096 FA0C      		.word	3322
 7515 0098 D101      		.word	465
 7516 009a D20A      		.word	2770
 7517 009c D708      		.word	2263
 7518 009e 5404      		.word	1108
 7519 00a0 1D0E      		.word	3613
 7520 00a2 E30A      		.word	2787
 7521 00a4 5604      		.word	1110
 7522 00a6 D20D      		.word	3538
 7523 00a8 2509      		.word	2341
 7524 00aa B307      		.word	1971
 7525 00ac 3009      		.word	2352
 7526 00ae 6800      		.word	104
 7527 00b0 8009      		.word	2432
 7528 00b2 2E08      		.word	2094
 7529 00b4 590D      		.word	3417
 7530 00b6 CC02      		.word	716
 7531 00b8 0F0A      		.word	2575
 7532 00ba 2D01      		.word	301
 7533 00bc E703      		.word	999
 7534 00be 770C      		.word	3191
 7535 00c0 5504      		.word	1109
 7536 00c2 5C09      		.word	2396
 7537 00c4 C709      		.word	2503
 7538 00c6 E906      		.word	1769
 7539 00c8 9B04      		.word	1179
 7540 00ca C60B      		.word	3014
 7541 00cc 590B      		.word	2905
 7542 00ce B106      		.word	1713
 7543 00d0 7401      		.word	372
 7544 00d2 F30F      		.word	4083
 7545 00d4 BB06      		.word	1723
 7546 00d6 B804      		.word	1208
 7547 00d8 170F      		.word	3863
 7548 00da 8402      		.word	644
 7549 00dc 700F      		.word	3952
 7550 00de CC0D      		.word	3532
 7551 00e0 6402      		.word	612
 7552 00e2 BE07      		.word	1982
 7553 00e4 3202      		.word	562
 7554 00e6 8609      		.word	2438
 7555 00e8 D806      		.word	1752
 7556 00ea 3208      		.word	2098
 7557 00ec E20A      		.word	2786
 7558 00ee 5D02      		.word	605
 7559 00f0 9704      		.word	1175
 7560 00f2 E404      		.word	1252
 7561 00f4 4603      		.word	838
 7562 00f6 990F      		.word	3993
 7563 00f8 D902      		.word	729
 7564 00fa 8F05      		.word	1423
 7565 00fc CC08      		.word	2252
 7566 00fe 330F      		.word	3891
 7567 0100 2502      		.word	549
 7568 0102 9A0B      		.word	2970
 7569 0104 470B      		.word	2887
 7570 0106 780F      		.word	3960
 7571 0108 320E      		.word	3634
 7572 010a CE02      		.word	718
 7573 010c 8D0F      		.word	3981
 7574 010e 7C0B      		.word	2940
 7575 0110 D70C      		.word	3287
 7576 0112 690D      		.word	3433
 7577 0114 C90C      		.word	3273
 7578 0116 330C      		.word	3123
 7579 0118 7F0B      		.word	2943
 7580 011a EF0A      		.word	2799
 7581 011c BA0C      		.word	3258
 7582 011e 6C07      		.word	1900
 7583 0120 7C07      		.word	1916
 7584 0122 9604      		.word	1174
 7585 0124 5906      		.word	1625
 7586 0126 F00E      		.word	3824
 7587 0128 AA0C      		.word	3242
 7588 012a 8F06      		.word	1679
 7589 012c EA03      		.word	1002
 7590 012e EC05      		.word	1516
 7591 0130 7F02      		.word	639
 7592 0132 A00F      		.word	4000
 7593 0134 110F      		.word	3857
 7594 0136 610A      		.word	2657
 7595 0138 BE0D      		.word	3518
 7596 013a E707      		.word	2023
 7597 013c 1107      		.word	1809
 7598 013e E400      		.word	228
 7599 0140 5204      		.word	1106
 7600 0142 D106      		.word	1745
 7601 0144 9006      		.word	1680
 7602 0146 9000      		.word	144
 7603 0148 9A0A      		.word	2714
 7604 014a AB0C      		.word	3243
 7605 014c 1A0C      		.word	3098
 7606 014e 5009      		.word	2384
 7607 0150 BE05      		.word	1470
 7608 0152 3A0F      		.word	3898
 7609 0154 F80C      		.word	3320
 7610 0156 B302      		.word	691
 7611 0158 8007      		.word	1920
 7612 015a 3F0E      		.word	3647
 7613 015c 5402      		.word	596
 7614 015e 3701      		.word	311
 7615 0160 5F0F      		.word	3935
 7616 0162 EB09      		.word	2539
 7617 0164 7609      		.word	2422
 7618 0166 9C0F      		.word	3996
 7619 0168 3700      		.word	55
 7620 016a F507      		.word	2037
 7621 016c 840F      		.word	3972
 7622 016e DC00      		.word	220
 7623 0170 170A      		.word	2583
 7624 0172 9D0C      		.word	3229
 7625 0174 A604      		.word	1190
 7626 0176 F00B      		.word	3056
 7627 0178 D904      		.word	1241
 7628 017a C104      		.word	1217
 7629 017c 580F      		.word	3928
 7630 017e 0B05      		.word	1291
 7632               		.section	.progmem.data.pubKeyP_4093_192,"a"
 7635               	pubKeyP_4093_192:
 7636 0000 100D      		.word	3344
 7637 0002 5E00      		.word	94
 7638 0004 7D0E      		.word	3709
 7639 0006 450E      		.word	3653
 7640 0008 2501      		.word	293
 7641 000a 050B      		.word	2821
 7642 000c 3B08      		.word	2107
 7643 000e 3A0D      		.word	3386
 7644 0010 FA00      		.word	250
 7645 0012 9404      		.word	1172
 7646 0014 A206      		.word	1698
 7647 0016 430E      		.word	3651
 7648 0018 BA0B      		.word	3002
 7649 001a AE04      		.word	1198
 7650 001c E00A      		.word	2784
 7651 001e D80D      		.word	3544
 7652 0020 1F08      		.word	2079
 7653 0022 4F04      		.word	1103
 7654 0024 590E      		.word	3673
 7655 0026 CE0C      		.word	3278
 7656 0028 1108      		.word	2065
 7657 002a 9F09      		.word	2463
 7658 002c 190D      		.word	3353
 7659 002e BA0C      		.word	3258
 7660 0030 9D0B      		.word	2973
 7661 0032 4305      		.word	1347
 7662 0034 A103      		.word	929
 7663 0036 B30C      		.word	3251
 7664 0038 3C04      		.word	1084
 7665 003a A801      		.word	424
 7666 003c 7E02      		.word	638
 7667 003e 3109      		.word	2353
 7668 0040 D604      		.word	1238
 7669 0042 F008      		.word	2288
 7670 0044 8400      		.word	132
 7671 0046 E80A      		.word	2792
 7672 0048 BC0A      		.word	2748
 7673 004a 9908      		.word	2201
 7674 004c A00D      		.word	3488
 7675 004e 1006      		.word	1552
 7676 0050 BD04      		.word	1213
 7677 0052 3D0C      		.word	3133
 7678 0054 1902      		.word	537
 7679 0056 170F      		.word	3863
 7680 0058 D90D      		.word	3545
 7681 005a 090C      		.word	3081
 7682 005c 2908      		.word	2089
 7683 005e BE03      		.word	958
 7684 0060 9A02      		.word	666
 7685 0062 8905      		.word	1417
 7686 0064 C00B      		.word	3008
 7687 0066 BE0C      		.word	3262
 7688 0068 5809      		.word	2392
 7689 006a 3300      		.word	51
 7690 006c 650E      		.word	3685
 7691 006e C00E      		.word	3776
 7692 0070 BF0F      		.word	4031
 7693 0072 D80F      		.word	4056
 7694 0074 2C07      		.word	1836
 7695 0076 6106      		.word	1633
 7696 0078 D20E      		.word	3794
 7697 007a 790A      		.word	2681
 7698 007c 3207      		.word	1842
 7699 007e 7005      		.word	1392
 7700 0080 0A0A      		.word	2570
 7701 0082 4903      		.word	841
 7702 0084 DC08      		.word	2268
 7703 0086 B205      		.word	1458
 7704 0088 CE0C      		.word	3278
 7705 008a 9201      		.word	402
 7706 008c 310D      		.word	3377
 7707 008e 280D      		.word	3368
 7708 0090 C00C      		.word	3264
 7709 0092 210A      		.word	2593
 7710 0094 B004      		.word	1200
 7711 0096 B406      		.word	1716
 7712 0098 F402      		.word	756
 7713 009a 840D      		.word	3460
 7714 009c 2803      		.word	808
 7715 009e E300      		.word	227
 7716 00a0 2D0A      		.word	2605
 7717 00a2 3F02      		.word	575
 7718 00a4 C005      		.word	1472
 7719 00a6 2502      		.word	549
 7720 00a8 B403      		.word	948
 7721 00aa C20D      		.word	3522
 7722 00ac 5F07      		.word	1887
 7723 00ae 5D07      		.word	1885
 7724 00b0 830D      		.word	3459
 7725 00b2 1B0E      		.word	3611
 7726 00b4 1E05      		.word	1310
 7727 00b6 7103      		.word	881
 7728 00b8 F605      		.word	1526
 7729 00ba 5E0A      		.word	2654
 7730 00bc 1A00      		.word	26
 7731 00be C00E      		.word	3776
 7732 00c0 E500      		.word	229
 7733 00c2 E402      		.word	740
 7734 00c4 0701      		.word	263
 7735 00c6 D10F      		.word	4049
 7736 00c8 CB0F      		.word	4043
 7737 00ca 9403      		.word	916
 7738 00cc A20F      		.word	4002
 7739 00ce 3E0C      		.word	3134
 7740 00d0 EB02      		.word	747
 7741 00d2 0F03      		.word	783
 7742 00d4 3A0A      		.word	2618
 7743 00d6 0705      		.word	1287
 7744 00d8 8F08      		.word	2191
 7745 00da E80D      		.word	3560
 7746 00dc EE06      		.word	1774
 7747 00de AD05      		.word	1453
 7748 00e0 150D      		.word	3349
 7749 00e2 530C      		.word	3155
 7750 00e4 E105      		.word	1505
 7751 00e6 0D07      		.word	1805
 7752 00e8 4F0B      		.word	2895
 7753 00ea 980A      		.word	2712
 7754 00ec 190F      		.word	3865
 7755 00ee FF0A      		.word	2815
 7756 00f0 D105      		.word	1489
 7757 00f2 540C      		.word	3156
 7758 00f4 FC0F      		.word	4092
 7759 00f6 5A06      		.word	1626
 7760 00f8 0702      		.word	519
 7761 00fa 4705      		.word	1351
 7762 00fc 5B0F      		.word	3931
 7763 00fe AA03      		.word	938
 7764 0100 AF0B      		.word	2991
 7765 0102 9000      		.word	144
 7766 0104 F901      		.word	505
 7767 0106 A005      		.word	1440
 7768 0108 2204      		.word	1058
 7769 010a BD09      		.word	2493
 7770 010c B801      		.word	440
 7771 010e 0700      		.word	7
 7772 0110 780E      		.word	3704
 7773 0112 510B      		.word	2897
 7774 0114 8206      		.word	1666
 7775 0116 A906      		.word	1705
 7776 0118 670C      		.word	3175
 7777 011a F30A      		.word	2803
 7778 011c FC09      		.word	2556
 7779 011e 900E      		.word	3728
 7780 0120 4E09      		.word	2382
 7781 0122 FE0C      		.word	3326
 7782 0124 840F      		.word	3972
 7783 0126 930D      		.word	3475
 7784 0128 A704      		.word	1191
 7785 012a F608      		.word	2294
 7786 012c 3E0F      		.word	3902
 7787 012e CF0E      		.word	3791
 7788 0130 7207      		.word	1906
 7789 0132 280D      		.word	3368
 7790 0134 3A0D      		.word	3386
 7791 0136 650D      		.word	3429
 7792 0138 9E08      		.word	2206
 7793 013a 9801      		.word	408
 7794 013c D80F      		.word	4056
 7795 013e B502      		.word	693
 7796 0140 4007      		.word	1856
 7797 0142 890C      		.word	3209
 7798 0144 9C0F      		.word	3996
 7799 0146 4609      		.word	2374
 7800 0148 180F      		.word	3864
 7801 014a 150A      		.word	2581
 7802 014c 6108      		.word	2145
 7803 014e 0E0F      		.word	3854
 7804 0150 5B0C      		.word	3163
 7805 0152 130D      		.word	3347
 7806 0154 EE04      		.word	1262
 7807 0156 BF0F      		.word	4031
 7808 0158 9105      		.word	1425
 7809 015a B103      		.word	945
 7810 015c 6508      		.word	2149
 7811 015e 9109      		.word	2449
 7812 0160 6D0B      		.word	2925
 7813 0162 820F      		.word	3970
 7814 0164 2705      		.word	1319
 7815 0166 3D04      		.word	1085
 7816 0168 8E0B      		.word	2958
 7817 016a 880C      		.word	3208
 7818 016c 1A06      		.word	1562
 7819 016e D106      		.word	1745
 7820 0170 3400      		.word	52
 7821 0172 5D03      		.word	861
 7822 0174 1D0E      		.word	3613
 7823 0176 560F      		.word	3926
 7824 0178 EB09      		.word	2539
 7825 017a DF0E      		.word	3807
 7826 017c 1D0E      		.word	3613
 7827 017e D20B      		.word	3026
 7829               		.section	.progmem.data.prvKeyR2_4093_192,"a"
 7832               	prvKeyR2_4093_192:
 7833 0000 0000      		.word	0
 7834 0002 0000      		.word	0
 7835 0004 0000      		.word	0
 7836 0006 0000      		.word	0
 7837 0008 0000      		.word	0
 7838 000a 0000      		.word	0
 7839 000c 0000      		.word	0
 7840 000e 0000      		.word	0
 7841 0010 0000      		.word	0
 7842 0012 0000      		.word	0
 7843 0014 0000      		.word	0
 7844 0016 0000      		.word	0
 7845 0018 0000      		.word	0
 7846 001a 0000      		.word	0
 7847 001c 0000      		.word	0
 7848 001e 0000      		.word	0
 7849 0020 0000      		.word	0
 7850 0022 0000      		.word	0
 7851 0024 0000      		.word	0
 7852 0026 0000      		.word	0
 7853 0028 0000      		.word	0
 7854 002a 0000      		.word	0
 7855 002c 0000      		.word	0
 7856 002e 0000      		.word	0
 7857 0030 0000      		.word	0
 7858 0032 0000      		.word	0
 7859 0034 0000      		.word	0
 7860 0036 0000      		.word	0
 7861 0038 0000      		.word	0
 7862 003a 0000      		.word	0
 7863 003c 0000      		.word	0
 7864 003e 0000      		.word	0
 7865 0040 0000      		.word	0
 7866 0042 0100      		.word	1
 7867 0044 0000      		.word	0
 7868 0046 0000      		.word	0
 7869 0048 0000      		.word	0
 7870 004a 0000      		.word	0
 7871 004c 0000      		.word	0
 7872 004e 0000      		.word	0
 7873 0050 0000      		.word	0
 7874 0052 0000      		.word	0
 7875 0054 0000      		.word	0
 7876 0056 0000      		.word	0
 7877 0058 0000      		.word	0
 7878 005a 0000      		.word	0
 7879 005c 0000      		.word	0
 7880 005e 0000      		.word	0
 7881 0060 0000      		.word	0
 7882 0062 0000      		.word	0
 7883 0064 0000      		.word	0
 7884 0066 0000      		.word	0
 7885 0068 0000      		.word	0
 7886 006a 0000      		.word	0
 7887 006c 0000      		.word	0
 7888 006e 0000      		.word	0
 7889 0070 0000      		.word	0
 7890 0072 0000      		.word	0
 7891 0074 0000      		.word	0
 7892 0076 0000      		.word	0
 7893 0078 0000      		.word	0
 7894 007a 0000      		.word	0
 7895 007c 0000      		.word	0
 7896 007e 0000      		.word	0
 7897 0080 0000      		.word	0
 7898 0082 0100      		.word	1
 7899 0084 0000      		.word	0
 7900 0086 0000      		.word	0
 7901 0088 0000      		.word	0
 7902 008a 0000      		.word	0
 7903 008c 0100      		.word	1
 7904 008e 0000      		.word	0
 7905 0090 0000      		.word	0
 7906 0092 0000      		.word	0
 7907 0094 0000      		.word	0
 7908 0096 0100      		.word	1
 7909 0098 0000      		.word	0
 7910 009a 0000      		.word	0
 7911 009c 0000      		.word	0
 7912 009e 0000      		.word	0
 7913 00a0 0000      		.word	0
 7914 00a2 0000      		.word	0
 7915 00a4 0000      		.word	0
 7916 00a6 0000      		.word	0
 7917 00a8 0000      		.word	0
 7918 00aa 0000      		.word	0
 7919 00ac 0000      		.word	0
 7920 00ae 0000      		.word	0
 7921 00b0 0000      		.word	0
 7922 00b2 0000      		.word	0
 7923 00b4 0000      		.word	0
 7924 00b6 0000      		.word	0
 7925 00b8 0000      		.word	0
 7926 00ba 0000      		.word	0
 7927 00bc 0000      		.word	0
 7928 00be 0000      		.word	0
 7929 00c0 0000      		.word	0
 7930 00c2 0000      		.word	0
 7931 00c4 0000      		.word	0
 7932 00c6 0000      		.word	0
 7933 00c8 0000      		.word	0
 7934 00ca 0000      		.word	0
 7935 00cc 0000      		.word	0
 7936 00ce 0000      		.word	0
 7937 00d0 0000      		.word	0
 7938 00d2 0000      		.word	0
 7939 00d4 0000      		.word	0
 7940 00d6 0000      		.word	0
 7941 00d8 0000      		.word	0
 7942 00da 0000      		.word	0
 7943 00dc 0000      		.word	0
 7944 00de 0000      		.word	0
 7945 00e0 0000      		.word	0
 7946 00e2 0100      		.word	1
 7947 00e4 0100      		.word	1
 7948 00e6 0000      		.word	0
 7949 00e8 0000      		.word	0
 7950 00ea 0000      		.word	0
 7951 00ec 0000      		.word	0
 7952 00ee 0000      		.word	0
 7953 00f0 0000      		.word	0
 7954 00f2 0000      		.word	0
 7955 00f4 0000      		.word	0
 7956 00f6 0000      		.word	0
 7957 00f8 0000      		.word	0
 7958 00fa 0000      		.word	0
 7959 00fc 0000      		.word	0
 7960 00fe 0000      		.word	0
 7961 0100 0000      		.word	0
 7962 0102 0000      		.word	0
 7963 0104 0000      		.word	0
 7964 0106 0000      		.word	0
 7965 0108 0000      		.word	0
 7966 010a 0000      		.word	0
 7967 010c 0000      		.word	0
 7968 010e 0000      		.word	0
 7969 0110 0000      		.word	0
 7970 0112 0000      		.word	0
 7971 0114 0000      		.word	0
 7972 0116 0000      		.word	0
 7973 0118 0000      		.word	0
 7974 011a 0000      		.word	0
 7975 011c 0000      		.word	0
 7976 011e 0000      		.word	0
 7977 0120 0000      		.word	0
 7978 0122 0100      		.word	1
 7979 0124 0000      		.word	0
 7980 0126 0000      		.word	0
 7981 0128 0000      		.word	0
 7982 012a 0000      		.word	0
 7983 012c 0100      		.word	1
 7984 012e 0000      		.word	0
 7985 0130 0000      		.word	0
 7986 0132 0000      		.word	0
 7987 0134 0000      		.word	0
 7988 0136 0000      		.word	0
 7989 0138 0000      		.word	0
 7990 013a 0000      		.word	0
 7991 013c 0000      		.word	0
 7992 013e 0000      		.word	0
 7993 0140 0000      		.word	0
 7994 0142 0000      		.word	0
 7995 0144 0000      		.word	0
 7996 0146 0000      		.word	0
 7997 0148 0000      		.word	0
 7998 014a 0000      		.word	0
 7999 014c 0000      		.word	0
 8000 014e 0000      		.word	0
 8001 0150 0000      		.word	0
 8002 0152 0000      		.word	0
 8003 0154 0000      		.word	0
 8004 0156 0000      		.word	0
 8005 0158 0000      		.word	0
 8006 015a 0000      		.word	0
 8007 015c 0000      		.word	0
 8008 015e 0000      		.word	0
 8009 0160 0000      		.word	0
 8010 0162 0000      		.word	0
 8011 0164 0000      		.word	0
 8012 0166 0000      		.word	0
 8013 0168 0000      		.word	0
 8014 016a 0000      		.word	0
 8015 016c 0000      		.word	0
 8016 016e 0000      		.word	0
 8017 0170 0000      		.word	0
 8018 0172 0000      		.word	0
 8019 0174 0000      		.word	0
 8020 0176 0000      		.word	0
 8021 0178 0000      		.word	0
 8022 017a 0000      		.word	0
 8023 017c 0100      		.word	1
 8024 017e 0000      		.word	0
 8026               		.section	.progmem.data.pubKeyA_12289_512,"a"
 8029               	pubKeyA_12289_512:
 8030 0000 EE2A      		.word	10990
 8031 0002 6115      		.word	5473
 8032 0004 372F      		.word	12087
 8033 0006 5D0A      		.word	2653
 8034 0008 7E02      		.word	638
 8035 000a E308      		.word	2275
 8036 000c 4204      		.word	1090
 8037 000e 0E01      		.word	270
 8038 0010 220D      		.word	3362
 8039 0012 DE06      		.word	1758
 8040 0014 0D1F      		.word	7949
 8041 0016 5F27      		.word	10079
 8042 0018 5D1F      		.word	8029
 8043 001a 1726      		.word	9751
 8044 001c 8B1B      		.word	7051
 8045 001e C306      		.word	1731
 8046 0020 C919      		.word	6601
 8047 0022 911D      		.word	7569
 8048 0024 5711      		.word	4439
 8049 0026 0A2E      		.word	11786
 8050 0028 3629      		.word	10550
 8051 002a DC2D      		.word	11740
 8052 002c 712F      		.word	12145
 8053 002e FE05      		.word	1534
 8054 0030 FE2C      		.word	11518
 8055 0032 4103      		.word	833
 8056 0034 C60C      		.word	3270
 8057 0036 5307      		.word	1875
 8058 0038 9811      		.word	4504
 8059 003a FA2B      		.word	11258
 8060 003c 8A0B      		.word	2954
 8061 003e A603      		.word	934
 8062 0040 7522      		.word	8821
 8063 0042 1A04      		.word	1050
 8064 0044 6A1D      		.word	7530
 8065 0046 A50C      		.word	3237
 8066 0048 4807      		.word	1864
 8067 004a CF25      		.word	9679
 8068 004c C117      		.word	6081
 8069 004e 4326      		.word	9795
 8070 0050 7F07      		.word	1919
 8071 0052 D32A      		.word	10963
 8072 0054 5E0D      		.word	3422
 8073 0056 990D      		.word	3481
 8074 0058 932F      		.word	12179
 8075 005a E225      		.word	9698
 8076 005c CA26      		.word	9930
 8077 005e F12A      		.word	10993
 8078 0060 0010      		.word	4096
 8079 0062 E40A      		.word	2788
 8080 0064 C210      		.word	4290
 8081 0066 6508      		.word	2149
 8082 0068 E91C      		.word	7401
 8083 006a 0A22      		.word	8714
 8084 006c F923      		.word	9209
 8085 006e 171D      		.word	7447
 8086 0070 3B23      		.word	9019
 8087 0072 A016      		.word	5792
 8088 0074 6A2E      		.word	11882
 8089 0076 AF20      		.word	8367
 8090 0078 222E      		.word	11810
 8091 007a D109      		.word	2513
 8092 007c 5A1B      		.word	7002
 8093 007e 4000      		.word	64
 8094 0080 A20F      		.word	4002
 8095 0082 4722      		.word	8775
 8096 0084 6712      		.word	4711
 8097 0086 B916      		.word	5817
 8098 0088 7302      		.word	627
 8099 008a 482B      		.word	11080
 8100 008c C81D      		.word	7624
 8101 008e FC12      		.word	4860
 8102 0090 370F      		.word	3895
 8103 0092 B80D      		.word	3512
 8104 0094 550D      		.word	3413
 8105 0096 DA1A      		.word	6874
 8106 0098 3926      		.word	9785
 8107 009a AE10      		.word	4270
 8108 009c CC04      		.word	1228
 8109 009e AE07      		.word	1966
 8110 00a0 FB00      		.word	251
 8111 00a2 481C      		.word	7240
 8112 00a4 E51A      		.word	6885
 8113 00a6 3814      		.word	5176
 8114 00a8 1320      		.word	8211
 8115 00aa 8625      		.word	9606
 8116 00ac F126      		.word	9969
 8117 00ae 6926      		.word	9833
 8118 00b0 7502      		.word	629
 8119 00b2 EB13      		.word	5099
 8120 00b4 A00A      		.word	2720
 8121 00b6 F30B      		.word	3059
 8122 00b8 B91D      		.word	7609
 8123 00ba 0913      		.word	4873
 8124 00bc 0209      		.word	2306
 8125 00be E01E      		.word	7904
 8126 00c0 FC1F      		.word	8188
 8127 00c2 7716      		.word	5751
 8128 00c4 C01F      		.word	8128
 8129 00c6 1F0A      		.word	2591
 8130 00c8 771E      		.word	7799
 8131 00ca 9107      		.word	1937
 8132 00cc 2221      		.word	8482
 8133 00ce 2128      		.word	10273
 8134 00d0 541F      		.word	8020
 8135 00d2 4922      		.word	8777
 8136 00d4 1415      		.word	5396
 8137 00d6 B205      		.word	1458
 8138 00d8 1D28      		.word	10269
 8139 00da 6505      		.word	1381
 8140 00dc 6900      		.word	105
 8141 00de 0526      		.word	9733
 8142 00e0 1C00      		.word	28
 8143 00e2 EE2C      		.word	11502
 8144 00e4 1810      		.word	4120
 8145 00e6 9608      		.word	2198
 8146 00e8 C92B      		.word	11209
 8147 00ea B901      		.word	441
 8148 00ec 5B06      		.word	1627
 8149 00ee CA29      		.word	10698
 8150 00f0 2422      		.word	8740
 8151 00f2 C71F      		.word	8135
 8152 00f4 A007      		.word	1952
 8153 00f6 6213      		.word	4962
 8154 00f8 C427      		.word	10180
 8155 00fa 2E21      		.word	8494
 8156 00fc 3504      		.word	1077
 8157 00fe 8218      		.word	6274
 8158 0100 572F      		.word	12119
 8159 0102 A703      		.word	935
 8160 0104 4223      		.word	9026
 8161 0106 0D09      		.word	2317
 8162 0108 CA1B      		.word	7114
 8163 010a 601C      		.word	7264
 8164 010c BE1E      		.word	7870
 8165 010e 7F01      		.word	383
 8166 0110 6A00      		.word	106
 8167 0112 7F23      		.word	9087
 8168 0114 5313      		.word	4947
 8169 0116 F619      		.word	6646
 8170 0118 142B      		.word	11028
 8171 011a 990A      		.word	2713
 8172 011c 8C1F      		.word	8076
 8173 011e F624      		.word	9462
 8174 0120 6B27      		.word	10091
 8175 0122 DD28      		.word	10461
 8176 0124 5A15      		.word	5466
 8177 0126 1201      		.word	274
 8178 0128 D907      		.word	2009
 8179 012a 2027      		.word	10016
 8180 012c 7A0C      		.word	3194
 8181 012e 631F      		.word	8035
 8182 0130 F40E      		.word	3828
 8183 0132 D02E      		.word	11984
 8184 0134 3B04      		.word	1083
 8185 0136 9C29      		.word	10652
 8186 0138 7108      		.word	2161
 8187 013a F522      		.word	8949
 8188 013c 0E2A      		.word	10766
 8189 013e 6B2F      		.word	12139
 8190 0140 531C      		.word	7251
 8191 0142 1A1E      		.word	7706
 8192 0144 AC0C      		.word	3244
 8193 0146 662F      		.word	12134
 8194 0148 1906      		.word	1561
 8195 014a 281C      		.word	7208
 8196 014c C508      		.word	2245
 8197 014e 0A07      		.word	1802
 8198 0150 C11B      		.word	7105
 8199 0152 D613      		.word	5078
 8200 0154 D21D      		.word	7634
 8201 0156 490A      		.word	2633
 8202 0158 1E01      		.word	286
 8203 015a 3112      		.word	4657
 8204 015c 5606      		.word	1622
 8205 015e 962E      		.word	11926
 8206 0160 072F      		.word	12039
 8207 0162 3320      		.word	8243
 8208 0164 6025      		.word	9568
 8209 0166 E604      		.word	1254
 8210 0168 711B      		.word	7025
 8211 016a 3005      		.word	1328
 8212 016c 6A0A      		.word	2666
 8213 016e 8001      		.word	384
 8214 0170 6A25      		.word	9578
 8215 0172 981F      		.word	8088
 8216 0174 3506      		.word	1589
 8217 0176 7611      		.word	4470
 8218 0178 6C22      		.word	8812
 8219 017a 750B      		.word	2933
 8220 017c A62F      		.word	12198
 8221 017e BE12      		.word	4798
 8222 0180 B42C      		.word	11444
 8223 0182 D60B      		.word	3030
 8224 0184 C611      		.word	4550
 8225 0186 CE14      		.word	5326
 8226 0188 160F      		.word	3862
 8227 018a 2F13      		.word	4911
 8228 018c 7704      		.word	1143
 8229 018e D509      		.word	2517
 8230 0190 B320      		.word	8371
 8231 0192 B72A      		.word	10935
 8232 0194 4917      		.word	5961
 8233 0196 3B23      		.word	9019
 8234 0198 9010      		.word	4240
 8235 019a 7F1F      		.word	8063
 8236 019c B012      		.word	4784
 8237 019e 3908      		.word	2105
 8238 01a0 790F      		.word	3961
 8239 01a2 7710      		.word	4215
 8240 01a4 961B      		.word	7062
 8241 01a6 CD1A      		.word	6861
 8242 01a8 B210      		.word	4274
 8243 01aa 061C      		.word	7174
 8244 01ac DC2B      		.word	11228
 8245 01ae CC03      		.word	972
 8246 01b0 4007      		.word	1856
 8247 01b2 5F21      		.word	8543
 8248 01b4 6912      		.word	4713
 8249 01b6 070A      		.word	2567
 8250 01b8 082C      		.word	11272
 8251 01ba E108      		.word	2273
 8252 01bc 312E      		.word	11825
 8253 01be D415      		.word	5588
 8254 01c0 9F1A      		.word	6815
 8255 01c2 1A0F      		.word	3866
 8256 01c4 951F      		.word	8085
 8257 01c6 F517      		.word	6133
 8258 01c8 741C      		.word	7284
 8259 01ca 8220      		.word	8322
 8260 01cc CF16      		.word	5839
 8261 01ce D005      		.word	1488
 8262 01d0 4C2C      		.word	11340
 8263 01d2 8C1B      		.word	7052
 8264 01d4 D90A      		.word	2777
 8265 01d6 1D13      		.word	4893
 8266 01d8 7D13      		.word	4989
 8267 01da 0702      		.word	519
 8268 01dc 0219      		.word	6402
 8269 01de E224      		.word	9442
 8270 01e0 2C2E      		.word	11820
 8271 01e2 0B2A      		.word	10763
 8272 01e4 6D26      		.word	9837
 8273 01e6 CB2C      		.word	11467
 8274 01e8 5006      		.word	1616
 8275 01ea 0B07      		.word	1803
 8276 01ec 8929      		.word	10633
 8277 01ee 120E      		.word	3602
 8278 01f0 6320      		.word	8291
 8279 01f2 8A2E      		.word	11914
 8280 01f4 720E      		.word	3698
 8281 01f6 0F0A      		.word	2575
 8282 01f8 C214      		.word	5314
 8283 01fa B914      		.word	5305
 8284 01fc 0417      		.word	5892
 8285 01fe 5228      		.word	10322
 8286 0200 2726      		.word	9767
 8287 0202 4023      		.word	9024
 8288 0204 1D2A      		.word	10781
 8289 0206 4426      		.word	9796
 8290 0208 DF12      		.word	4831
 8291 020a CA1E      		.word	7882
 8292 020c F42A      		.word	10996
 8293 020e 8A1F      		.word	8074
 8294 0210 BB04      		.word	1211
 8295 0212 4D24      		.word	9293
 8296 0214 8F15      		.word	5519
 8297 0216 1C10      		.word	4124
 8298 0218 7326      		.word	9843
 8299 021a 560E      		.word	3670
 8300 021c 8327      		.word	10115
 8301 021e 9019      		.word	6544
 8302 0220 AE2F      		.word	12206
 8303 0222 2628      		.word	10278
 8304 0224 2C0E      		.word	3628
 8305 0226 6221      		.word	8546
 8306 0228 B411      		.word	4532
 8307 022a E020      		.word	8416
 8308 022c D522      		.word	8917
 8309 022e E614      		.word	5350
 8310 0230 BF01      		.word	447
 8311 0232 5B08      		.word	2139
 8312 0234 5F2B      		.word	11103
 8313 0236 8B0A      		.word	2699
 8314 0238 CD03      		.word	973
 8315 023a 8201      		.word	386
 8316 023c E21B      		.word	7138
 8317 023e 050D      		.word	3333
 8318 0240 0A0C      		.word	3082
 8319 0242 A117      		.word	6049
 8320 0244 7701      		.word	375
 8321 0246 AC1E      		.word	7852
 8322 0248 6425      		.word	9572
 8323 024a 5307      		.word	1875
 8324 024c 9D29      		.word	10653
 8325 024e DF0E      		.word	3807
 8326 0250 180A      		.word	2584
 8327 0252 6D15      		.word	5485
 8328 0254 F70B      		.word	3063
 8329 0256 9221      		.word	8594
 8330 0258 7A1D      		.word	7546
 8331 025a 4614      		.word	5190
 8332 025c 3920      		.word	8249
 8333 025e 9D02      		.word	669
 8334 0260 5F07      		.word	1887
 8335 0262 6A26      		.word	9834
 8336 0264 FD19      		.word	6653
 8337 0266 562D      		.word	11606
 8338 0268 0314      		.word	5123
 8339 026a 7605      		.word	1398
 8340 026c DB0A      		.word	2779
 8341 026e C806      		.word	1736
 8342 0270 D209      		.word	2514
 8343 0272 7304      		.word	1139
 8344 0274 D806      		.word	1752
 8345 0276 4616      		.word	5702
 8346 0278 D22A      		.word	10962
 8347 027a 5B15      		.word	5467
 8348 027c 011C      		.word	7169
 8349 027e FE2D      		.word	11774
 8350 0280 CA06      		.word	1738
 8351 0282 8524      		.word	9349
 8352 0284 C516      		.word	5829
 8353 0286 7809      		.word	2424
 8354 0288 8801      		.word	392
 8355 028a CE12      		.word	4814
 8356 028c 7113      		.word	4977
 8357 028e B31C      		.word	7347
 8358 0290 1600      		.word	22
 8359 0292 0123      		.word	8961
 8360 0294 D40A      		.word	2772
 8361 0296 0408      		.word	2052
 8362 0298 9513      		.word	5013
 8363 029a A303      		.word	931
 8364 029c 8B2F      		.word	12171
 8365 029e FD05      		.word	1533
 8366 02a0 DE12      		.word	4830
 8367 02a2 ED02      		.word	749
 8368 02a4 5F04      		.word	1119
 8369 02a6 A729      		.word	10663
 8370 02a8 0405      		.word	1284
 8371 02aa 7E1B      		.word	7038
 8372 02ac 301C      		.word	7216
 8373 02ae 0009      		.word	2304
 8374 02b0 CB0D      		.word	3531
 8375 02b2 D910      		.word	4313
 8376 02b4 AC27      		.word	10156
 8377 02b6 8504      		.word	1157
 8378 02b8 A00E      		.word	3744
 8379 02ba B82F      		.word	12216
 8380 02bc 5A14      		.word	5210
 8381 02be 9018      		.word	6288
 8382 02c0 1508      		.word	2069
 8383 02c2 0F2A      		.word	10767
 8384 02c4 8A26      		.word	9866
 8385 02c6 142A      		.word	10772
 8386 02c8 F90B      		.word	3065
 8387 02ca 121C      		.word	7186
 8388 02cc 2A24      		.word	9258
 8389 02ce 7D0A      		.word	2685
 8390 02d0 6B16      		.word	5739
 8391 02d2 7C11      		.word	4476
 8392 02d4 D502      		.word	725
 8393 02d6 D811      		.word	4568
 8394 02d8 811B      		.word	7041
 8395 02da 322B      		.word	11058
 8396 02dc A214      		.word	5282
 8397 02de D81F      		.word	8152
 8398 02e0 0C15      		.word	5388
 8399 02e2 DD1B      		.word	7133
 8400 02e4 8702      		.word	647
 8401 02e6 032A      		.word	10755
 8402 02e8 9E2C      		.word	11422
 8403 02ea 862B      		.word	11142
 8404 02ec 5409      		.word	2388
 8405 02ee 5D26      		.word	9821
 8406 02f0 1005      		.word	1296
 8407 02f2 F60D      		.word	3574
 8408 02f4 1F28      		.word	10271
 8409 02f6 CF2E      		.word	11983
 8410 02f8 F70A      		.word	2807
 8411 02fa F127      		.word	10225
 8412 02fc E215      		.word	5602
 8413 02fe 832F      		.word	12163
 8414 0300 822C      		.word	11394
 8415 0302 8E0C      		.word	3214
 8416 0304 4411      		.word	4420
 8417 0306 DB16      		.word	5851
 8418 0308 F310      		.word	4339
 8419 030a 7B1C      		.word	7291
 8420 030c 5B20      		.word	8283
 8421 030e CF0D      		.word	3535
 8422 0310 092A      		.word	10761
 8423 0312 212C      		.word	11297
 8424 0314 DD0B      		.word	3037
 8425 0316 E424      		.word	9444
 8426 0318 C42B      		.word	11204
 8427 031a E326      		.word	9955
 8428 031c 8205      		.word	1410
 8429 031e 0008      		.word	2048
 8430 0320 641F      		.word	8036
 8431 0322 261A      		.word	6694
 8432 0324 0C09      		.word	2316
 8433 0326 3409      		.word	2356
 8434 0328 3415      		.word	5428
 8435 032a 8A2C      		.word	11402
 8436 032c 372C      		.word	11319
 8437 032e 3D28      		.word	10301
 8438 0330 9815      		.word	5528
 8439 0332 F114      		.word	5361
 8440 0334 9C0E      		.word	3740
 8441 0336 A31A      		.word	6819
 8442 0338 EB21      		.word	8683
 8443 033a BE0A      		.word	2750
 8444 033c 8128      		.word	10369
 8445 033e F715      		.word	5623
 8446 0340 8E0D      		.word	3470
 8447 0342 9F24      		.word	9375
 8448 0344 720C      		.word	3186
 8449 0346 3B1F      		.word	7995
 8450 0348 C01B      		.word	7104
 8451 034a 452E      		.word	11845
 8452 034c AD07      		.word	1965
 8453 034e 3D23      		.word	9021
 8454 0350 C128      		.word	10433
 8455 0352 5125      		.word	9553
 8456 0354 A816      		.word	5800
 8457 0356 3100      		.word	49
 8458 0358 7A0E      		.word	3706
 8459 035a 6D1F      		.word	8045
 8460 035c 1919      		.word	6425
 8461 035e 590A      		.word	2649
 8462 0360 9B17      		.word	6043
 8463 0362 C508      		.word	2245
 8464 0364 C916      		.word	5833
 8465 0366 EC1F      		.word	8172
 8466 0368 2F0A      		.word	2607
 8467 036a CB25      		.word	9675
 8468 036c 2001      		.word	288
 8469 036e 8323      		.word	9091
 8470 0370 9A0D      		.word	3482
 8471 0372 8402      		.word	644
 8472 0374 6F06      		.word	1647
 8473 0376 0D17      		.word	5901
 8474 0378 462A      		.word	10822
 8475 037a C81F      		.word	8136
 8476 037c BD07      		.word	1981
 8477 037e 142B      		.word	11028
 8478 0380 7524      		.word	9333
 8479 0382 4B0F      		.word	3915
 8480 0384 1D28      		.word	10269
 8481 0386 0E0F      		.word	3854
 8482 0388 A91C      		.word	7337
 8483 038a B92C      		.word	11449
 8484 038c A221      		.word	8610
 8485 038e 0A28      		.word	10250
 8486 0390 560D      		.word	3414
 8487 0392 4008      		.word	2112
 8488 0394 0D0B      		.word	2829
 8489 0396 EF08      		.word	2287
 8490 0398 3917      		.word	5945
 8491 039a 0704      		.word	1031
 8492 039c A70E      		.word	3751
 8493 039e 0419      		.word	6404
 8494 03a0 1106      		.word	1553
 8495 03a2 7008      		.word	2160
 8496 03a4 2405      		.word	1316
 8497 03a6 8E16      		.word	5774
 8498 03a8 A40A      		.word	2724
 8499 03aa 472B      		.word	11079
 8500 03ac E626      		.word	9958
 8501 03ae 4608      		.word	2118
 8502 03b0 A112      		.word	4769
 8503 03b2 830F      		.word	3971
 8504 03b4 8109      		.word	2433
 8505 03b6 C52F      		.word	12229
 8506 03b8 4C0B      		.word	2892
 8507 03ba 660C      		.word	3174
 8508 03bc C620      		.word	8390
 8509 03be 1E2B      		.word	11038
 8510 03c0 ED23      		.word	9197
 8511 03c2 B503      		.word	949
 8512 03c4 0A11      		.word	4362
 8513 03c6 B629      		.word	10678
 8514 03c8 C30F      		.word	4035
 8515 03ca 0913      		.word	4873
 8516 03cc 8624      		.word	9350
 8517 03ce 7A13      		.word	4986
 8518 03d0 5803      		.word	856
 8519 03d2 1D10      		.word	4125
 8520 03d4 4429      		.word	10564
 8521 03d6 901C      		.word	7312
 8522 03d8 0003      		.word	768
 8523 03da DD10      		.word	4317
 8524 03dc 8D10      		.word	4237
 8525 03de 1F14      		.word	5151
 8526 03e0 052E      		.word	11781
 8527 03e2 4D0F      		.word	3917
 8528 03e4 E800      		.word	232
 8529 03e6 4E27      		.word	10062
 8530 03e8 CD16      		.word	5837
 8531 03ea 540B      		.word	2900
 8532 03ec 322A      		.word	10802
 8533 03ee 3923      		.word	9017
 8534 03f0 5521      		.word	8533
 8535 03f2 EA13      		.word	5098
 8536 03f4 3A11      		.word	4410
 8537 03f6 352A      		.word	10805
 8538 03f8 180E      		.word	3608
 8539 03fa 7D0F      		.word	3965
 8540 03fc 2A22      		.word	8746
 8541 03fe 5A1D      		.word	7514
 8543               		.section	.progmem.data.pubKeyP_12289_512,"a"
 8546               	pubKeyP_12289_512:
 8547 0000 F01A      		.word	6896
 8548 0002 8D20      		.word	8333
 8549 0004 3E1C      		.word	7230
 8550 0006 5A2C      		.word	11354
 8551 0008 9D14      		.word	5277
 8552 000a D110      		.word	4305
 8553 000c F62C      		.word	11510
 8554 000e 2F22      		.word	8751
 8555 0010 7C0A      		.word	2684
 8556 0012 FE0C      		.word	3326
 8557 0014 9E21      		.word	8606
 8558 0016 3F27      		.word	10047
 8559 0018 E81F      		.word	8168
 8560 001a 440A      		.word	2628
 8561 001c 6C2C      		.word	11372
 8562 001e 1E26      		.word	9758
 8563 0020 BF04      		.word	1215
 8564 0022 7B01      		.word	379
 8565 0024 B20A      		.word	2738
 8566 0026 2B01      		.word	299
 8567 0028 6B28      		.word	10347
 8568 002a 6E13      		.word	4974
 8569 002c 4F0C      		.word	3151
 8570 002e B109      		.word	2481
 8571 0030 0A2E      		.word	11786
 8572 0032 D208      		.word	2258
 8573 0034 F024      		.word	9456
 8574 0036 3B0B      		.word	2875
 8575 0038 5418      		.word	6228
 8576 003a 5C12      		.word	4700
 8577 003c 781B      		.word	7032
 8578 003e 330E      		.word	3635
 8579 0040 DF29      		.word	10719
 8580 0042 D714      		.word	5335
 8581 0044 C011      		.word	4544
 8582 0046 B912      		.word	4793
 8583 0048 AE1E      		.word	7854
 8584 004a 281F      		.word	7976
 8585 004c 4F22      		.word	8783
 8586 004e 1A1C      		.word	7194
 8587 0050 A905      		.word	1449
 8588 0052 AA0E      		.word	3754
 8589 0054 FD09      		.word	2557
 8590 0056 5E04      		.word	1118
 8591 0058 3316      		.word	5683
 8592 005a A503      		.word	933
 8593 005c 6C27      		.word	10092
 8594 005e 5906      		.word	1625
 8595 0060 2B1E      		.word	7723
 8596 0062 1801      		.word	280
 8597 0064 1D01      		.word	285
 8598 0066 152D      		.word	11541
 8599 0068 E00C      		.word	3296
 8600 006a 311C      		.word	7217
 8601 006c F113      		.word	5105
 8602 006e F81C      		.word	7416
 8603 0070 AF06      		.word	1711
 8604 0072 701D      		.word	7536
 8605 0074 0C1B      		.word	6924
 8606 0076 5D2D      		.word	11613
 8607 0078 3718      		.word	6199
 8608 007a 9E12      		.word	4766
 8609 007c EE02      		.word	750
 8610 007e B71A      		.word	6839
 8611 0080 8E1C      		.word	7310
 8612 0082 7827      		.word	10104
 8613 0084 DC25      		.word	9692
 8614 0086 FE25      		.word	9726
 8615 0088 5216      		.word	5714
 8616 008a BC2E      		.word	11964
 8617 008c 3D06      		.word	1597
 8618 008e 4F20      		.word	8271
 8619 0090 600C      		.word	3168
 8620 0092 B703      		.word	951
 8621 0094 8D25      		.word	9613
 8622 0096 F11A      		.word	6897
 8623 0098 F90C      		.word	3321
 8624 009a F506      		.word	1781
 8625 009c 3414      		.word	5172
 8626 009e 262B      		.word	11046
 8627 00a0 262D      		.word	11558
 8628 00a2 E604      		.word	1254
 8629 00a4 C90E      		.word	3785
 8630 00a6 5218      		.word	6226
 8631 00a8 202A      		.word	10784
 8632 00aa 1A2F      		.word	12058
 8633 00ac E410      		.word	4324
 8634 00ae 4F0A      		.word	2639
 8635 00b0 F327      		.word	10227
 8636 00b2 4F2D      		.word	11599
 8637 00b4 6128      		.word	10337
 8638 00b6 D413      		.word	5076
 8639 00b8 8B21      		.word	8587
 8640 00ba D325      		.word	9683
 8641 00bc 5027      		.word	10064
 8642 00be E91C      		.word	7401
 8643 00c0 B828      		.word	10424
 8644 00c2 402F      		.word	12096
 8645 00c4 DC09      		.word	2524
 8646 00c6 CE1B      		.word	7118
 8647 00c8 E414      		.word	5348
 8648 00ca 5F19      		.word	6495
 8649 00cc 3109      		.word	2353
 8650 00ce DF11      		.word	4575
 8651 00d0 6F17      		.word	5999
 8652 00d2 4724      		.word	9287
 8653 00d4 BC25      		.word	9660
 8654 00d6 2B14      		.word	5163
 8655 00d8 131D      		.word	7443
 8656 00da 5F05      		.word	1375
 8657 00dc C226      		.word	9922
 8658 00de 2724      		.word	9255
 8659 00e0 E01E      		.word	7904
 8660 00e2 F029      		.word	10736
 8661 00e4 6217      		.word	5986
 8662 00e6 372D      		.word	11575
 8663 00e8 8019      		.word	6528
 8664 00ea BF11      		.word	4543
 8665 00ec 9922      		.word	8857
 8666 00ee A503      		.word	933
 8667 00f0 D50A      		.word	2773
 8668 00f2 D70E      		.word	3799
 8669 00f4 500D      		.word	3408
 8670 00f6 650E      		.word	3685
 8671 00f8 5829      		.word	10584
 8672 00fa 5C06      		.word	1628
 8673 00fc A200      		.word	162
 8674 00fe 9113      		.word	5009
 8675 0100 510F      		.word	3921
 8676 0102 0C17      		.word	5900
 8677 0104 A31D      		.word	7587
 8678 0106 1425      		.word	9492
 8679 0108 1E0E      		.word	3614
 8680 010a 7F1F      		.word	8063
 8681 010c FB1F      		.word	8187
 8682 010e F42F      		.word	12276
 8683 0110 0310      		.word	4099
 8684 0112 AA03      		.word	938
 8685 0114 E516      		.word	5861
 8686 0116 1A1C      		.word	7194
 8687 0118 6118      		.word	6241
 8688 011a D418      		.word	6356
 8689 011c 050C      		.word	3077
 8690 011e 7306      		.word	1651
 8691 0120 D20F      		.word	4050
 8692 0122 3A11      		.word	4410
 8693 0124 5418      		.word	6228
 8694 0126 410F      		.word	3905
 8695 0128 110D      		.word	3345
 8696 012a 792C      		.word	11385
 8697 012c E012      		.word	4832
 8698 012e 6404      		.word	1124
 8699 0130 3F28      		.word	10303
 8700 0132 7025      		.word	9584
 8701 0134 DB08      		.word	2267
 8702 0136 EF17      		.word	6127
 8703 0138 C71A      		.word	6855
 8704 013a 0719      		.word	6407
 8705 013c EB2E      		.word	12011
 8706 013e 892A      		.word	10889
 8707 0140 6202      		.word	610
 8708 0142 3C27      		.word	10044
 8709 0144 F028      		.word	10480
 8710 0146 C92E      		.word	11977
 8711 0148 4626      		.word	9798
 8712 014a 5710      		.word	4183
 8713 014c 0521      		.word	8453
 8714 014e 330D      		.word	3379
 8715 0150 5F19      		.word	6495
 8716 0152 D525      		.word	9685
 8717 0154 620A      		.word	2658
 8718 0156 AA1A      		.word	6826
 8719 0158 EF0E      		.word	3823
 8720 015a 2C1B      		.word	6956
 8721 015c 792C      		.word	11385
 8722 015e 4725      		.word	9543
 8723 0160 2E09      		.word	2350
 8724 0162 D102      		.word	721
 8725 0164 E32A      		.word	10979
 8726 0166 4303      		.word	835
 8727 0168 E122      		.word	8929
 8728 016a E012      		.word	4832
 8729 016c 9417      		.word	6036
 8730 016e C028      		.word	10432
 8731 0170 E610      		.word	4326
 8732 0172 3B0E      		.word	3643
 8733 0174 B92A      		.word	10937
 8734 0176 0512      		.word	4613
 8735 0178 E811      		.word	4584
 8736 017a F428      		.word	10484
 8737 017c C604      		.word	1222
 8738 017e 4012      		.word	4672
 8739 0180 210C      		.word	3105
 8740 0182 F207      		.word	2034
 8741 0184 5223      		.word	9042
 8742 0186 F311      		.word	4595
 8743 0188 EC1A      		.word	6892
 8744 018a 182A      		.word	10776
 8745 018c E802      		.word	744
 8746 018e AE0F      		.word	4014
 8747 0190 461A      		.word	6726
 8748 0192 4C1A      		.word	6732
 8749 0194 5D22      		.word	8797
 8750 0196 641D      		.word	7524
 8751 0198 4F2E      		.word	11855
 8752 019a 6A08      		.word	2154
 8753 019c 9324      		.word	9363
 8754 019e 8E04      		.word	1166
 8755 01a0 9308      		.word	2195
 8756 01a2 DA2B      		.word	11226
 8757 01a4 0B1A      		.word	6667
 8758 01a6 3502      		.word	565
 8759 01a8 E22B      		.word	11234
 8760 01aa D92F      		.word	12249
 8761 01ac 2713      		.word	4903
 8762 01ae B112      		.word	4785
 8763 01b0 DC0F      		.word	4060
 8764 01b2 232A      		.word	10787
 8765 01b4 E51D      		.word	7653
 8766 01b6 7924      		.word	9337
 8767 01b8 880A      		.word	2696
 8768 01ba 331F      		.word	7987
 8769 01bc C32E      		.word	11971
 8770 01be DF17      		.word	6111
 8771 01c0 A413      		.word	5028
 8772 01c2 4A0B      		.word	2890
 8773 01c4 990C      		.word	3225
 8774 01c6 9E2A      		.word	10910
 8775 01c8 1A06      		.word	1562
 8776 01ca BE02      		.word	702
 8777 01cc EE28      		.word	10478
 8778 01ce D513      		.word	5077
 8779 01d0 062A      		.word	10758
 8780 01d2 4B22      		.word	8779
 8781 01d4 BC1B      		.word	7100
 8782 01d6 DA27      		.word	10202
 8783 01d8 F729      		.word	10743
 8784 01da 7C05      		.word	1404
 8785 01dc 1D03      		.word	797
 8786 01de 4722      		.word	8775
 8787 01e0 E703      		.word	999
 8788 01e2 D324      		.word	9427
 8789 01e4 0B25      		.word	9483
 8790 01e6 6207      		.word	1890
 8791 01e8 EA25      		.word	9706
 8792 01ea CA2E      		.word	11978
 8793 01ec D020      		.word	8400
 8794 01ee D02A      		.word	10960
 8795 01f0 391C      		.word	7225
 8796 01f2 8C15      		.word	5516
 8797 01f4 DC1A      		.word	6876
 8798 01f6 9806      		.word	1688
 8799 01f8 EC01      		.word	492
 8800 01fa 9427      		.word	10132
 8801 01fc 2822      		.word	8744
 8802 01fe A329      		.word	10659
 8803 0200 8111      		.word	4481
 8804 0202 812C      		.word	11393
 8805 0204 6011      		.word	4448
 8806 0206 2B22      		.word	8747
 8807 0208 0D21      		.word	8461
 8808 020a 612F      		.word	12129
 8809 020c CB16      		.word	5835
 8810 020e FC26      		.word	9980
 8811 0210 970D      		.word	3479
 8812 0212 A528      		.word	10405
 8813 0214 A918      		.word	6313
 8814 0216 6621      		.word	8550
 8815 0218 6402      		.word	612
 8816 021a 9713      		.word	5015
 8817 021c 6928      		.word	10345
 8818 021e C01F      		.word	8128
 8819 0220 2222      		.word	8738
 8820 0222 DA0D      		.word	3546
 8821 0224 B72E      		.word	11959
 8822 0226 AE0F      		.word	4014
 8823 0228 4618      		.word	6214
 8824 022a C900      		.word	201
 8825 022c 7801      		.word	376
 8826 022e 4207      		.word	1858
 8827 0230 6B12      		.word	4715
 8828 0232 FC0F      		.word	4092
 8829 0234 E60E      		.word	3814
 8830 0236 DA2E      		.word	11994
 8831 0238 271E      		.word	7719
 8832 023a 320A      		.word	2610
 8833 023c B50A      		.word	2741
 8834 023e B129      		.word	10673
 8835 0240 A62D      		.word	11686
 8836 0242 C814      		.word	5320
 8837 0244 8E0C      		.word	3214
 8838 0246 6B19      		.word	6507
 8839 0248 D402      		.word	724
 8840 024a 012C      		.word	11265
 8841 024c 2800      		.word	40
 8842 024e 080F      		.word	3848
 8843 0250 1707      		.word	1815
 8844 0252 7C16      		.word	5756
 8845 0254 3C15      		.word	5436
 8846 0256 9A28      		.word	10394
 8847 0258 A40D      		.word	3492
 8848 025a 9012      		.word	4752
 8849 025c 2117      		.word	5921
 8850 025e 3100      		.word	49
 8851 0260 6605      		.word	1382
 8852 0262 D01B      		.word	7120
 8853 0264 6F01      		.word	367
 8854 0266 5E02      		.word	606
 8855 0268 AA09      		.word	2474
 8856 026a C629      		.word	10694
 8857 026c E62C      		.word	11494
 8858 026e 6706      		.word	1639
 8859 0270 0B0F      		.word	3851
 8860 0272 242D      		.word	11556
 8861 0274 502E      		.word	11856
 8862 0276 2D14      		.word	5165
 8863 0278 2610      		.word	4134
 8864 027a 7803      		.word	888
 8865 027c BD22      		.word	8893
 8866 027e CD02      		.word	717
 8867 0280 B322      		.word	8883
 8868 0282 8B01      		.word	395
 8869 0284 FA0C      		.word	3322
 8870 0286 F505      		.word	1525
 8871 0288 AE2E      		.word	11950
 8872 028a 6D12      		.word	4717
 8873 028c 1F11      		.word	4383
 8874 028e 7624      		.word	9334
 8875 0290 4628      		.word	10310
 8876 0292 B320      		.word	8371
 8877 0294 E32E      		.word	12003
 8878 0296 4609      		.word	2374
 8879 0298 5E22      		.word	8798
 8880 029a AE1E      		.word	7854
 8881 029c 6501      		.word	357
 8882 029e 3A03      		.word	826
 8883 02a0 AB0A      		.word	2731
 8884 02a2 FE01      		.word	510
 8885 02a4 A507      		.word	1957
 8886 02a6 9929      		.word	10649
 8887 02a8 0B0A      		.word	2571
 8888 02aa 3C2F      		.word	12092
 8889 02ac 521A      		.word	6738
 8890 02ae 5008      		.word	2128
 8891 02b0 611A      		.word	6753
 8892 02b2 6725      		.word	9575
 8893 02b4 202E      		.word	11808
 8894 02b6 8014      		.word	5248
 8895 02b8 D31A      		.word	6867
 8896 02ba 8008      		.word	2176
 8897 02bc B800      		.word	184
 8898 02be B004      		.word	1200
 8899 02c0 932E      		.word	11923
 8900 02c2 3607      		.word	1846
 8901 02c4 CD16      		.word	5837
 8902 02c6 9C10      		.word	4252
 8903 02c8 ED17      		.word	6125
 8904 02ca 8315      		.word	5507
 8905 02cc AA15      		.word	5546
 8906 02ce 1807      		.word	1816
 8907 02d0 550D      		.word	3413
 8908 02d2 A723      		.word	9127
 8909 02d4 3919      		.word	6457
 8910 02d6 C90E      		.word	3785
 8911 02d8 402B      		.word	11072
 8912 02da 6621      		.word	8550
 8913 02dc 3922      		.word	8761
 8914 02de CB2A      		.word	10955
 8915 02e0 8413      		.word	4996
 8916 02e2 5E1A      		.word	6750
 8917 02e4 5D0A      		.word	2653
 8918 02e6 D814      		.word	5336
 8919 02e8 E328      		.word	10467
 8920 02ea AE09      		.word	2478
 8921 02ec F30F      		.word	4083
 8922 02ee 2C0B      		.word	2860
 8923 02f0 9501      		.word	405
 8924 02f2 1120      		.word	8209
 8925 02f4 3C24      		.word	9276
 8926 02f6 0F24      		.word	9231
 8927 02f8 1413      		.word	4884
 8928 02fa 6E0A      		.word	2670
 8929 02fc CD19      		.word	6605
 8930 02fe A416      		.word	5796
 8931 0300 2B1D      		.word	7467
 8932 0302 BF01      		.word	447
 8933 0304 8A21      		.word	8586
 8934 0306 E410      		.word	4324
 8935 0308 0F11      		.word	4367
 8936 030a 5224      		.word	9298
 8937 030c 8002      		.word	640
 8938 030e 7326      		.word	9843
 8939 0310 B617      		.word	6070
 8940 0312 8913      		.word	5001
 8941 0314 8B14      		.word	5259
 8942 0316 0105      		.word	1281
 8943 0318 7D2A      		.word	10877
 8944 031a C113      		.word	5057
 8945 031c DA10      		.word	4314
 8946 031e 8A2B      		.word	11146
 8947 0320 0B20      		.word	8203
 8948 0322 A409      		.word	2468
 8949 0324 0E25      		.word	9486
 8950 0326 E50C      		.word	3301
 8951 0328 3500      		.word	53
 8952 032a 9127      		.word	10129
 8953 032c 250E      		.word	3621
 8954 032e 2B29      		.word	10539
 8955 0330 D311      		.word	4563
 8956 0332 1A1C      		.word	7194
 8957 0334 CD27      		.word	10189
 8958 0336 0A0E      		.word	3594
 8959 0338 3210      		.word	4146
 8960 033a 1211      		.word	4370
 8961 033c C00F      		.word	4032
 8962 033e 6205      		.word	1378
 8963 0340 141A      		.word	6676
 8964 0342 8113      		.word	4993
 8965 0344 3F26      		.word	9791
 8966 0346 F717      		.word	6135
 8967 0348 CA2F      		.word	12234
 8968 034a B90E      		.word	3769
 8969 034c E607      		.word	2022
 8970 034e 7D13      		.word	4989
 8971 0350 9B02      		.word	667
 8972 0352 3615      		.word	5430
 8973 0354 1616      		.word	5654
 8974 0356 A314      		.word	5283
 8975 0358 D821      		.word	8664
 8976 035a E208      		.word	2274
 8977 035c A31E      		.word	7843
 8978 035e D021      		.word	8656
 8979 0360 0C28      		.word	10252
 8980 0362 1F27      		.word	10015
 8981 0364 A106      		.word	1697
 8982 0366 0E16      		.word	5646
 8983 0368 EA06      		.word	1770
 8984 036a C515      		.word	5573
 8985 036c 042A      		.word	10756
 8986 036e 071E      		.word	7687
 8987 0370 E913      		.word	5097
 8988 0372 E220      		.word	8418
 8989 0374 572F      		.word	12119
 8990 0376 0F09      		.word	2319
 8991 0378 1328      		.word	10259
 8992 037a 4B16      		.word	5707
 8993 037c EB19      		.word	6635
 8994 037e 631D      		.word	7523
 8995 0380 9C0A      		.word	2716
 8996 0382 F403      		.word	1012
 8997 0384 8E19      		.word	6542
 8998 0386 1420      		.word	8212
 8999 0388 6100      		.word	97
 9000 038a 761A      		.word	6774
 9001 038c 221E      		.word	7714
 9002 038e 9E1B      		.word	7070
 9003 0390 BC00      		.word	188
 9004 0392 5319      		.word	6483
 9005 0394 3F20      		.word	8255
 9006 0396 3905      		.word	1337
 9007 0398 7323      		.word	9075
 9008 039a 3825      		.word	9528
 9009 039c D62D      		.word	11734
 9010 039e C62A      		.word	10950
 9011 03a0 562F      		.word	12118
 9012 03a2 7401      		.word	372
 9013 03a4 AF28      		.word	10415
 9014 03a6 3E26      		.word	9790
 9015 03a8 F42C      		.word	11508
 9016 03aa 2928      		.word	10281
 9017 03ac B12B      		.word	11185
 9018 03ae 841C      		.word	7300
 9019 03b0 A61E      		.word	7846
 9020 03b2 CC24      		.word	9420
 9021 03b4 C102      		.word	705
 9022 03b6 9E26      		.word	9886
 9023 03b8 6A2C      		.word	11370
 9024 03ba 0502      		.word	517
 9025 03bc 5427      		.word	10068
 9026 03be 6A05      		.word	1386
 9027 03c0 B001      		.word	432
 9028 03c2 DA2B      		.word	11226
 9029 03c4 ED1D      		.word	7661
 9030 03c6 D225      		.word	9682
 9031 03c8 590F      		.word	3929
 9032 03ca 531B      		.word	6995
 9033 03cc 330D      		.word	3379
 9034 03ce 6209      		.word	2402
 9035 03d0 C90A      		.word	2761
 9036 03d2 2429      		.word	10532
 9037 03d4 BB06      		.word	1723
 9038 03d6 FC29      		.word	10748
 9039 03d8 8F21      		.word	8591
 9040 03da A922      		.word	8873
 9041 03dc 090E      		.word	3593
 9042 03de 0105      		.word	1281
 9043 03e0 760D      		.word	3446
 9044 03e2 0E1F      		.word	7950
 9045 03e4 4C15      		.word	5452
 9046 03e6 2228      		.word	10274
 9047 03e8 5427      		.word	10068
 9048 03ea C219      		.word	6594
 9049 03ec 7D04      		.word	1149
 9050 03ee DB25      		.word	9691
 9051 03f0 2F00      		.word	47
 9052 03f2 832D      		.word	11651
 9053 03f4 681F      		.word	8040
 9054 03f6 6F1A      		.word	6767
 9055 03f8 A610      		.word	4262
 9056 03fa 9B01      		.word	411
 9057 03fc 9807      		.word	1944
 9058 03fe C90E      		.word	3785
 9060               		.section	.progmem.data.prvKeyR2_12289_512,"a"
 9063               	prvKeyR2_12289_512:
 9064 0000 7602      		.word	630
 9065 0002 0B03      		.word	779
 9066 0004 3B06      		.word	1595
 9067 0006 2D1C      		.word	7213
 9068 0008 BF2C      		.word	11455
 9069 000a B01A      		.word	6832
 9070 000c CF29      		.word	10703
 9071 000e 2D2E      		.word	11821
 9072 0010 7C2F      		.word	12156
 9073 0012 572D      		.word	11607
 9074 0014 950E      		.word	3733
 9075 0016 1814      		.word	5144
 9076 0018 D60D      		.word	3542
 9077 001a C108      		.word	2241
 9078 001c 1923      		.word	8985
 9079 001e 2519      		.word	6437
 9080 0020 4227      		.word	10050
 9081 0022 C905      		.word	1481
 9082 0024 430E      		.word	3651
 9083 0026 152C      		.word	11285
 9084 0028 831F      		.word	8067
 9085 002a A51D      		.word	7589
 9086 002c 571D      		.word	7511
 9087 002e B80C      		.word	3256
 9088 0030 CC1E      		.word	7884
 9089 0032 0F19      		.word	6415
 9090 0034 2A03      		.word	810
 9091 0036 600C      		.word	3168
 9092 0038 7F1C      		.word	7295
 9093 003a C50E      		.word	3781
 9094 003c B225      		.word	9650
 9095 003e D707      		.word	2007
 9096 0040 C515      		.word	5573
 9097 0042 D32F      		.word	12243
 9098 0044 BB1D      		.word	7611
 9099 0046 BA09      		.word	2490
 9100 0048 AB1F      		.word	8107
 9101 004a C71A      		.word	6855
 9102 004c F323      		.word	9203
 9103 004e BA02      		.word	698
 9104 0050 C326      		.word	9923
 9105 0052 950F      		.word	3989
 9106 0054 A228      		.word	10402
 9107 0056 581C      		.word	7256
 9108 0058 AD04      		.word	1197
 9109 005a 0220      		.word	8194
 9110 005c 1913      		.word	4889
 9111 005e 7A16      		.word	5754
 9112 0060 B428      		.word	10420
 9113 0062 E028      		.word	10464
 9114 0064 E503      		.word	997
 9115 0066 5803      		.word	856
 9116 0068 2019      		.word	6432
 9117 006a DD2D      		.word	11741
 9118 006c 9316      		.word	5779
 9119 006e 3308      		.word	2099
 9120 0070 161F      		.word	7958
 9121 0072 BA15      		.word	5562
 9122 0074 1F16      		.word	5663
 9123 0076 E526      		.word	9957
 9124 0078 DC08      		.word	2268
 9125 007a 370D      		.word	3383
 9126 007c 2905      		.word	1321
 9127 007e B804      		.word	1208
 9128 0080 E900      		.word	233
 9129 0082 9122      		.word	8849
 9130 0084 8F19      		.word	6543
 9131 0086 D301      		.word	467
 9132 0088 8921      		.word	8585
 9133 008a 150A      		.word	2581
 9134 008c 0728      		.word	10247
 9135 008e 6229      		.word	10594
 9136 0090 EE00      		.word	238
 9137 0092 300D      		.word	3376
 9138 0094 A402      		.word	676
 9139 0096 7008      		.word	2160
 9140 0098 F81A      		.word	6904
 9141 009a 1914      		.word	5145
 9142 009c E305      		.word	1507
 9143 009e 6805      		.word	1384
 9144 00a0 EF26      		.word	9967
 9145 00a2 8025      		.word	9600
 9146 00a4 6321      		.word	8547
 9147 00a6 EF2C      		.word	11503
 9148 00a8 9F23      		.word	9119
 9149 00aa 5C1D      		.word	7516
 9150 00ac 9F13      		.word	5023
 9151 00ae 3504      		.word	1077
 9152 00b0 2D0D      		.word	3373
 9153 00b2 7913      		.word	4985
 9154 00b4 7304      		.word	1139
 9155 00b6 5902      		.word	601
 9156 00b8 4223      		.word	9026
 9157 00ba 0612      		.word	4614
 9158 00bc F510      		.word	4341
 9159 00be FF0A      		.word	2815
 9160 00c0 A726      		.word	9895
 9161 00c2 F414      		.word	5364
 9162 00c4 CB03      		.word	971
 9163 00c6 FF22      		.word	8959
 9164 00c8 1E26      		.word	9758
 9165 00ca C009      		.word	2496
 9166 00cc 6922      		.word	8809
 9167 00ce E11B      		.word	7137
 9168 00d0 3517      		.word	5941
 9169 00d2 FA1D      		.word	7674
 9170 00d4 2727      		.word	10023
 9171 00d6 D815      		.word	5592
 9172 00d8 1A0E      		.word	3610
 9173 00da 5214      		.word	5202
 9174 00dc A124      		.word	9377
 9175 00de 8B19      		.word	6539
 9176 00e0 AA02      		.word	682
 9177 00e2 940E      		.word	3732
 9178 00e4 6622      		.word	8806
 9179 00e6 3602      		.word	566
 9180 00e8 2E26      		.word	9774
 9181 00ea 6D28      		.word	10349
 9182 00ec 2C05      		.word	1324
 9183 00ee F11C      		.word	7409
 9184 00f0 080D      		.word	3336
 9185 00f2 0601      		.word	262
 9186 00f4 1E1E      		.word	7710
 9187 00f6 6411      		.word	4452
 9188 00f8 9907      		.word	1945
 9189 00fa 332B      		.word	11059
 9190 00fc 5D01      		.word	349
 9191 00fe 1D16      		.word	5661
 9192 0100 9618      		.word	6294
 9193 0102 BB08      		.word	2235
 9194 0104 2C04      		.word	1068
 9195 0106 AB11      		.word	4523
 9196 0108 9A05      		.word	1434
 9197 010a 6D10      		.word	4205
 9198 010c 1601      		.word	278
 9199 010e 2712      		.word	4647
 9200 0110 9209      		.word	2450
 9201 0112 4709      		.word	2375
 9202 0114 0603      		.word	774
 9203 0116 4C20      		.word	8268
 9204 0118 1A19      		.word	6426
 9205 011a D718      		.word	6359
 9206 011c 5B17      		.word	5979
 9207 011e 1210      		.word	4114
 9208 0120 8B23      		.word	9099
 9209 0122 9E13      		.word	5022
 9210 0124 CF0D      		.word	3535
 9211 0126 1728      		.word	10263
 9212 0128 471C      		.word	7239
 9213 012a 371E      		.word	7735
 9214 012c 9625      		.word	9622
 9215 012e A72D      		.word	11687
 9216 0130 A828      		.word	10408
 9217 0132 EF02      		.word	751
 9218 0134 4221      		.word	8514
 9219 0136 F127      		.word	10225
 9220 0138 162C      		.word	11286
 9221 013a A42A      		.word	10916
 9222 013c 4823      		.word	9032
 9223 013e 6915      		.word	5481
 9224 0140 1D07      		.word	1821
 9225 0142 7519      		.word	6517
 9226 0144 231E      		.word	7715
 9227 0146 940B      		.word	2964
 9228 0148 D00D      		.word	3536
 9229 014a 5201      		.word	338
 9230 014c 301E      		.word	7728
 9231 014e AA22      		.word	8874
 9232 0150 570E      		.word	3671
 9233 0152 0627      		.word	9990
 9234 0154 C927      		.word	10185
 9235 0156 9605      		.word	1430
 9236 0158 2722      		.word	8743
 9237 015a 3423      		.word	9012
 9238 015c F528      		.word	10485
 9239 015e 422B      		.word	11074
 9240 0160 011D      		.word	7425
 9241 0162 0B01      		.word	267
 9242 0164 3005      		.word	1328
 9243 0166 AE28      		.word	10414
 9244 0168 D70B      		.word	3031
 9245 016a 4024      		.word	9280
 9246 016c 1629      		.word	10518
 9247 016e B80C      		.word	3256
 9248 0170 8B1F      		.word	8075
 9249 0172 CC1C      		.word	7372
 9250 0174 9E09      		.word	2462
 9251 0176 C01C      		.word	7360
 9252 0178 1624      		.word	9238
 9253 017a 8F18      		.word	6287
 9254 017c 4D29      		.word	10573
 9255 017e 9012      		.word	4752
 9256 0180 C60E      		.word	3782
 9257 0182 450D      		.word	3397
 9258 0184 0E29      		.word	10510
 9259 0186 B916      		.word	5817
 9260 0188 3F13      		.word	4927
 9261 018a FC09      		.word	2556
 9262 018c 050F      		.word	3845
 9263 018e 4815      		.word	5448
 9264 0190 160F      		.word	3862
 9265 0192 810B      		.word	2945
 9266 0194 5D26      		.word	9821
 9267 0196 0016      		.word	5632
 9268 0198 380B      		.word	2872
 9269 019a F414      		.word	5364
 9270 019c C527      		.word	10181
 9271 019e 642C      		.word	11364
 9272 01a0 3E2A      		.word	10814
 9273 01a2 1B2F      		.word	12059
 9274 01a4 1217      		.word	5906
 9275 01a6 5E25      		.word	9566
 9276 01a8 1514      		.word	5141
 9277 01aa 872C      		.word	11399
 9278 01ac E91D      		.word	7657
 9279 01ae 191A      		.word	6681
 9280 01b0 D717      		.word	6103
 9281 01b2 D518      		.word	6357
 9282 01b4 9625      		.word	9622
 9283 01b6 2B12      		.word	4651
 9284 01b8 0D0B      		.word	2829
 9285 01ba D129      		.word	10705
 9286 01bc 541E      		.word	7764
 9287 01be 2428      		.word	10276
 9288 01c0 4E12      		.word	4686
 9289 01c2 5012      		.word	4688
 9290 01c4 8218      		.word	6274
 9291 01c6 6624      		.word	9318
 9292 01c8 5912      		.word	4697
 9293 01ca BF02      		.word	703
 9294 01cc 8922      		.word	8841
 9295 01ce D01E      		.word	7888
 9296 01d0 6A03      		.word	874
 9297 01d2 0429      		.word	10500
 9298 01d4 EB0F      		.word	4075
 9299 01d6 2311      		.word	4387
 9300 01d8 5301      		.word	339
 9301 01da 0905      		.word	1289
 9302 01dc 4829      		.word	10568
 9303 01de 3B0F      		.word	3899
 9304 01e0 E101      		.word	481
 9305 01e2 130A      		.word	2579
 9306 01e4 3F23      		.word	9023
 9307 01e6 440E      		.word	3652
 9308 01e8 E229      		.word	10722
 9309 01ea F72F      		.word	12279
 9310 01ec 522F      		.word	12114
 9311 01ee C027      		.word	10176
 9312 01f0 4A0F      		.word	3914
 9313 01f2 8C07      		.word	1932
 9314 01f4 4426      		.word	9796
 9315 01f6 E815      		.word	5608
 9316 01f8 A810      		.word	4264
 9317 01fa BE24      		.word	9406
 9318 01fc BF21      		.word	8639
 9319 01fe 6C15      		.word	5484
 9320 0200 DE23      		.word	9182
 9321 0202 041F      		.word	7940
 9322 0204 8515      		.word	5509
 9323 0206 0413      		.word	4868
 9324 0208 9B1A      		.word	6811
 9325 020a 0818      		.word	6152
 9326 020c 9421      		.word	8596
 9327 020e A42E      		.word	11940
 9328 0210 0E18      		.word	6158
 9329 0212 4F2F      		.word	12111
 9330 0214 9D1A      		.word	6813
 9331 0216 6328      		.word	10339
 9332 0218 7305      		.word	1395
 9333 021a 6A1B      		.word	7018
 9334 021c 1C0F      		.word	3868
 9335 021e E40B      		.word	3044
 9336 0220 B11D      		.word	7601
 9337 0222 8610      		.word	4230
 9338 0224 EE22      		.word	8942
 9339 0226 911B      		.word	7057
 9340 0228 B903      		.word	953
 9341 022a E117      		.word	6113
 9342 022c E328      		.word	10467
 9343 022e AB1A      		.word	6827
 9344 0230 9F0B      		.word	2975
 9345 0232 B622      		.word	8886
 9346 0234 6006      		.word	1632
 9347 0236 A90C      		.word	3241
 9348 0238 392C      		.word	11321
 9349 023a D505      		.word	1493
 9350 023c 2D1D      		.word	7469
 9351 023e 501B      		.word	6992
 9352 0240 552E      		.word	11861
 9353 0242 A529      		.word	10661
 9354 0244 7A26      		.word	9850
 9355 0246 F62D      		.word	11766
 9356 0248 B316      		.word	5811
 9357 024a 941B      		.word	7060
 9358 024c 1E06      		.word	1566
 9359 024e C905      		.word	1481
 9360 0250 B215      		.word	5554
 9361 0252 6014      		.word	5216
 9362 0254 B318      		.word	6323
 9363 0256 6319      		.word	6499
 9364 0258 4403      		.word	836
 9365 025a 4F0A      		.word	2639
 9366 025c DE11      		.word	4574
 9367 025e 8808      		.word	2184
 9368 0260 A327      		.word	10147
 9369 0262 9B1C      		.word	7323
 9370 0264 5823      		.word	9048
 9371 0266 572F      		.word	12119
 9372 0268 841B      		.word	7044
 9373 026a 9709      		.word	2455
 9374 026c 982F      		.word	12184
 9375 026e DF06      		.word	1759
 9376 0270 A70F      		.word	4007
 9377 0272 780F      		.word	3960
 9378 0274 C823      		.word	9160
 9379 0276 B11D      		.word	7601
 9380 0278 C125      		.word	9665
 9381 027a 7721      		.word	8567
 9382 027c 6703      		.word	871
 9383 027e 3B17      		.word	5947
 9384 0280 511F      		.word	8017
 9385 0282 0A22      		.word	8714
 9386 0284 9601      		.word	406
 9387 0286 3609      		.word	2358
 9388 0288 2B0E      		.word	3627
 9389 028a FF05      		.word	1535
 9390 028c 0618      		.word	6150
 9391 028e E82E      		.word	12008
 9392 0290 EE03      		.word	1006
 9393 0292 472F      		.word	12103
 9394 0294 7E0E      		.word	3710
 9395 0296 4317      		.word	5955
 9396 0298 941D      		.word	7572
 9397 029a ED0C      		.word	3309
 9398 029c 9721      		.word	8599
 9399 029e 2D0C      		.word	3117
 9400 02a0 4F2E      		.word	11855
 9401 02a2 C826      		.word	9928
 9402 02a4 2320      		.word	8227
 9403 02a6 C21D      		.word	7618
 9404 02a8 3615      		.word	5430
 9405 02aa BD1E      		.word	7869
 9406 02ac 3716      		.word	5687
 9407 02ae DB0B      		.word	3035
 9408 02b0 B80D      		.word	3512
 9409 02b2 B028      		.word	10416
 9410 02b4 6C00      		.word	108
 9411 02b6 C024      		.word	9408
 9412 02b8 5B11      		.word	4443
 9413 02ba 5911      		.word	4441
 9414 02bc EE25      		.word	9710
 9415 02be E617      		.word	6118
 9416 02c0 ED02      		.word	749
 9417 02c2 D40D      		.word	3540
 9418 02c4 3F1A      		.word	6719
 9419 02c6 8C27      		.word	10124
 9420 02c8 9607      		.word	1942
 9421 02ca 1D14      		.word	5149
 9422 02cc 452D      		.word	11589
 9423 02ce 1911      		.word	4377
 9424 02d0 AA12      		.word	4778
 9425 02d2 DE14      		.word	5342
 9426 02d4 8027      		.word	10112
 9427 02d6 B41F      		.word	8116
 9428 02d8 5508      		.word	2133
 9429 02da 6700      		.word	103
 9430 02dc 3824      		.word	9272
 9431 02de 0F16      		.word	5647
 9432 02e0 0429      		.word	10500
 9433 02e2 C30E      		.word	3779
 9434 02e4 7426      		.word	9844
 9435 02e6 9A15      		.word	5530
 9436 02e8 1B11      		.word	4379
 9437 02ea 3B2C      		.word	11323
 9438 02ec B624      		.word	9398
 9439 02ee 411F      		.word	8001
 9440 02f0 5A25      		.word	9562
 9441 02f2 FE2C      		.word	11518
 9442 02f4 9B29      		.word	10651
 9443 02f6 5900      		.word	89
 9444 02f8 0921      		.word	8457
 9445 02fa DE08      		.word	2270
 9446 02fc F000      		.word	240
 9447 02fe 6F0F      		.word	3951
 9448 0300 C20F      		.word	4034
 9449 0302 8023      		.word	9088
 9450 0304 F30C      		.word	3315
 9451 0306 4111      		.word	4417
 9452 0308 DF2B      		.word	11231
 9453 030a 0B21      		.word	8459
 9454 030c C61C      		.word	7366
 9455 030e 9601      		.word	406
 9456 0310 1326      		.word	9747
 9457 0312 9310      		.word	4243
 9458 0314 2A17      		.word	5930
 9459 0316 AC12      		.word	4780
 9460 0318 6A27      		.word	10090
 9461 031a 6117      		.word	5985
 9462 031c 851F      		.word	8069
 9463 031e D606      		.word	1750
 9464 0320 8023      		.word	9088
 9465 0322 B301      		.word	435
 9466 0324 8B10      		.word	4235
 9467 0326 F928      		.word	10489
 9468 0328 3001      		.word	304
 9469 032a 5925      		.word	9561
 9470 032c 9329      		.word	10643
 9471 032e 5105      		.word	1361
 9472 0330 CA1D      		.word	7626
 9473 0332 7B1A      		.word	6779
 9474 0334 A32C      		.word	11427
 9475 0336 E223      		.word	9186
 9476 0338 AC12      		.word	4780
 9477 033a FB2F      		.word	12283
 9478 033c E92B      		.word	11241
 9479 033e B11F      		.word	8113
 9480 0340 1108      		.word	2065
 9481 0342 641F      		.word	8036
 9482 0344 BE0E      		.word	3774
 9483 0346 C924      		.word	9417
 9484 0348 AC14      		.word	5292
 9485 034a 5B0A      		.word	2651
 9486 034c C100      		.word	193
 9487 034e 4521      		.word	8517
 9488 0350 CD16      		.word	5837
 9489 0352 CF20      		.word	8399
 9490 0354 691F      		.word	8041
 9491 0356 2F25      		.word	9519
 9492 0358 1918      		.word	6169
 9493 035a 6D09      		.word	2413
 9494 035c 3710      		.word	4151
 9495 035e 9F04      		.word	1183
 9496 0360 481B      		.word	6984
 9497 0362 FC1B      		.word	7164
 9498 0364 F908      		.word	2297
 9499 0366 1D0C      		.word	3101
 9500 0368 E501      		.word	485
 9501 036a 6C02      		.word	620
 9502 036c 4E0F      		.word	3918
 9503 036e 8629      		.word	10630
 9504 0370 701C      		.word	7280
 9505 0372 4300      		.word	67
 9506 0374 510C      		.word	3153
 9507 0376 1A04      		.word	1050
 9508 0378 7921      		.word	8569
 9509 037a 0D0B      		.word	2829
 9510 037c C805      		.word	1480
 9511 037e 7522      		.word	8821
 9512 0380 EC12      		.word	4844
 9513 0382 F31A      		.word	6899
 9514 0384 7E21      		.word	8574
 9515 0386 2708      		.word	2087
 9516 0388 2B29      		.word	10539
 9517 038a 672F      		.word	12135
 9518 038c C609      		.word	2502
 9519 038e 690B      		.word	2921
 9520 0390 9D26      		.word	9885
 9521 0392 3E11      		.word	4414
 9522 0394 BB12      		.word	4795
 9523 0396 A719      		.word	6567
 9524 0398 692C      		.word	11369
 9525 039a 9E2F      		.word	12190
 9526 039c F01A      		.word	6896
 9527 039e 8E19      		.word	6542
 9528 03a0 071F      		.word	7943
 9529 03a2 7829      		.word	10616
 9530 03a4 3E0E      		.word	3646
 9531 03a6 6C0A      		.word	2668
 9532 03a8 4216      		.word	5698
 9533 03aa 2E26      		.word	9774
 9534 03ac AE2A      		.word	10926
 9535 03ae E202      		.word	738
 9536 03b0 F02D      		.word	11760
 9537 03b2 542C      		.word	11348
 9538 03b4 A326      		.word	9891
 9539 03b6 A107      		.word	1953
 9540 03b8 D71D      		.word	7639
 9541 03ba 7509      		.word	2421
 9542 03bc 4E22      		.word	8782
 9543 03be 150A      		.word	2581
 9544 03c0 5006      		.word	1616
 9545 03c2 3D1B      		.word	6973
 9546 03c4 0817      		.word	5896
 9547 03c6 0809      		.word	2312
 9548 03c8 2409      		.word	2340
 9549 03ca 0C20      		.word	8204
 9550 03cc 341C      		.word	7220
 9551 03ce 7607      		.word	1910
 9552 03d0 590E      		.word	3673
 9553 03d2 0F1A      		.word	6671
 9554 03d4 6C2A      		.word	10860
 9555 03d6 EC2A      		.word	10988
 9556 03d8 7E2B      		.word	11134
 9557 03da 7328      		.word	10355
 9558 03dc A30E      		.word	3747
 9559 03de 4106      		.word	1601
 9560 03e0 C622      		.word	8902
 9561 03e2 742E      		.word	11892
 9562 03e4 282A      		.word	10792
 9563 03e6 7815      		.word	5496
 9564 03e8 540C      		.word	3156
 9565 03ea 5B06      		.word	1627
 9566 03ec 1004      		.word	1040
 9567 03ee 7726      		.word	9847
 9568 03f0 5605      		.word	1366
 9569 03f2 E520      		.word	8421
 9570 03f4 A01E      		.word	7840
 9571 03f6 DF25      		.word	9695
 9572 03f8 6822      		.word	8808
 9573 03fa 8E08      		.word	2190
 9574 03fc 3C12      		.word	4668
 9575 03fe DA17      		.word	6106
 9577               		.section	.progmem.data.pubKeyA_7681_256,"a"
 9580               	pubKeyA_7681_256:
 9581 0000 8F11      		.word	4495
 9582 0002 9F05      		.word	1439
 9583 0004 F002      		.word	752
 9584 0006 000C      		.word	3072
 9585 0008 A01A      		.word	6816
 9586 000a 9D0D      		.word	3485
 9587 000c 230D      		.word	3363
 9588 000e 4903      		.word	841
 9589 0010 3E13      		.word	4926
 9590 0012 F517      		.word	6133
 9591 0014 7F0C      		.word	3199
 9592 0016 3814      		.word	5176
 9593 0018 7F19      		.word	6527
 9594 001a 4802      		.word	584
 9595 001c DB19      		.word	6619
 9596 001e 891A      		.word	6793
 9597 0020 B21A      		.word	6834
 9598 0022 0B0A      		.word	2571
 9599 0024 5B16      		.word	5723
 9600 0026 F606      		.word	1782
 9601 0028 4704      		.word	1095
 9602 002a 6812      		.word	4712
 9603 002c BB14      		.word	5307
 9604 002e 600F      		.word	3936
 9605 0030 5800      		.word	88
 9606 0032 9D19      		.word	6557
 9607 0034 8412      		.word	4740
 9608 0036 2008      		.word	2080
 9609 0038 2907      		.word	1833
 9610 003a 1500      		.word	21
 9611 003c 9311      		.word	4499
 9612 003e 6607      		.word	1894
 9613 0040 670C      		.word	3175
 9614 0042 5B0B      		.word	2907
 9615 0044 2010      		.word	4128
 9616 0046 9517      		.word	6037
 9617 0048 1716      		.word	5655
 9618 004a 2201      		.word	290
 9619 004c 5812      		.word	4696
 9620 004e 4801      		.word	328
 9621 0050 7113      		.word	4977
 9622 0052 580E      		.word	3672
 9623 0054 BF15      		.word	5567
 9624 0056 3918      		.word	6201
 9625 0058 1E15      		.word	5406
 9626 005a FA0A      		.word	2810
 9627 005c 2610      		.word	4134
 9628 005e 3213      		.word	4914
 9629 0060 3A0F      		.word	3898
 9630 0062 BB17      		.word	6075
 9631 0064 1A0E      		.word	3610
 9632 0066 6809      		.word	2408
 9633 0068 1A02      		.word	538
 9634 006a 0F1D      		.word	7439
 9635 006c 3A15      		.word	5434
 9636 006e 3C10      		.word	4156
 9637 0070 EC12      		.word	4844
 9638 0072 D502      		.word	725
 9639 0074 A61B      		.word	7078
 9640 0076 4501      		.word	325
 9641 0078 BD00      		.word	189
 9642 007a 2505      		.word	1317
 9643 007c 3C04      		.word	1084
 9644 007e 470E      		.word	3655
 9645 0080 7D15      		.word	5501
 9646 0082 A60F      		.word	4006
 9647 0084 B915      		.word	5561
 9648 0086 7612      		.word	4726
 9649 0088 140D      		.word	3348
 9650 008a 931B      		.word	7059
 9651 008c 180D      		.word	3352
 9652 008e BE00      		.word	190
 9653 0090 0001      		.word	256
 9654 0092 7407      		.word	1908
 9655 0094 DB14      		.word	5339
 9656 0096 EC1B      		.word	7148
 9657 0098 AC1D      		.word	7596
 9658 009a 8912      		.word	4745
 9659 009c 3D0E      		.word	3645
 9660 009e 4A06      		.word	1610
 9661 00a0 5E04      		.word	1118
 9662 00a2 580E      		.word	3672
 9663 00a4 240D      		.word	3364
 9664 00a6 351D      		.word	7477
 9665 00a8 2804      		.word	1064
 9666 00aa A30C      		.word	3235
 9667 00ac F202      		.word	754
 9668 00ae E211      		.word	4578
 9669 00b0 A118      		.word	6305
 9670 00b2 4813      		.word	4936
 9671 00b4 9800      		.word	152
 9672 00b6 8115      		.word	5505
 9673 00b8 D117      		.word	6097
 9674 00ba FC0E      		.word	3836
 9675 00bc 941D      		.word	7572
 9676 00be 8E17      		.word	6030
 9677 00c0 F51B      		.word	7157
 9678 00c2 A80D      		.word	3496
 9679 00c4 E300      		.word	227
 9680 00c6 4915      		.word	5449
 9681 00c8 5E06      		.word	1630
 9682 00ca B50B      		.word	2997
 9683 00cc 5D17      		.word	5981
 9684 00ce 6C04      		.word	1132
 9685 00d0 5115      		.word	5457
 9686 00d2 AB0A      		.word	2731
 9687 00d4 0402      		.word	516
 9688 00d6 9F0C      		.word	3231
 9689 00d8 9217      		.word	6034
 9690 00da 500B      		.word	2896
 9691 00dc A907      		.word	1961
 9692 00de 7217      		.word	6002
 9693 00e0 B208      		.word	2226
 9694 00e2 C503      		.word	965
 9695 00e4 6405      		.word	1380
 9696 00e6 D20C      		.word	3282
 9697 00e8 0512      		.word	4613
 9698 00ea A014      		.word	5280
 9699 00ec DB06      		.word	1755
 9700 00ee 0314      		.word	5123
 9701 00f0 770A      		.word	2679
 9702 00f2 6807      		.word	1896
 9703 00f4 E708      		.word	2279
 9704 00f6 E516      		.word	5861
 9705 00f8 5301      		.word	339
 9706 00fa A616      		.word	5798
 9707 00fc E109      		.word	2529
 9708 00fe EC07      		.word	2028
 9709 0100 A017      		.word	6048
 9710 0102 A807      		.word	1960
 9711 0104 8A13      		.word	5002
 9712 0106 C011      		.word	4544
 9713 0108 550B      		.word	2901
 9714 010a 290F      		.word	3881
 9715 010c 0C1A      		.word	6668
 9716 010e E41B      		.word	7140
 9717 0110 4A07      		.word	1866
 9718 0112 C602      		.word	710
 9719 0114 140C      		.word	3092
 9720 0116 5717      		.word	5975
 9721 0118 B40B      		.word	2996
 9722 011a F808      		.word	2296
 9723 011c 6A13      		.word	4970
 9724 011e BE01      		.word	446
 9725 0120 4A01      		.word	330
 9726 0122 7F06      		.word	1663
 9727 0124 7A05      		.word	1402
 9728 0126 040F      		.word	3844
 9729 0128 F504      		.word	1269
 9730 012a BD12      		.word	4797
 9731 012c 3D18      		.word	6205
 9732 012e F001      		.word	496
 9733 0130 000B      		.word	2816
 9734 0132 A301      		.word	419
 9735 0134 7C16      		.word	5756
 9736 0136 2609      		.word	2342
 9737 0138 5109      		.word	2385
 9738 013a 2316      		.word	5667
 9739 013c 4012      		.word	4672
 9740 013e 6C08      		.word	2156
 9741 0140 A107      		.word	1953
 9742 0142 870E      		.word	3719
 9743 0144 4303      		.word	835
 9744 0146 F100      		.word	241
 9745 0148 C009      		.word	2496
 9746 014a D316      		.word	5843
 9747 014c C917      		.word	6089
 9748 014e 711A      		.word	6769
 9749 0150 B408      		.word	2228
 9750 0152 4C05      		.word	1356
 9751 0154 E71C      		.word	7399
 9752 0156 E207      		.word	2018
 9753 0158 CF03      		.word	975
 9754 015a 190D      		.word	3353
 9755 015c BE0A      		.word	2750
 9756 015e ED16      		.word	5869
 9757 0160 5F1C      		.word	7263
 9758 0162 6C0B      		.word	2924
 9759 0164 4705      		.word	1351
 9760 0166 2718      		.word	6183
 9761 0168 810E      		.word	3713
 9762 016a 6C07      		.word	1900
 9763 016c 2717      		.word	5927
 9764 016e DA0C      		.word	3290
 9765 0170 F509      		.word	2549
 9766 0172 CC12      		.word	4812
 9767 0174 1E08      		.word	2078
 9768 0176 9612      		.word	4758
 9769 0178 7B19      		.word	6523
 9770 017a F812      		.word	4856
 9771 017c A304      		.word	1187
 9772 017e E413      		.word	5092
 9773 0180 9E1C      		.word	7326
 9774 0182 E21A      		.word	6882
 9775 0184 740E      		.word	3700
 9776 0186 CD0C      		.word	3277
 9777 0188 D41A      		.word	6868
 9778 018a E11B      		.word	7137
 9779 018c F308      		.word	2291
 9780 018e 9E04      		.word	1182
 9781 0190 8004      		.word	1152
 9782 0192 B70C      		.word	3255
 9783 0194 E410      		.word	4324
 9784 0196 0202      		.word	514
 9785 0198 F40F      		.word	4084
 9786 019a 3611      		.word	4406
 9787 019c D413      		.word	5076
 9788 019e 990B      		.word	2969
 9789 01a0 CA08      		.word	2250
 9790 01a2 C613      		.word	5062
 9791 01a4 4E13      		.word	4942
 9792 01a6 551D      		.word	7509
 9793 01a8 540D      		.word	3412
 9794 01aa 9108      		.word	2193
 9795 01ac 6619      		.word	6502
 9796 01ae 041C      		.word	7172
 9797 01b0 9E14      		.word	5278
 9798 01b2 2A12      		.word	4650
 9799 01b4 3F01      		.word	319
 9800 01b6 5303      		.word	851
 9801 01b8 C313      		.word	5059
 9802 01ba 191D      		.word	7449
 9803 01bc 601C      		.word	7264
 9804 01be 490F      		.word	3913
 9805 01c0 3F09      		.word	2367
 9806 01c2 8D0F      		.word	3981
 9807 01c4 F812      		.word	4856
 9808 01c6 8805      		.word	1416
 9809 01c8 DB18      		.word	6363
 9810 01ca 121B      		.word	6930
 9811 01cc 5511      		.word	4437
 9812 01ce 3213      		.word	4914
 9813 01d0 9414      		.word	5268
 9814 01d2 2218      		.word	6178
 9815 01d4 C017      		.word	6080
 9816 01d6 1214      		.word	5138
 9817 01d8 D906      		.word	1753
 9818 01da DE08      		.word	2270
 9819 01dc F617      		.word	6134
 9820 01de DA05      		.word	1498
 9821 01e0 061D      		.word	7430
 9822 01e2 FE00      		.word	254
 9823 01e4 450A      		.word	2629
 9824 01e6 1A0B      		.word	2842
 9825 01e8 B517      		.word	6069
 9826 01ea 4916      		.word	5705
 9827 01ec 8D1A      		.word	6797
 9828 01ee A511      		.word	4517
 9829 01f0 7A10      		.word	4218
 9830 01f2 B215      		.word	5554
 9831 01f4 841B      		.word	7044
 9832 01f6 1B16      		.word	5659
 9833 01f8 7D00      		.word	125
 9834 01fa E000      		.word	224
 9835 01fc F418      		.word	6388
 9836 01fe 5914      		.word	5209
 9838               		.section	.progmem.data.pubKeyP_7681_256,"a"
 9841               	pubKeyP_7681_256:
 9842 0000 FA0D      		.word	3578
 9843 0002 1006      		.word	1552
 9844 0004 750F      		.word	3957
 9845 0006 9E0D      		.word	3486
 9846 0008 D705      		.word	1495
 9847 000a 5504      		.word	1109
 9848 000c 8F0A      		.word	2703
 9849 000e AB13      		.word	5035
 9850 0010 E800      		.word	232
 9851 0012 7E16      		.word	5758
 9852 0014 740C      		.word	3188
 9853 0016 5706      		.word	1623
 9854 0018 7819      		.word	6520
 9855 001a 910A      		.word	2705
 9856 001c 9902      		.word	665
 9857 001e F209      		.word	2546
 9858 0020 C516      		.word	5829
 9859 0022 840E      		.word	3716
 9860 0024 0B11      		.word	4363
 9861 0026 7317      		.word	6003
 9862 0028 1301      		.word	275
 9863 002a 470E      		.word	3655
 9864 002c 6B1A      		.word	6763
 9865 002e 7911      		.word	4473
 9866 0030 2912      		.word	4649
 9867 0032 C81D      		.word	7624
 9868 0034 2B11      		.word	4395
 9869 0036 A814      		.word	5288
 9870 0038 ED04      		.word	1261
 9871 003a 9F11      		.word	4511
 9872 003c 570B      		.word	2903
 9873 003e 5808      		.word	2136
 9874 0040 4C0E      		.word	3660
 9875 0042 2F09      		.word	2351
 9876 0044 D707      		.word	2007
 9877 0046 B102      		.word	689
 9878 0048 DC04      		.word	1244
 9879 004a 0E12      		.word	4622
 9880 004c 941C      		.word	7316
 9881 004e 0B00      		.word	11
 9882 0050 7A07      		.word	1914
 9883 0052 4E10      		.word	4174
 9884 0054 9219      		.word	6546
 9885 0056 2F0B      		.word	2863
 9886 0058 E610      		.word	4326
 9887 005a B600      		.word	182
 9888 005c FA1A      		.word	6906
 9889 005e 0508      		.word	2053
 9890 0060 5517      		.word	5973
 9891 0062 6317      		.word	5987
 9892 0064 600D      		.word	3424
 9893 0066 D005      		.word	1488
 9894 0068 440A      		.word	2628
 9895 006a 1900      		.word	25
 9896 006c 2614      		.word	5158
 9897 006e 191B      		.word	6937
 9898 0070 950C      		.word	3221
 9899 0072 1D17      		.word	5917
 9900 0074 D906      		.word	1753
 9901 0076 F71D      		.word	7671
 9902 0078 DD07      		.word	2013
 9903 007a 811D      		.word	7553
 9904 007c 3D10      		.word	4157
 9905 007e 4A0A      		.word	2634
 9906 0080 3813      		.word	4920
 9907 0082 2412      		.word	4644
 9908 0084 7A0D      		.word	3450
 9909 0086 4A00      		.word	74
 9910 0088 1911      		.word	4377
 9911 008a 8817      		.word	6024
 9912 008c 0112      		.word	4609
 9913 008e 2D0F      		.word	3885
 9914 0090 1901      		.word	281
 9915 0092 5214      		.word	5202
 9916 0094 9118      		.word	6289
 9917 0096 D310      		.word	4307
 9918 0098 0010      		.word	4096
 9919 009a 8109      		.word	2433
 9920 009c FF01      		.word	511
 9921 009e DB04      		.word	1243
 9922 00a0 2D1A      		.word	6701
 9923 00a2 B31C      		.word	7347
 9924 00a4 0F01      		.word	271
 9925 00a6 7A04      		.word	1146
 9926 00a8 C413      		.word	5060
 9927 00aa F819      		.word	6648
 9928 00ac C303      		.word	963
 9929 00ae 9E03      		.word	926
 9930 00b0 3A11      		.word	4410
 9931 00b2 C01D      		.word	7616
 9932 00b4 181C      		.word	7192
 9933 00b6 B403      		.word	948
 9934 00b8 9F13      		.word	5023
 9935 00ba 850C      		.word	3205
 9936 00bc 1A1A      		.word	6682
 9937 00be 8604      		.word	1158
 9938 00c0 1804      		.word	1048
 9939 00c2 9109      		.word	2449
 9940 00c4 CB07      		.word	1995
 9941 00c6 900D      		.word	3472
 9942 00c8 AB15      		.word	5547
 9943 00ca E019      		.word	6624
 9944 00cc 680C      		.word	3176
 9945 00ce 5E18      		.word	6238
 9946 00d0 B511      		.word	4533
 9947 00d2 040B      		.word	2820
 9948 00d4 C514      		.word	5317
 9949 00d6 B414      		.word	5300
 9950 00d8 6410      		.word	4196
 9951 00da D50A      		.word	2773
 9952 00dc B917      		.word	6073
 9953 00de 961C      		.word	7318
 9954 00e0 CD11      		.word	4557
 9955 00e2 3E16      		.word	5694
 9956 00e4 A506      		.word	1701
 9957 00e6 D609      		.word	2518
 9958 00e8 4B0B      		.word	2891
 9959 00ea DC01      		.word	476
 9960 00ec A418      		.word	6308
 9961 00ee 2910      		.word	4137
 9962 00f0 C80F      		.word	4040
 9963 00f2 5E19      		.word	6494
 9964 00f4 CA1D      		.word	7626
 9965 00f6 A90C      		.word	3241
 9966 00f8 850A      		.word	2693
 9967 00fa 141B      		.word	6932
 9968 00fc B615      		.word	5558
 9969 00fe 7F1B      		.word	7039
 9970 0100 900E      		.word	3728
 9971 0102 1314      		.word	5139
 9972 0104 C407      		.word	1988
 9973 0106 2711      		.word	4391
 9974 0108 0C10      		.word	4108
 9975 010a C508      		.word	2245
 9976 010c E00D      		.word	3552
 9977 010e CE0B      		.word	3022
 9978 0110 D813      		.word	5080
 9979 0112 C110      		.word	4289
 9980 0114 F906      		.word	1785
 9981 0116 B202      		.word	690
 9982 0118 6E1C      		.word	7278
 9983 011a EE08      		.word	2286
 9984 011c 6E09      		.word	2414
 9985 011e 8712      		.word	4743
 9986 0120 2B1D      		.word	7467
 9987 0122 7500      		.word	117
 9988 0124 3D15      		.word	5437
 9989 0126 2718      		.word	6183
 9990 0128 A60B      		.word	2982
 9991 012a AC1A      		.word	6828
 9992 012c 3D03      		.word	829
 9993 012e 7F07      		.word	1919
 9994 0130 1901      		.word	281
 9995 0132 AE12      		.word	4782
 9996 0134 410C      		.word	3137
 9997 0136 1307      		.word	1811
 9998 0138 CF00      		.word	207
 9999 013a C903      		.word	969
 10000 013c 4711      		.word	4423
 10001 013e 0803      		.word	776
 10002 0140 DF1C      		.word	7391
 10003 0142 8613      		.word	4998
 10004 0144 7702      		.word	631
 10005 0146 C201      		.word	450
 10006 0148 F202      		.word	754
 10007 014a DF06      		.word	1759
 10008 014c F40E      		.word	3828
 10009 014e 2E0A      		.word	2606
 10010 0150 600B      		.word	2912
 10011 0152 2E0B      		.word	2862
 10012 0154 8509      		.word	2437
 10013 0156 0413      		.word	4868
 10014 0158 5403      		.word	852
 10015 015a E40B      		.word	3044
 10016 015c B801      		.word	440
 10017 015e 0208      		.word	2050
 10018 0160 101A      		.word	6672
 10019 0162 BD00      		.word	189
 10020 0164 C21A      		.word	6850
 10021 0166 F205      		.word	1522
 10022 0168 C710      		.word	4295
 10023 016a 7911      		.word	4473
 10024 016c 6316      		.word	5731
 10025 016e 0E16      		.word	5646
 10026 0170 BD07      		.word	1981
 10027 0172 C011      		.word	4544
 10028 0174 8316      		.word	5763
 10029 0176 3B17      		.word	5947
 10030 0178 1F1A      		.word	6687
 10031 017a 4D12      		.word	4685
 10032 017c 2209      		.word	2338
 10033 017e 2B17      		.word	5931
 10034 0180 1702      		.word	535
 10035 0182 7807      		.word	1912
 10036 0184 9F1C      		.word	7327
 10037 0186 5C1D      		.word	7516
 10038 0188 9806      		.word	1688
 10039 018a AE0F      		.word	4014
 10040 018c D31A      		.word	6867
 10041 018e 050F      		.word	3845
 10042 0190 8905      		.word	1417
 10043 0192 7907      		.word	1913
 10044 0194 6419      		.word	6500
 10045 0196 E50D      		.word	3557
 10046 0198 E60B      		.word	3046
 10047 019a 7803      		.word	888
 10048 019c 0917      		.word	5897
 10049 019e EF0A      		.word	2799
 10050 01a0 4813      		.word	4936
 10051 01a2 9612      		.word	4758
 10052 01a4 A20C      		.word	3234
 10053 01a6 2611      		.word	4390
 10054 01a8 9211      		.word	4498
 10055 01aa AA09      		.word	2474
 10056 01ac 0C0A      		.word	2572
 10057 01ae FB1D      		.word	7675
 10058 01b0 D918      		.word	6361
 10059 01b2 8E0D      		.word	3470
 10060 01b4 0204      		.word	1026
 10061 01b6 1417      		.word	5908
 10062 01b8 3202      		.word	562
 10063 01ba 4418      		.word	6212
 10064 01bc C31B      		.word	7107
 10065 01be 0209      		.word	2306
 10066 01c0 8716      		.word	5767
 10067 01c2 DA12      		.word	4826
 10068 01c4 871B      		.word	7047
 10069 01c6 041C      		.word	7172
 10070 01c8 D119      		.word	6609
 10071 01ca 2017      		.word	5920
 10072 01cc F11C      		.word	7409
 10073 01ce 4D17      		.word	5965
 10074 01d0 5C11      		.word	4444
 10075 01d2 E80E      		.word	3816
 10076 01d4 BE0D      		.word	3518
 10077 01d6 791D      		.word	7545
 10078 01d8 3005      		.word	1328
 10079 01da 0512      		.word	4613
 10080 01dc 3C0E      		.word	3644
 10081 01de D514      		.word	5333
 10082 01e0 FA0B      		.word	3066
 10083 01e2 BB0C      		.word	3259
 10084 01e4 B50A      		.word	2741
 10085 01e6 1310      		.word	4115
 10086 01e8 F014      		.word	5360
 10087 01ea 7E1A      		.word	6782
 10088 01ec AA07      		.word	1962
 10089 01ee 1109      		.word	2321
 10090 01f0 0805      		.word	1288
 10091 01f2 EE04      		.word	1262
 10092 01f4 F618      		.word	6390
 10093 01f6 A705      		.word	1447
 10094 01f8 5617      		.word	5974
 10095 01fa 531B      		.word	6995
 10096 01fc 8B04      		.word	1163
 10097 01fe 2117      		.word	5921
 10099               		.section	.progmem.data.prvKeyR2_7681_256,"a"
 10102               	prvKeyR2_7681_256:
 10103 0000 A30F      		.word	4003
 10104 0002 0011      		.word	4352
 10105 0004 6800      		.word	104
 10106 0006 7D0C      		.word	3197
 10107 0008 930E      		.word	3731
 10108 000a 2B0C      		.word	3115
 10109 000c A414      		.word	5284
 10110 000e 5D05      		.word	1373
 10111 0010 2D02      		.word	557
 10112 0012 6007      		.word	1888
 10113 0014 C50A      		.word	2757
 10114 0016 A800      		.word	168
 10115 0018 F40A      		.word	2804
 10116 001a 2818      		.word	6184
 10117 001c 8808      		.word	2184
 10118 001e 351D      		.word	7477
 10119 0020 C40C      		.word	3268
 10120 0022 CE0E      		.word	3790
 10121 0024 2E17      		.word	5934
 10122 0026 8F1A      		.word	6799
 10123 0028 D213      		.word	5074
 10124 002a 5713      		.word	4951
 10125 002c 0C14      		.word	5132
 10126 002e 4E12      		.word	4686
 10127 0030 BA0A      		.word	2746
 10128 0032 A61C      		.word	7334
 10129 0034 8A1C      		.word	7306
 10130 0036 FB16      		.word	5883
 10131 0038 4D10      		.word	4173
 10132 003a BB03      		.word	955
 10133 003c EE09      		.word	2542
 10134 003e 3219      		.word	6450
 10135 0040 EE11      		.word	4590
 10136 0042 800F      		.word	3968
 10137 0044 B814      		.word	5304
 10138 0046 A70C      		.word	3239
 10139 0048 0A03      		.word	778
 10140 004a 7B04      		.word	1147
 10141 004c 9914      		.word	5273
 10142 004e 7A11      		.word	4474
 10143 0050 ED13      		.word	5101
 10144 0052 A70E      		.word	3751
 10145 0054 4D1C      		.word	7245
 10146 0056 F71A      		.word	6903
 10147 0058 D007      		.word	2000
 10148 005a 2F0F      		.word	3887
 10149 005c 4917      		.word	5961
 10150 005e A508      		.word	2213
 10151 0060 3E1B      		.word	6974
 10152 0062 500D      		.word	3408
 10153 0064 6102      		.word	609
 10154 0066 A10B      		.word	2977
 10155 0068 510A      		.word	2641
 10156 006a D817      		.word	6104
 10157 006c FC1C      		.word	7420
 10158 006e 1907      		.word	1817
 10159 0070 F70F      		.word	4087
 10160 0072 2416      		.word	5668
 10161 0074 C703      		.word	967
 10162 0076 631A      		.word	6755
 10163 0078 691C      		.word	7273
 10164 007a 7E00      		.word	126
 10165 007c 521B      		.word	6994
 10166 007e 7E09      		.word	2430
 10167 0080 470A      		.word	2631
 10168 0082 0801      		.word	264
 10169 0084 7615      		.word	5494
 10170 0086 481D      		.word	7496
 10171 0088 CA10      		.word	4298
 10172 008a 8417      		.word	6020
 10173 008c 2703      		.word	807
 10174 008e 8C06      		.word	1676
 10175 0090 E113      		.word	5089
 10176 0092 B611      		.word	4534
 10177 0094 9801      		.word	408
 10178 0096 850E      		.word	3717
 10179 0098 5007      		.word	1872
 10180 009a 721B      		.word	7026
 10181 009c 8E05      		.word	1422
 10182 009e B31C      		.word	7347
 10183 00a0 3B11      		.word	4411
 10184 00a2 AB12      		.word	4779
 10185 00a4 770E      		.word	3703
 10186 00a6 BF03      		.word	959
 10187 00a8 7106      		.word	1649
 10188 00aa A703      		.word	935
 10189 00ac DA0C      		.word	3290
 10190 00ae A814      		.word	5288
 10191 00b0 0701      		.word	263
 10192 00b2 2A13      		.word	4906
 10193 00b4 8F16      		.word	5775
 10194 00b6 B401      		.word	436
 10195 00b8 5212      		.word	4690
 10196 00ba 0015      		.word	5376
 10197 00bc 5111      		.word	4433
 10198 00be E207      		.word	2018
 10199 00c0 C702      		.word	711
 10200 00c2 8C1B      		.word	7052
 10201 00c4 020B      		.word	2818
 10202 00c6 EF14      		.word	5359
 10203 00c8 1E1C      		.word	7198
 10204 00ca E41B      		.word	7140
 10205 00cc 0215      		.word	5378
 10206 00ce F80B      		.word	3064
 10207 00d0 0012      		.word	4608
 10208 00d2 4408      		.word	2116
 10209 00d4 D602      		.word	726
 10210 00d6 B017      		.word	6064
 10211 00d8 A100      		.word	161
 10212 00da AA1A      		.word	6826
 10213 00dc 2911      		.word	4393
 10214 00de E104      		.word	1249
 10215 00e0 8E00      		.word	142
 10216 00e2 841B      		.word	7044
 10217 00e4 CA09      		.word	2506
 10218 00e6 CF05      		.word	1487
 10219 00e8 6705      		.word	1383
 10220 00ea 9218      		.word	6290
 10221 00ec 3702      		.word	567
 10222 00ee F706      		.word	1783
 10223 00f0 4F12      		.word	4687
 10224 00f2 F110      		.word	4337
 10225 00f4 0902      		.word	521
 10226 00f6 0C0D      		.word	3340
 10227 00f8 C219      		.word	6594
 10228 00fa 3417      		.word	5940
 10229 00fc 7917      		.word	6009
 10230 00fe 5607      		.word	1878
 10231 0100 2905      		.word	1321
 10232 0102 D012      		.word	4816
 10233 0104 F40A      		.word	2804
 10234 0106 C21D      		.word	7618
 10235 0108 8612      		.word	4742
 10236 010a 2804      		.word	1064
 10237 010c 5B1C      		.word	7259
 10238 010e D30D      		.word	3539
 10239 0110 7C15      		.word	5500
 10240 0112 F518      		.word	6389
 10241 0114 9502      		.word	661
 10242 0116 AE00      		.word	174
 10243 0118 060E      		.word	3590
 10244 011a 8E0A      		.word	2702
 10245 011c 7D11      		.word	4477
 10246 011e 631A      		.word	6755
 10247 0120 FB03      		.word	1019
 10248 0122 3606      		.word	1590
 10249 0124 A006      		.word	1696
 10250 0126 220C      		.word	3106
 10251 0128 CA1D      		.word	7626
 10252 012a C202      		.word	706
 10253 012c 6A19      		.word	6506
 10254 012e 4E11      		.word	4430
 10255 0130 A30A      		.word	2723
 10256 0132 5309      		.word	2387
 10257 0134 CE14      		.word	5326
 10258 0136 7307      		.word	1907
 10259 0138 730F      		.word	3955
 10260 013a D60A      		.word	2774
 10261 013c D011      		.word	4560
 10262 013e 2D0A      		.word	2605
 10263 0140 CD03      		.word	973
 10264 0142 E701      		.word	487
 10265 0144 8A0F      		.word	3978
 10266 0146 AB17      		.word	6059
 10267 0148 7B00      		.word	123
 10268 014a D71B      		.word	7127
 10269 014c 8012      		.word	4736
 10270 014e A407      		.word	1956
 10271 0150 C40C      		.word	3268
 10272 0152 521C      		.word	7250
 10273 0154 271A      		.word	6695
 10274 0156 6216      		.word	5730
 10275 0158 C112      		.word	4801
 10276 015a 8417      		.word	6020
 10277 015c 130A      		.word	2579
 10278 015e 5317      		.word	5971
 10279 0160 B210      		.word	4274
 10280 0162 F318      		.word	6387
 10281 0164 440E      		.word	3652
 10282 0166 F20F      		.word	4082
 10283 0168 2E00      		.word	46
 10284 016a E70C      		.word	3303
 10285 016c D215      		.word	5586
 10286 016e C20A      		.word	2754
 10287 0170 6502      		.word	613
 10288 0172 BE0B      		.word	3006
 10289 0174 E809      		.word	2536
 10290 0176 D70C      		.word	3287
 10291 0178 7910      		.word	4217
 10292 017a E815      		.word	5608
 10293 017c 8014      		.word	5248
 10294 017e BA02      		.word	698
 10295 0180 F81A      		.word	6904
 10296 0182 3C16      		.word	5692
 10297 0184 A800      		.word	168
 10298 0186 EE13      		.word	5102
 10299 0188 6102      		.word	609
 10300 018a C512      		.word	4805
 10301 018c F518      		.word	6389
 10302 018e 0D1A      		.word	6669
 10303 0190 6308      		.word	2147
 10304 0192 D914      		.word	5337
 10305 0194 1504      		.word	1045
 10306 0196 FF09      		.word	2559
 10307 0198 8F1D      		.word	7567
 10308 019a 6616      		.word	5734
 10309 019c 560D      		.word	3414
 10310 019e 6502      		.word	613
 10311 01a0 E101      		.word	481
 10312 01a2 901D      		.word	7568
 10313 01a4 C507      		.word	1989
 10314 01a6 111D      		.word	7441
 10315 01a8 7201      		.word	370
 10316 01aa 5E08      		.word	2142
 10317 01ac 9711      		.word	4503
 10318 01ae CC1B      		.word	7116
 10319 01b0 1E07      		.word	1822
 10320 01b2 7F19      		.word	6527
 10321 01b4 8416      		.word	5764
 10322 01b6 EF17      		.word	6127
 10323 01b8 8D10      		.word	4237
 10324 01ba DE16      		.word	5854
 10325 01bc 1909      		.word	2329
 10326 01be A20D      		.word	3490
 10327 01c0 3B01      		.word	315
 10328 01c2 8306      		.word	1667
 10329 01c4 1314      		.word	5139
 10330 01c6 D014      		.word	5328
 10331 01c8 830E      		.word	3715
 10332 01ca 8E01      		.word	398
 10333 01cc 0402      		.word	516
 10334 01ce 7311      		.word	4467
 10335 01d0 341C      		.word	7220
 10336 01d2 1D18      		.word	6173
 10337 01d4 410E      		.word	3649
 10338 01d6 5A0D      		.word	3418
 10339 01d8 DB10      		.word	4315
 10340 01da 111D      		.word	7441
 10341 01dc 000A      		.word	2560
 10342 01de 8912      		.word	4745
 10343 01e0 ED18      		.word	6381
 10344 01e2 AB04      		.word	1195
 10345 01e4 C71B      		.word	7111
 10346 01e6 B008      		.word	2224
 10347 01e8 D213      		.word	5074
 10348 01ea A619      		.word	6566
 10349 01ec D80E      		.word	3800
 10350 01ee C01A      		.word	6848
 10351 01f0 BF06      		.word	1727
 10352 01f2 AE1D      		.word	7598
 10353 01f4 A810      		.word	4264
 10354 01f6 A314      		.word	5283
 10355 01f8 C306      		.word	1731
 10356 01fa 3801      		.word	312
 10357 01fc 860F      		.word	3974
 10358 01fe 3E0C      		.word	3134
 10360               		.text
 10362               	.Letext0:
 10363               		.ident	"GCC: (GNU) 9.1.0"
 10364               	.global __do_copy_data
 10365               	.global __do_clear_bss
DEFINED SYMBOLS
                            *ABS*:0000000000000000 test.c
/var/folders/mm/zr_rkfjd2qvbw_fkp36g3p0m0000gn/T//ccmEMrLm.s:2      *ABS*:000000000000003e __SP_H__
/var/folders/mm/zr_rkfjd2qvbw_fkp36g3p0m0000gn/T//ccmEMrLm.s:3      *ABS*:000000000000003d __SP_L__
/var/folders/mm/zr_rkfjd2qvbw_fkp36g3p0m0000gn/T//ccmEMrLm.s:4      *ABS*:000000000000003f __SREG__
/var/folders/mm/zr_rkfjd2qvbw_fkp36g3p0m0000gn/T//ccmEMrLm.s:5      *ABS*:000000000000003b __RAMPZ__
/var/folders/mm/zr_rkfjd2qvbw_fkp36g3p0m0000gn/T//ccmEMrLm.s:6      *ABS*:000000000000003a __RAMPY__
/var/folders/mm/zr_rkfjd2qvbw_fkp36g3p0m0000gn/T//ccmEMrLm.s:7      *ABS*:0000000000000039 __RAMPX__
/var/folders/mm/zr_rkfjd2qvbw_fkp36g3p0m0000gn/T//ccmEMrLm.s:8      *ABS*:0000000000000038 __RAMPD__
/var/folders/mm/zr_rkfjd2qvbw_fkp36g3p0m0000gn/T//ccmEMrLm.s:9      *ABS*:0000000000000034 __CCP__
/var/folders/mm/zr_rkfjd2qvbw_fkp36g3p0m0000gn/T//ccmEMrLm.s:10     *ABS*:0000000000000000 __tmp_reg__
/var/folders/mm/zr_rkfjd2qvbw_fkp36g3p0m0000gn/T//ccmEMrLm.s:11     *ABS*:0000000000000001 __zero_reg__
/var/folders/mm/zr_rkfjd2qvbw_fkp36g3p0m0000gn/T//ccmEMrLm.s:467    .text.generateRandomPolyTable_12289_512:0000000000000000 generateRandomPolyTable_12289_512
/var/folders/mm/zr_rkfjd2qvbw_fkp36g3p0m0000gn/T//ccmEMrLm.s:553    .text.generateRandomPolyTable_4093:0000000000000000 generateRandomPolyTable_4093
/var/folders/mm/zr_rkfjd2qvbw_fkp36g3p0m0000gn/T//ccmEMrLm.s:649    .text.test_passed:0000000000000000 test_passed
/var/folders/mm/zr_rkfjd2qvbw_fkp36g3p0m0000gn/T//ccmEMrLm.s:679    .text.test_failed:0000000000000000 test_failed
/var/folders/mm/zr_rkfjd2qvbw_fkp36g3p0m0000gn/T//ccmEMrLm.s:3325   .bss.mod_errors:0000000000000000 mod_errors
/var/folders/mm/zr_rkfjd2qvbw_fkp36g3p0m0000gn/T//ccmEMrLm.s:716    .text.test_start:0000000000000000 test_start
/var/folders/mm/zr_rkfjd2qvbw_fkp36g3p0m0000gn/T//ccmEMrLm.s:3319   .bss.mod_tests:0000000000000000 mod_tests
/var/folders/mm/zr_rkfjd2qvbw_fkp36g3p0m0000gn/T//ccmEMrLm.s:761    .text.test_end:0000000000000000 test_end
/var/folders/mm/zr_rkfjd2qvbw_fkp36g3p0m0000gn/T//ccmEMrLm.s:839    .text.test_ksuba_school:0000000000000000 test_ksuba_school
/var/folders/mm/zr_rkfjd2qvbw_fkp36g3p0m0000gn/T//ccmEMrLm.s:6330   .progmem.data.prvKeyR2_4093_320:0000000000000000 prvKeyR2_4093_320
/var/folders/mm/zr_rkfjd2qvbw_fkp36g3p0m0000gn/T//ccmEMrLm.s:1186   .text.testEncryptionAndDecryption_NTT_7681_256:0000000000000000 testEncryptionAndDecryption_NTT_7681_256
/var/folders/mm/zr_rkfjd2qvbw_fkp36g3p0m0000gn/T//ccmEMrLm.s:9841   .progmem.data.pubKeyP_7681_256:0000000000000000 pubKeyP_7681_256
/var/folders/mm/zr_rkfjd2qvbw_fkp36g3p0m0000gn/T//ccmEMrLm.s:9580   .progmem.data.pubKeyA_7681_256:0000000000000000 pubKeyA_7681_256
/var/folders/mm/zr_rkfjd2qvbw_fkp36g3p0m0000gn/T//ccmEMrLm.s:10102  .progmem.data.prvKeyR2_7681_256:0000000000000000 prvKeyR2_7681_256
/var/folders/mm/zr_rkfjd2qvbw_fkp36g3p0m0000gn/T//ccmEMrLm.s:1445   .text.testEncryptionAndDecryption_NTT_12289_512:0000000000000000 testEncryptionAndDecryption_NTT_12289_512
/var/folders/mm/zr_rkfjd2qvbw_fkp36g3p0m0000gn/T//ccmEMrLm.s:8546   .progmem.data.pubKeyP_12289_512:0000000000000000 pubKeyP_12289_512
/var/folders/mm/zr_rkfjd2qvbw_fkp36g3p0m0000gn/T//ccmEMrLm.s:8029   .progmem.data.pubKeyA_12289_512:0000000000000000 pubKeyA_12289_512
/var/folders/mm/zr_rkfjd2qvbw_fkp36g3p0m0000gn/T//ccmEMrLm.s:9063   .progmem.data.prvKeyR2_12289_512:0000000000000000 prvKeyR2_12289_512
/var/folders/mm/zr_rkfjd2qvbw_fkp36g3p0m0000gn/T//ccmEMrLm.s:1609   .text.testEncryptionAndDecryption_Karatsuba_4093_192:0000000000000000 testEncryptionAndDecryption_Karatsuba_4093_192
/var/folders/mm/zr_rkfjd2qvbw_fkp36g3p0m0000gn/T//ccmEMrLm.s:7635   .progmem.data.pubKeyP_4093_192:0000000000000000 pubKeyP_4093_192
/var/folders/mm/zr_rkfjd2qvbw_fkp36g3p0m0000gn/T//ccmEMrLm.s:7438   .progmem.data.pubKeyA_4093_192:0000000000000000 pubKeyA_4093_192
/var/folders/mm/zr_rkfjd2qvbw_fkp36g3p0m0000gn/T//ccmEMrLm.s:7832   .progmem.data.prvKeyR2_4093_192:0000000000000000 prvKeyR2_4093_192
/var/folders/mm/zr_rkfjd2qvbw_fkp36g3p0m0000gn/T//ccmEMrLm.s:1786   .text.testEncryptionAndDecryption_Karatsuba_4093_256:0000000000000000 testEncryptionAndDecryption_Karatsuba_4093_256
/var/folders/mm/zr_rkfjd2qvbw_fkp36g3p0m0000gn/T//ccmEMrLm.s:6916   .progmem.data.pubKeyP_4093_256:0000000000000000 pubKeyP_4093_256
/var/folders/mm/zr_rkfjd2qvbw_fkp36g3p0m0000gn/T//ccmEMrLm.s:6655   .progmem.data.pubKeyA_4093_256:0000000000000000 pubKeyA_4093_256
/var/folders/mm/zr_rkfjd2qvbw_fkp36g3p0m0000gn/T//ccmEMrLm.s:7177   .progmem.data.prvKeyR2_4093_256:0000000000000000 prvKeyR2_4093_256
/var/folders/mm/zr_rkfjd2qvbw_fkp36g3p0m0000gn/T//ccmEMrLm.s:1981   .text.testEncryptionAndDecryption_Karatsuba_4093_320:0000000000000000 testEncryptionAndDecryption_Karatsuba_4093_320
/var/folders/mm/zr_rkfjd2qvbw_fkp36g3p0m0000gn/T//ccmEMrLm.s:6005   .progmem.data.pubKeyP_4093_320:0000000000000000 pubKeyP_4093_320
/var/folders/mm/zr_rkfjd2qvbw_fkp36g3p0m0000gn/T//ccmEMrLm.s:5680   .progmem.data.pubKeyA_4093_320:0000000000000000 pubKeyA_4093_320
/var/folders/mm/zr_rkfjd2qvbw_fkp36g3p0m0000gn/T//ccmEMrLm.s:2157   .text.testEncryptionAndDecryption_Karatsuba_4096_192:0000000000000000 testEncryptionAndDecryption_Karatsuba_4096_192
/var/folders/mm/zr_rkfjd2qvbw_fkp36g3p0m0000gn/T//ccmEMrLm.s:5286   .progmem.data.pubKeyP_4096_192:0000000000000000 pubKeyP_4096_192
/var/folders/mm/zr_rkfjd2qvbw_fkp36g3p0m0000gn/T//ccmEMrLm.s:5089   .progmem.data.pubKeyA_4096_192:0000000000000000 pubKeyA_4096_192
/var/folders/mm/zr_rkfjd2qvbw_fkp36g3p0m0000gn/T//ccmEMrLm.s:5483   .progmem.data.prvKeyR2_4096_192:0000000000000000 prvKeyR2_4096_192
/var/folders/mm/zr_rkfjd2qvbw_fkp36g3p0m0000gn/T//ccmEMrLm.s:2330   .text.testEncryptionAndDecryption_Karatsuba_4096_256:0000000000000000 testEncryptionAndDecryption_Karatsuba_4096_256
/var/folders/mm/zr_rkfjd2qvbw_fkp36g3p0m0000gn/T//ccmEMrLm.s:4567   .progmem.data.pubKeyP_4096_256:0000000000000000 pubKeyP_4096_256
/var/folders/mm/zr_rkfjd2qvbw_fkp36g3p0m0000gn/T//ccmEMrLm.s:4306   .progmem.data.pubKeyA_4096_256:0000000000000000 pubKeyA_4096_256
/var/folders/mm/zr_rkfjd2qvbw_fkp36g3p0m0000gn/T//ccmEMrLm.s:4828   .progmem.data.prvKeyR2_4096_256:0000000000000000 prvKeyR2_4096_256
/var/folders/mm/zr_rkfjd2qvbw_fkp36g3p0m0000gn/T//ccmEMrLm.s:2505   .text.testEncryptionAndDecryption_Karatsuba_4096_320:0000000000000000 testEncryptionAndDecryption_Karatsuba_4096_320
/var/folders/mm/zr_rkfjd2qvbw_fkp36g3p0m0000gn/T//ccmEMrLm.s:3656   .progmem.data.pubKeyP_4096_320:0000000000000000 pubKeyP_4096_320
/var/folders/mm/zr_rkfjd2qvbw_fkp36g3p0m0000gn/T//ccmEMrLm.s:3331   .progmem.data.pubKeyA_4096_320:0000000000000000 pubKeyA_4096_320
/var/folders/mm/zr_rkfjd2qvbw_fkp36g3p0m0000gn/T//ccmEMrLm.s:3981   .progmem.data.prvKeyR2_4096_320:0000000000000000 prvKeyR2_4096_320
/var/folders/mm/zr_rkfjd2qvbw_fkp36g3p0m0000gn/T//ccmEMrLm.s:2679   .text.testEncryptionAndDecryption_School_4093_192:0000000000000000 testEncryptionAndDecryption_School_4093_192
/var/folders/mm/zr_rkfjd2qvbw_fkp36g3p0m0000gn/T//ccmEMrLm.s:2852   .text.testEncryptionAndDecryption_School_4093_256:0000000000000000 testEncryptionAndDecryption_School_4093_256
/var/folders/mm/zr_rkfjd2qvbw_fkp36g3p0m0000gn/T//ccmEMrLm.s:3025   .text.testEncryptionAndDecryption_School_4093_320:0000000000000000 testEncryptionAndDecryption_School_4093_320
/var/folders/mm/zr_rkfjd2qvbw_fkp36g3p0m0000gn/T//ccmEMrLm.s:3196   .text.startup.main:0000000000000000 main

UNDEFINED SYMBOLS
get_random_bits25
__udivmodsi4
printf
set_max_recursion_stages
karatsuba_4093_192
school_4093_192
karatsuba_4093_256
school_4093_256
karatsuba_4093_320
school_4093_320
encrypt_7681_256
decrypt_7681_256
encrypt_12289_512
decrypt_12289_512
encrypt_ksuba_4093
decrypt_ksuba_4093
encrypt_ksuba_4096
decrypt_ksuba_4096
encrypt_4093
decrypt_4093
CLKSYS_Main_ClockSource_Select
CLKSYS_Disable
USARTinit
avr_trng_init
putchar
set_max_recursion_stages4096
__do_copy_data
__do_clear_bss
