
K4093_256.elf:     file format elf32-avr

Sections:
Idx Name          Size      VMA       LMA       File off  Algn
  0 .text         000018d8  00000000  00000000  00000094  2**1
                  CONTENTS, ALLOC, LOAD, READONLY, CODE
  1 .data         00000002  00802000  000018d8  0000196c  2**0
                  CONTENTS, ALLOC, LOAD, DATA
  2 .bss          00000020  00802002  00802002  0000196e  2**0
                  ALLOC
  3 .stab         00004038  00000000  00000000  00001970  2**2
                  CONTENTS, READONLY, DEBUGGING
  4 .stabstr      0000d63b  00000000  00000000  000059a8  2**0
                  CONTENTS, READONLY, DEBUGGING
  5 .comment      00000011  00000000  00000000  00012fe3  2**0
                  CONTENTS, READONLY
  6 .note.gnu.avr.deviceinfo 00000040  00000000  00000000  00012ff4  2**2
                  CONTENTS, READONLY, OCTETS
  7 .debug_info   0000354c  00000000  00000000  00013034  2**0
                  CONTENTS, READONLY, DEBUGGING, OCTETS
  8 .debug_abbrev 0000327a  00000000  00000000  00016580  2**0
                  CONTENTS, READONLY, DEBUGGING, OCTETS
  9 .debug_line   0000001d  00000000  00000000  000197fa  2**0
                  CONTENTS, READONLY, DEBUGGING, OCTETS
 10 .debug_str    000023b9  00000000  00000000  00019817  2**0
                  CONTENTS, READONLY, DEBUGGING, OCTETS

Disassembly of section .text:

00000000 <__vectors>:
       0:	0c 94 d8 04 	jmp	0x9b0	; 0x9b0 <__ctors_end>
       4:	0c 94 fe 04 	jmp	0x9fc	; 0x9fc <__bad_interrupt>
       8:	0c 94 fe 04 	jmp	0x9fc	; 0x9fc <__bad_interrupt>
       c:	0c 94 fe 04 	jmp	0x9fc	; 0x9fc <__bad_interrupt>
      10:	0c 94 fe 04 	jmp	0x9fc	; 0x9fc <__bad_interrupt>
      14:	0c 94 fe 04 	jmp	0x9fc	; 0x9fc <__bad_interrupt>
      18:	0c 94 fe 04 	jmp	0x9fc	; 0x9fc <__bad_interrupt>
      1c:	0c 94 fe 04 	jmp	0x9fc	; 0x9fc <__bad_interrupt>
      20:	0c 94 fe 04 	jmp	0x9fc	; 0x9fc <__bad_interrupt>
      24:	0c 94 fe 04 	jmp	0x9fc	; 0x9fc <__bad_interrupt>
      28:	0c 94 fe 04 	jmp	0x9fc	; 0x9fc <__bad_interrupt>
      2c:	0c 94 fe 04 	jmp	0x9fc	; 0x9fc <__bad_interrupt>
      30:	0c 94 fe 04 	jmp	0x9fc	; 0x9fc <__bad_interrupt>
      34:	0c 94 fe 04 	jmp	0x9fc	; 0x9fc <__bad_interrupt>
      38:	0c 94 fe 04 	jmp	0x9fc	; 0x9fc <__bad_interrupt>
      3c:	0c 94 fe 04 	jmp	0x9fc	; 0x9fc <__bad_interrupt>
      40:	0c 94 fe 04 	jmp	0x9fc	; 0x9fc <__bad_interrupt>
      44:	0c 94 fe 04 	jmp	0x9fc	; 0x9fc <__bad_interrupt>
      48:	0c 94 fe 04 	jmp	0x9fc	; 0x9fc <__bad_interrupt>
      4c:	0c 94 fe 04 	jmp	0x9fc	; 0x9fc <__bad_interrupt>
      50:	0c 94 fe 04 	jmp	0x9fc	; 0x9fc <__bad_interrupt>
      54:	0c 94 fe 04 	jmp	0x9fc	; 0x9fc <__bad_interrupt>
      58:	0c 94 fe 04 	jmp	0x9fc	; 0x9fc <__bad_interrupt>
      5c:	0c 94 fe 04 	jmp	0x9fc	; 0x9fc <__bad_interrupt>
      60:	0c 94 fe 04 	jmp	0x9fc	; 0x9fc <__bad_interrupt>
      64:	0c 94 fe 04 	jmp	0x9fc	; 0x9fc <__bad_interrupt>
      68:	0c 94 fe 04 	jmp	0x9fc	; 0x9fc <__bad_interrupt>
      6c:	0c 94 fe 04 	jmp	0x9fc	; 0x9fc <__bad_interrupt>
      70:	0c 94 fe 04 	jmp	0x9fc	; 0x9fc <__bad_interrupt>
      74:	0c 94 fe 04 	jmp	0x9fc	; 0x9fc <__bad_interrupt>
      78:	0c 94 fe 04 	jmp	0x9fc	; 0x9fc <__bad_interrupt>
      7c:	0c 94 fe 04 	jmp	0x9fc	; 0x9fc <__bad_interrupt>
      80:	0c 94 fe 04 	jmp	0x9fc	; 0x9fc <__bad_interrupt>
      84:	0c 94 fe 04 	jmp	0x9fc	; 0x9fc <__bad_interrupt>
      88:	0c 94 fe 04 	jmp	0x9fc	; 0x9fc <__bad_interrupt>
      8c:	0c 94 fe 04 	jmp	0x9fc	; 0x9fc <__bad_interrupt>
      90:	0c 94 fe 04 	jmp	0x9fc	; 0x9fc <__bad_interrupt>
      94:	0c 94 fe 04 	jmp	0x9fc	; 0x9fc <__bad_interrupt>
      98:	0c 94 fe 04 	jmp	0x9fc	; 0x9fc <__bad_interrupt>
      9c:	0c 94 fe 04 	jmp	0x9fc	; 0x9fc <__bad_interrupt>
      a0:	0c 94 fe 04 	jmp	0x9fc	; 0x9fc <__bad_interrupt>
      a4:	0c 94 fe 04 	jmp	0x9fc	; 0x9fc <__bad_interrupt>
      a8:	0c 94 fe 04 	jmp	0x9fc	; 0x9fc <__bad_interrupt>
      ac:	0c 94 fe 04 	jmp	0x9fc	; 0x9fc <__bad_interrupt>
      b0:	0c 94 fe 04 	jmp	0x9fc	; 0x9fc <__bad_interrupt>
      b4:	0c 94 fe 04 	jmp	0x9fc	; 0x9fc <__bad_interrupt>
      b8:	0c 94 fe 04 	jmp	0x9fc	; 0x9fc <__bad_interrupt>
      bc:	0c 94 fe 04 	jmp	0x9fc	; 0x9fc <__bad_interrupt>
      c0:	0c 94 fe 04 	jmp	0x9fc	; 0x9fc <__bad_interrupt>
      c4:	0c 94 fe 04 	jmp	0x9fc	; 0x9fc <__bad_interrupt>
      c8:	0c 94 fe 04 	jmp	0x9fc	; 0x9fc <__bad_interrupt>
      cc:	0c 94 fe 04 	jmp	0x9fc	; 0x9fc <__bad_interrupt>
      d0:	0c 94 fe 04 	jmp	0x9fc	; 0x9fc <__bad_interrupt>
      d4:	0c 94 fe 04 	jmp	0x9fc	; 0x9fc <__bad_interrupt>
      d8:	0c 94 fe 04 	jmp	0x9fc	; 0x9fc <__bad_interrupt>
      dc:	0c 94 fe 04 	jmp	0x9fc	; 0x9fc <__bad_interrupt>
      e0:	0c 94 fe 04 	jmp	0x9fc	; 0x9fc <__bad_interrupt>
      e4:	0c 94 fe 04 	jmp	0x9fc	; 0x9fc <__bad_interrupt>
      e8:	0c 94 fe 04 	jmp	0x9fc	; 0x9fc <__bad_interrupt>
      ec:	0c 94 fe 04 	jmp	0x9fc	; 0x9fc <__bad_interrupt>
      f0:	0c 94 fe 04 	jmp	0x9fc	; 0x9fc <__bad_interrupt>
      f4:	0c 94 fe 04 	jmp	0x9fc	; 0x9fc <__bad_interrupt>
      f8:	0c 94 fe 04 	jmp	0x9fc	; 0x9fc <__bad_interrupt>
      fc:	0c 94 fe 04 	jmp	0x9fc	; 0x9fc <__bad_interrupt>
     100:	0c 94 fe 04 	jmp	0x9fc	; 0x9fc <__bad_interrupt>
     104:	0c 94 fe 04 	jmp	0x9fc	; 0x9fc <__bad_interrupt>
     108:	0c 94 fe 04 	jmp	0x9fc	; 0x9fc <__bad_interrupt>
     10c:	0c 94 fe 04 	jmp	0x9fc	; 0x9fc <__bad_interrupt>
     110:	0c 94 fe 04 	jmp	0x9fc	; 0x9fc <__bad_interrupt>
     114:	0c 94 fe 04 	jmp	0x9fc	; 0x9fc <__bad_interrupt>
     118:	0c 94 fe 04 	jmp	0x9fc	; 0x9fc <__bad_interrupt>
     11c:	0c 94 fe 04 	jmp	0x9fc	; 0x9fc <__bad_interrupt>
     120:	0c 94 fe 04 	jmp	0x9fc	; 0x9fc <__bad_interrupt>
     124:	0c 94 fe 04 	jmp	0x9fc	; 0x9fc <__bad_interrupt>
     128:	0c 94 fe 04 	jmp	0x9fc	; 0x9fc <__bad_interrupt>
     12c:	0c 94 fe 04 	jmp	0x9fc	; 0x9fc <__bad_interrupt>
     130:	0c 94 fe 04 	jmp	0x9fc	; 0x9fc <__bad_interrupt>
     134:	0c 94 fe 04 	jmp	0x9fc	; 0x9fc <__bad_interrupt>
     138:	0c 94 fe 04 	jmp	0x9fc	; 0x9fc <__bad_interrupt>
     13c:	0c 94 fe 04 	jmp	0x9fc	; 0x9fc <__bad_interrupt>
     140:	0c 94 fe 04 	jmp	0x9fc	; 0x9fc <__bad_interrupt>
     144:	0c 94 fe 04 	jmp	0x9fc	; 0x9fc <__bad_interrupt>
     148:	0c 94 fe 04 	jmp	0x9fc	; 0x9fc <__bad_interrupt>
     14c:	0c 94 fe 04 	jmp	0x9fc	; 0x9fc <__bad_interrupt>
     150:	0c 94 fe 04 	jmp	0x9fc	; 0x9fc <__bad_interrupt>
     154:	0c 94 fe 04 	jmp	0x9fc	; 0x9fc <__bad_interrupt>
     158:	0c 94 fe 04 	jmp	0x9fc	; 0x9fc <__bad_interrupt>
     15c:	0c 94 fe 04 	jmp	0x9fc	; 0x9fc <__bad_interrupt>
     160:	0c 94 fe 04 	jmp	0x9fc	; 0x9fc <__bad_interrupt>
     164:	0c 94 fe 04 	jmp	0x9fc	; 0x9fc <__bad_interrupt>
     168:	0c 94 fe 04 	jmp	0x9fc	; 0x9fc <__bad_interrupt>
     16c:	0c 94 fe 04 	jmp	0x9fc	; 0x9fc <__bad_interrupt>
     170:	0c 94 fe 04 	jmp	0x9fc	; 0x9fc <__bad_interrupt>
     174:	0c 94 fe 04 	jmp	0x9fc	; 0x9fc <__bad_interrupt>
     178:	0c 94 fe 04 	jmp	0x9fc	; 0x9fc <__bad_interrupt>
     17c:	0c 94 fe 04 	jmp	0x9fc	; 0x9fc <__bad_interrupt>
     180:	0c 94 fe 04 	jmp	0x9fc	; 0x9fc <__bad_interrupt>
     184:	0c 94 fe 04 	jmp	0x9fc	; 0x9fc <__bad_interrupt>
     188:	0c 94 fe 04 	jmp	0x9fc	; 0x9fc <__bad_interrupt>
     18c:	0c 94 fe 04 	jmp	0x9fc	; 0x9fc <__bad_interrupt>
     190:	0c 94 fe 04 	jmp	0x9fc	; 0x9fc <__bad_interrupt>
     194:	0c 94 fe 04 	jmp	0x9fc	; 0x9fc <__bad_interrupt>
     198:	0c 94 fe 04 	jmp	0x9fc	; 0x9fc <__bad_interrupt>
     19c:	0c 94 fe 04 	jmp	0x9fc	; 0x9fc <__bad_interrupt>
     1a0:	0c 94 fe 04 	jmp	0x9fc	; 0x9fc <__bad_interrupt>
     1a4:	0c 94 fe 04 	jmp	0x9fc	; 0x9fc <__bad_interrupt>
     1a8:	0c 94 fe 04 	jmp	0x9fc	; 0x9fc <__bad_interrupt>
     1ac:	0c 94 fe 04 	jmp	0x9fc	; 0x9fc <__bad_interrupt>
     1b0:	0c 94 fe 04 	jmp	0x9fc	; 0x9fc <__bad_interrupt>
     1b4:	0c 94 fe 04 	jmp	0x9fc	; 0x9fc <__bad_interrupt>
     1b8:	0c 94 fe 04 	jmp	0x9fc	; 0x9fc <__bad_interrupt>
     1bc:	0c 94 fe 04 	jmp	0x9fc	; 0x9fc <__bad_interrupt>
     1c0:	0c 94 fe 04 	jmp	0x9fc	; 0x9fc <__bad_interrupt>
     1c4:	0c 94 fe 04 	jmp	0x9fc	; 0x9fc <__bad_interrupt>
     1c8:	0c 94 fe 04 	jmp	0x9fc	; 0x9fc <__bad_interrupt>
     1cc:	0c 94 fe 04 	jmp	0x9fc	; 0x9fc <__bad_interrupt>
     1d0:	0c 94 fe 04 	jmp	0x9fc	; 0x9fc <__bad_interrupt>
     1d4:	0c 94 fe 04 	jmp	0x9fc	; 0x9fc <__bad_interrupt>
     1d8:	0c 94 fe 04 	jmp	0x9fc	; 0x9fc <__bad_interrupt>
     1dc:	0c 94 fe 04 	jmp	0x9fc	; 0x9fc <__bad_interrupt>
     1e0:	0c 94 fe 04 	jmp	0x9fc	; 0x9fc <__bad_interrupt>
     1e4:	0c 94 fe 04 	jmp	0x9fc	; 0x9fc <__bad_interrupt>
     1e8:	0c 94 fe 04 	jmp	0x9fc	; 0x9fc <__bad_interrupt>
     1ec:	0c 94 fe 04 	jmp	0x9fc	; 0x9fc <__bad_interrupt>
     1f0:	0c 94 fe 04 	jmp	0x9fc	; 0x9fc <__bad_interrupt>

000001f4 <cdf_table_4093_8000>:
     1f4:	1f ff ff ff ff ff ff ff ff ff ff ff 5c ef 2c 24     ............\.,$
     204:	88 06 c8 27 16 1a bd 18 91 86 50 6b cc 06 5f 20     ...'......Pk.._ 
     214:	43 44 c1 25 ba ab 5f 82 bc db 43 b3 5d 62 ce 65     CD.%.._...C.]b.e
     224:	d7 d9 76 9f ad 23 bc b1 14 11 f5 51 ea 9b e2 f4     ..v..#.....Q....
     234:	d6 dd b5 ed 7e 15 26 d5 f5 8a 99 47 49 19 b8 c9     ....~.&....GI...
     244:	e7 d2 a1 37 fb 51 17 81 27 53 b7 b8 e8 a7 73 d9     ...7.Q..'S....s.
     254:	fe 15 1b d0 92 85 96 d3 14 8c b4 9f ff 48 75 08     .............Hu.
     264:	ba 9f 72 08 07 e4 4d 00 ff c1 66 86 27 0c fc 82     ..r...M...f.'...
     274:	1a 54 09 be ff ec 8a c3 c1 59 43 1b fd c9 9b fd     .T.......YC.....
     284:	ff fa 7d f4 b6 e9 2c 28 a6 fc d4 c0 ff fe 94 bb     ..}...,(........
     294:	45 54 b5 ac 4b 86 9c 62 ff ff aa de 1b 1c aa 95     ET..K..b........
     2a4:	ec 72 32 9e ff ff ed dc 1c 64 36 dc 33 7f 63 16     .r2......d6.3.c.
     2b4:	ff ff fc 7c 9d c2 56 9a d9 5e 7b 2c ff ff ff 61     ...|..V..^{,...a
     2c4:	bc 33 7f ed 8e 0b 13 2a ff ff ff e6 b3 cf 05 f7     .3.....*........
     2d4:	05 b9 d7 25 ff ff ff fc 53 ea 61 0e 99 e8 f7 2b     ...%....S.a....+
     2e4:	ff ff ff ff 84 19 43 de c6 e2 f0 d7 ff ff ff ff     ......C.........
     2f4:	f1 2d 07 ec 47 45 91 3c ff ff ff ff fe 63 e3 48     .-..GE.<.....c.H
     304:	ee 62 d4 20 ff ff ff ff ff d7 62 c7 06 4a 0c 6c     .b. ......b..J.l
     314:	ff ff ff ff ff fc 5e 37 c6 72 f3 a6 ff ff ff ff     ......^7.r......
     324:	ff ff b4 8f 6a be f8 b0 ff ff ff ff ff ff fa 72     ....j..........r
     334:	69 75 98 ce ff ff ff ff ff ff ff a1 12 f5 a3 0d     iu..............
     344:	ff ff ff ff ff ff ff fa 40 16 ed 3d ff ff ff ff     ........@..=....
     354:	ff ff ff ff af 22 d9 af ff ff ff ff ff ff ff ff     ....."..........
     364:	fb f8 86 81 ff ff ff ff ff ff ff ff ff d1 63 85     ..............c.
     374:	ff ff ff ff ff ff ff ff ff fe 16 ff ff ff ff ff     ................
     384:	ff ff ff ff ff ff ed d3 ff ff ff ff ff ff ff ff     ................
     394:	ff ff ff 62 ff ff ff ff ff ff ff ff ff ff ff fa     ...b............
     3a4:	ff ff ff ff ff ff ff ff ff ff ff ff                 ............

000003b0 <pubKeyA_4093_256>:
     3b0:	1e 04 ce 06 c4 05 3c 09 d4 03 fb 0e 46 09 63 07     ......<.....F.c.
     3c0:	fc 0a 6d 0e 00 05 95 02 2b 0e 01 06 72 08 f6 06     ..m.....+...r...
     3d0:	4c 09 76 09 9f 04 7b 02 7f 03 bf 09 a8 01 d8 08     L.v...{.........
     3e0:	96 0f 36 04 08 02 7f 0a 7a 0d 22 0f 07 04 25 03     ..6.....z."...%.
     3f0:	83 00 d0 07 0e 07 08 04 d0 01 ac 09 50 0f 36 09     ............P.6.
     400:	5a 0b f3 08 4c 09 0f 00 71 08 3b 05 c7 0b ec 0a     Z...L...q.;.....
     410:	c0 00 72 0e 24 08 54 09 34 0f 2b 08 67 0a d2 02     ..r.$.T.4.+.g...
     420:	1b 09 d0 02 5c 0f 0c 01 21 0c 48 07 a4 08 bc 0f     ....\...!.H.....
     430:	60 0a 45 0b a4 03 d8 0a 64 00 f8 05 77 09 72 02     `.E.....d...w.r.
     440:	36 06 2f 06 2e 02 4c 06 89 0a 0d 01 f3 02 bf 0d     6./...L.........
     450:	c9 08 dd 0c 3a 06 81 04 ab 02 a5 0a 0f 07 c3 04     ....:...........
     460:	3b 05 a8 07 e3 0f 41 09 7a 00 d8 0f 4f 01 6b 0c     ;.....A.z...O.k.
     470:	bf 0e f9 01 82 0e 77 0d 68 0f 9b 05 4f 0f 03 0f     ......w.h...O...
     480:	bb 0b ef 0e c8 0d 88 03 c9 02 5b 06 9e 09 10 04     ..........[.....
     490:	fd 04 aa 01 52 0a d7 0a b1 02 ab 0d ab 0e dc 02     ....R...........
     4a0:	3f 0d c2 06 db 06 65 06 52 0a 57 00 fc 0e ef 03     ?.....e.R.W.....
     4b0:	dd 06 90 04 9b 0d 8c 08 d5 0c 22 09 2e 0c fc 03     ..........".....
     4c0:	9e 02 98 09 da 06 3a 0d b3 07 b5 00 4b 09 e2 08     ......:.....K...
     4d0:	2d 04 ee 01 36 04 a8 0a bf 09 41 06 85 02 65 0a     -...6.....A...e.
     4e0:	fa 0d 39 00 a1 0e 4e 0d 2e 0f aa 03 20 02 94 01     ..9...N..... ...
     4f0:	98 0a 6d 08 74 02 40 00 08 08 e4 0e 21 0c a9 0c     ..m.t.@.....!...
     500:	3f 07 4e 09 0c 06 e2 03 dd 07 2d 07 d2 0f d8 02     ?.N.......-.....
     510:	fa 0e 28 09 b8 07 c0 09 d2 01 38 04 e8 09 34 0f     ..(.......8...4.
     520:	8b 0b 8d 0d 8a 02 d1 0d 14 05 62 0d 11 08 3c 03     ..........b...<.
     530:	a6 02 65 09 c3 03 b0 01 af 0f aa 07 e4 05 0d 07     ..e.............
     540:	65 06 35 01 87 09 83 06 0c 0f ef 0c 77 08 d2 00     e.5.........w...
     550:	85 0d 10 01 2b 03 af 0d 3a 04 b8 0a 70 01 c0 00     ....+...:...p...
     560:	27 03 d0 03 78 02 78 01 46 09 83 0e 11 03 33 06     '...x.x.F.....3.
     570:	b1 01 bd 08 10 08 3e 0c be 0a dc 02 c5 06 4b 08     ......>.......K.
     580:	87 0e f4 0f af 04 3a 0b f8 0d 59 0e d6 06 94 03     ......:...Y.....
     590:	19 06 f3 0b 6c 0e 08 06 0c 03 43 00 a4 0d df 0a     ....l.....C.....
     5a0:	2f 03 4d 06 9e 0c 93 03 2e 0e f2 08 04 01 4b 0b     /.M...........K.

000005b0 <pubKeyP_4093_256>:
     5b0:	f6 0d 42 0e 6f 0d 0d 0c b4 03 ea 0a f9 0e 04 0c     ..B.o...........
     5c0:	cf 05 35 0d 83 01 3d 04 ea 01 4d 08 10 0d e0 0d     ..5...=...M.....
     5d0:	85 0d 7a 00 ab 05 56 09 28 06 b0 08 9a 06 64 0c     ..z...V.(.....d.
     5e0:	a9 07 c2 09 0f 04 29 04 31 06 41 0a cb 0f 72 07     ......).1.A...r.
     5f0:	e7 07 9a 00 61 07 46 0e a0 08 70 03 79 03 75 05     ....a.F...p.y.u.
     600:	43 0a c4 02 c4 0e 13 01 af 07 d8 06 d6 0d 0f 07     C...............
     610:	a5 01 28 01 e2 08 d0 0f dd 0c 85 0b 21 01 9d 09     ..(.........!...
     620:	ec 04 0d 04 c5 06 7e 0a c3 0c f4 09 0a 08 f0 05     ......~.........
     630:	00 05 be 0e 71 0e 61 03 98 00 6b 0d b2 02 b7 0d     ....q.a...k.....
     640:	bf 0e 5d 0d 1f 02 64 09 59 00 bd 0d c5 0d 10 05     ..]...d.Y.......
     650:	51 00 26 02 d3 06 32 06 13 02 98 0a ef 07 b0 0b     Q.&...2.........
     660:	18 07 a1 05 a0 08 f0 02 ee 09 30 0d b8 05 76 01     ..........0...v.
     670:	d3 05 03 0d 02 09 77 0d ed 03 e5 08 f3 02 01 0a     ......w.........
     680:	a4 00 e3 0d 07 01 71 0d d5 0a 80 0e fe 07 a8 0d     ......q.........
     690:	92 04 ce 04 32 00 ec 02 40 00 50 0e 75 06 17 08     ....2...@.P.u...
     6a0:	fb 0d 95 0f e8 08 6a 06 12 0d f9 06 3b 01 ac 0e     ......j.....;...
     6b0:	85 04 9f 0b 48 06 c1 05 20 00 31 07 d8 09 15 09     ....H... .1.....
     6c0:	df 0a 2b 0a 9f 03 70 0b 99 04 99 02 5e 04 08 02     ..+...p.....^...
     6d0:	a9 00 ea 09 e7 05 19 02 ee 0e cf 09 b0 0f b5 09     ................
     6e0:	21 00 28 0d 3a 0e 74 0d ed 06 5f 04 81 0e 1a 03     !.(.:.t..._.....
     6f0:	64 06 87 0f c6 03 51 07 cc 00 8b 06 b3 01 d4 01     d.....Q.........
     700:	fc 0c fe 0b 65 08 cd 0d 77 03 dc 02 b7 03 d3 0d     ....e...w.......
     710:	09 0a 1d 0e 47 08 8f 0e a0 01 48 06 cc 07 f9 02     ....G.....H.....
     720:	83 09 ce 02 2a 0d 92 0d 0b 04 6c 0e 74 07 d9 02     ....*.....l.t...
     730:	78 00 ed 0b 9f 07 e7 0f c6 06 40 0b 79 0c 0c 03     x.........@.y...
     740:	07 0a 53 08 64 08 f3 07 50 0d a0 03 84 02 49 08     ..S.d...P.....I.
     750:	86 00 62 08 18 0e c4 05 87 08 f9 09 e0 07 14 0e     ..b.............
     760:	02 08 ea 0a 56 0f e6 07 a2 0f 55 02 c1 0c be 0f     ....V.....U.....
     770:	a7 0c d7 05 8e 08 8c 02 11 0e ef 03 e0 0c 59 03     ..............Y.
     780:	ad 03 76 00 73 09 59 0a 8a 09 d1 04 49 0c 16 05     ..v.s.Y.....I...
     790:	1c 0e 81 04 96 06 1d 03 69 03 11 02 13 0a 75 0c     ........i.....u.
     7a0:	80 09 fa 0f 03 03 ac 0f 0c 0e 22 03 1e 05 7d 01     .........."...}.

000007b0 <prvKeyR2_4093_256>:
	...
     7dc:	00 00 01 00 00 00 00 00 00 00 00 00 00 00 00 00     ................
	...
     850:	01 00 00 00 00 00 00 00 00 00 00 00 00 00 01 00     ................
	...
     86c:	00 00 01 00 00 00 00 00 00 00 00 00 00 00 01 00     ................
	...
     89c:	01 00 00 00 00 00 00 00 00 00 00 00 00 00 00 00     ................
	...
     8c4:	00 00 01 00 00 00 00 00 00 00 00 00 00 00 00 00     ................
	...
     968:	00 00 01 00 00 00 00 00 00 00 00 00 00 00 00 00     ................
	...
     9a0:	00 00 01 00 00 00 00 00 00 00 00 00 00 00 00 00     ................

000009b0 <__ctors_end>:
     9b0:	11 24       	eor	r1, r1
     9b2:	1f be       	out	0x3f, r1	; 63
     9b4:	cf ef       	ldi	r28, 0xFF	; 255
     9b6:	cd bf       	out	0x3d, r28	; 61
     9b8:	df e3       	ldi	r29, 0x3F	; 63
     9ba:	de bf       	out	0x3e, r29	; 62
     9bc:	00 e0       	ldi	r16, 0x00	; 0
     9be:	0c bf       	out	0x3c, r16	; 60
     9c0:	18 be       	out	0x38, r1	; 56
     9c2:	19 be       	out	0x39, r1	; 57
     9c4:	1a be       	out	0x3a, r1	; 58
     9c6:	1b be       	out	0x3b, r1	; 59

000009c8 <__do_copy_data>:
     9c8:	10 e2       	ldi	r17, 0x20	; 32
     9ca:	a0 e0       	ldi	r26, 0x00	; 0
     9cc:	b0 e2       	ldi	r27, 0x20	; 32
     9ce:	e8 ed       	ldi	r30, 0xD8	; 216
     9d0:	f8 e1       	ldi	r31, 0x18	; 24
     9d2:	00 e0       	ldi	r16, 0x00	; 0
     9d4:	0b bf       	out	0x3b, r16	; 59
     9d6:	02 c0       	rjmp	.+4      	; 0x9dc <__do_copy_data+0x14>
     9d8:	07 90       	elpm	r0, Z+
     9da:	0d 92       	st	X+, r0
     9dc:	a2 30       	cpi	r26, 0x02	; 2
     9de:	b1 07       	cpc	r27, r17
     9e0:	d9 f7       	brne	.-10     	; 0x9d8 <__do_copy_data+0x10>
     9e2:	1b be       	out	0x3b, r1	; 59

000009e4 <__do_clear_bss>:
     9e4:	20 e2       	ldi	r18, 0x20	; 32
     9e6:	a2 e0       	ldi	r26, 0x02	; 2
     9e8:	b0 e2       	ldi	r27, 0x20	; 32
     9ea:	01 c0       	rjmp	.+2      	; 0x9ee <.do_clear_bss_start>

000009ec <.do_clear_bss_loop>:
     9ec:	1d 92       	st	X+, r1

000009ee <.do_clear_bss_start>:
     9ee:	a2 32       	cpi	r26, 0x22	; 34
     9f0:	b2 07       	cpc	r27, r18
     9f2:	e1 f7       	brne	.-8      	; 0x9ec <.do_clear_bss_loop>
     9f4:	0e 94 1b 0c 	call	0x1836	; 0x1836 <main>
     9f8:	0c 94 6a 0c 	jmp	0x18d4	; 0x18d4 <_exit>

000009fc <__bad_interrupt>:
     9fc:	0c 94 00 00 	jmp	0	; 0x0 <__vectors>

00000a00 <mulRed_asm_4093>:
     a00:	aa 24       	eor	r10, r10
     a02:	97 9f       	mul	r25, r23
     a04:	80 2c       	mov	r8, r0
     a06:	86 9f       	mul	r24, r22
     a08:	60 2c       	mov	r6, r0
     a0a:	11 2d       	mov	r17, r1
     a0c:	96 9f       	mul	r25, r22
     a0e:	10 0d       	add	r17, r0
     a10:	81 1c       	adc	r8, r1
     a12:	87 9f       	mul	r24, r23
     a14:	10 0d       	add	r17, r0
     a16:	81 1c       	adc	r8, r1
     a18:	91 2e       	mov	r9, r17
     a1a:	86 94       	lsr	r8
     a1c:	97 94       	ror	r9
     a1e:	86 94       	lsr	r8
     a20:	97 94       	ror	r9
     a22:	86 94       	lsr	r8
     a24:	97 94       	ror	r9
     a26:	86 94       	lsr	r8
     a28:	97 94       	ror	r9
     a2a:	1f 70       	andi	r17, 0x0F	; 15
     a2c:	89 2d       	mov	r24, r9
     a2e:	98 2d       	mov	r25, r8
     a30:	88 0f       	add	r24, r24
     a32:	99 1f       	adc	r25, r25
     a34:	89 0d       	add	r24, r9
     a36:	98 1d       	adc	r25, r8
     a38:	86 0d       	add	r24, r6
     a3a:	91 1f       	adc	r25, r17

00000a3c <test_reduction>:
     a3c:	9f 30       	cpi	r25, 0x0F	; 15
     a3e:	38 f0       	brcs	.+14     	; 0xa4e <end_mul>
     a40:	09 f0       	breq	.+2      	; 0xa44 <consider_reduction>
     a42:	02 c0       	rjmp	.+4      	; 0xa48 <do_reduction>

00000a44 <consider_reduction>:
     a44:	8d 3f       	cpi	r24, 0xFD	; 253
     a46:	18 f0       	brcs	.+6      	; 0xa4e <end_mul>

00000a48 <do_reduction>:
     a48:	8d 5f       	subi	r24, 0xFD	; 253
     a4a:	9f 40       	sbci	r25, 0x0F	; 15
     a4c:	f7 cf       	rjmp	.-18     	; 0xa3c <test_reduction>

00000a4e <end_mul>:
     a4e:	08 95       	ret

00000a50 <polyMul_asm_4093_256>:
     a50:	0f 92       	push	r0
     a52:	1f 92       	push	r1
     a54:	6f 92       	push	r6
     a56:	7f 92       	push	r7
     a58:	8f 92       	push	r8
     a5a:	9f 92       	push	r9
     a5c:	af 92       	push	r10
     a5e:	ef 92       	push	r14
     a60:	ff 92       	push	r15
     a62:	0f 93       	push	r16
     a64:	1f 93       	push	r17
     a66:	2f 93       	push	r18
     a68:	3f 93       	push	r19
     a6a:	af 93       	push	r26
     a6c:	bf 93       	push	r27
     a6e:	cf 93       	push	r28
     a70:	df 93       	push	r29
     a72:	ef 93       	push	r30
     a74:	ff 93       	push	r31
     a76:	00 27       	eor	r16, r16
     a78:	77 24       	eor	r7, r7
     a7a:	33 27       	eor	r19, r19
     a7c:	dc 01       	movw	r26, r24
     a7e:	fb 01       	movw	r30, r22
     a80:	7b 01       	movw	r14, r22

00000a82 <inner_loop>:
     a82:	22 27       	eor	r18, r18
     a84:	20 0f       	add	r18, r16
     a86:	27 0d       	add	r18, r7
     a88:	b0 f4       	brcc	.+44     	; 0xab6 <no_carry>
     a8a:	8d 91       	ld	r24, X+
     a8c:	9c 91       	ld	r25, X
     a8e:	65 91       	lpm	r22, Z+
     a90:	75 91       	lpm	r23, Z+
     a92:	0e 94 00 05 	call	0xa00	; 0xa00 <mulRed_asm_4093>
     a96:	ea 01       	movw	r28, r20
     a98:	c2 0f       	add	r28, r18
     a9a:	d3 1f       	adc	r29, r19
     a9c:	c2 0f       	add	r28, r18
     a9e:	d3 1f       	adc	r29, r19
     aa0:	69 91       	ld	r22, Y+
     aa2:	78 81       	ld	r23, Y
     aa4:	68 1b       	sub	r22, r24
     aa6:	79 0b       	sbc	r23, r25
     aa8:	e0 f4       	brcc	.+56     	; 0xae2 <end>
     aaa:	3d ef       	ldi	r19, 0xFD	; 253
     aac:	63 0f       	add	r22, r19
     aae:	3f e0       	ldi	r19, 0x0F	; 15
     ab0:	73 1f       	adc	r23, r19
     ab2:	33 27       	eor	r19, r19
     ab4:	16 c0       	rjmp	.+44     	; 0xae2 <end>

00000ab6 <no_carry>:
     ab6:	8d 91       	ld	r24, X+
     ab8:	9c 91       	ld	r25, X
     aba:	65 91       	lpm	r22, Z+
     abc:	75 91       	lpm	r23, Z+
     abe:	a0 df       	rcall	.-192    	; 0xa00 <mulRed_asm_4093>
     ac0:	ea 01       	movw	r28, r20
     ac2:	c2 0f       	add	r28, r18
     ac4:	d3 1f       	adc	r29, r19
     ac6:	c2 0f       	add	r28, r18
     ac8:	d3 1f       	adc	r29, r19
     aca:	69 91       	ld	r22, Y+
     acc:	78 81       	ld	r23, Y
     ace:	68 0f       	add	r22, r24
     ad0:	79 1f       	adc	r23, r25

00000ad2 <test_reduction3>:
     ad2:	7f 30       	cpi	r23, 0x0F	; 15
     ad4:	30 f0       	brcs	.+12     	; 0xae2 <end>
     ad6:	09 f0       	breq	.+2      	; 0xada <consider_reduction3>
     ad8:	02 c0       	rjmp	.+4      	; 0xade <do_reduction3>

00000ada <consider_reduction3>:
     ada:	6d 3f       	cpi	r22, 0xFD	; 253
     adc:	10 f0       	brcs	.+4      	; 0xae2 <end>

00000ade <do_reduction3>:
     ade:	6d 5f       	subi	r22, 0xFD	; 253
     ae0:	7f 40       	sbci	r23, 0x0F	; 15

00000ae2 <end>:
     ae2:	6a 93       	st	-Y, r22
     ae4:	21 96       	adiw	r28, 0x01	; 1
     ae6:	78 83       	st	Y, r23
     ae8:	11 97       	sbiw	r26, 0x01	; 1
     aea:	73 94       	inc	r7
     aec:	51 f6       	brne	.-108    	; 0xa82 <inner_loop>
     aee:	12 96       	adiw	r26, 0x02	; 2
     af0:	f7 01       	movw	r30, r14
     af2:	03 95       	inc	r16
     af4:	31 f6       	brne	.-116    	; 0xa82 <inner_loop>
     af6:	ff 91       	pop	r31
     af8:	ef 91       	pop	r30
     afa:	df 91       	pop	r29
     afc:	cf 91       	pop	r28
     afe:	bf 91       	pop	r27
     b00:	af 91       	pop	r26
     b02:	3f 91       	pop	r19
     b04:	2f 91       	pop	r18
     b06:	1f 91       	pop	r17
     b08:	0f 91       	pop	r16
     b0a:	ff 90       	pop	r15
     b0c:	ef 90       	pop	r14
     b0e:	af 90       	pop	r10
     b10:	9f 90       	pop	r9
     b12:	8f 90       	pop	r8
     b14:	7f 90       	pop	r7
     b16:	6f 90       	pop	r6
     b18:	1f 90       	pop	r1
     b1a:	0f 90       	pop	r0
     b1c:	08 95       	ret

00000b1e <polyMul_asm_4093_192>:
     b1e:	0f 92       	push	r0
     b20:	1f 92       	push	r1
     b22:	2f 92       	push	r2
     b24:	6f 92       	push	r6
     b26:	7f 92       	push	r7
     b28:	8f 92       	push	r8
     b2a:	9f 92       	push	r9
     b2c:	af 92       	push	r10
     b2e:	ef 92       	push	r14
     b30:	ff 92       	push	r15
     b32:	0f 93       	push	r16
     b34:	1f 93       	push	r17
     b36:	2f 93       	push	r18
     b38:	3f 93       	push	r19
     b3a:	af 93       	push	r26
     b3c:	bf 93       	push	r27
     b3e:	cf 93       	push	r28
     b40:	df 93       	push	r29
     b42:	ef 93       	push	r30
     b44:	ff 93       	push	r31
     b46:	30 ec       	ldi	r19, 0xC0	; 192
     b48:	23 2e       	mov	r2, r19
     b4a:	00 27       	eor	r16, r16
     b4c:	77 24       	eor	r7, r7
     b4e:	33 27       	eor	r19, r19
     b50:	dc 01       	movw	r26, r24
     b52:	fb 01       	movw	r30, r22
     b54:	7b 01       	movw	r14, r22

00000b56 <inner_loop_192>:
     b56:	22 27       	eor	r18, r18
     b58:	20 0f       	add	r18, r16
     b5a:	27 0d       	add	r18, r7
     b5c:	c8 f0       	brcs	.+50     	; 0xb90 <greater_equal_192>
     b5e:	22 15       	cp	r18, r2
     b60:	b8 f4       	brcc	.+46     	; 0xb90 <greater_equal_192>
     b62:	8d 91       	ld	r24, X+
     b64:	9c 91       	ld	r25, X
     b66:	65 91       	lpm	r22, Z+
     b68:	75 91       	lpm	r23, Z+
     b6a:	4a df       	rcall	.-364    	; 0xa00 <mulRed_asm_4093>
     b6c:	ea 01       	movw	r28, r20
     b6e:	c2 0f       	add	r28, r18
     b70:	d3 1f       	adc	r29, r19
     b72:	c2 0f       	add	r28, r18
     b74:	d3 1f       	adc	r29, r19
     b76:	69 91       	ld	r22, Y+
     b78:	78 81       	ld	r23, Y
     b7a:	68 0f       	add	r22, r24
     b7c:	79 1f       	adc	r23, r25

00000b7e <test_reduction3_192>:
     b7e:	7f 30       	cpi	r23, 0x0F	; 15
     b80:	e8 f0       	brcs	.+58     	; 0xbbc <end_192>
     b82:	09 f0       	breq	.+2      	; 0xb86 <consider_reduction3_192>
     b84:	02 c0       	rjmp	.+4      	; 0xb8a <do_reduction3_192>

00000b86 <consider_reduction3_192>:
     b86:	6d 3f       	cpi	r22, 0xFD	; 253
     b88:	c8 f0       	brcs	.+50     	; 0xbbc <end_192>

00000b8a <do_reduction3_192>:
     b8a:	6d 5f       	subi	r22, 0xFD	; 253
     b8c:	7f 40       	sbci	r23, 0x0F	; 15
     b8e:	16 c0       	rjmp	.+44     	; 0xbbc <end_192>

00000b90 <greater_equal_192>:
     b90:	22 19       	sub	r18, r2
     b92:	8d 91       	ld	r24, X+
     b94:	9c 91       	ld	r25, X
     b96:	65 91       	lpm	r22, Z+
     b98:	75 91       	lpm	r23, Z+
     b9a:	0e 94 00 05 	call	0xa00	; 0xa00 <mulRed_asm_4093>
     b9e:	ea 01       	movw	r28, r20
     ba0:	c2 0f       	add	r28, r18
     ba2:	d3 1f       	adc	r29, r19
     ba4:	c2 0f       	add	r28, r18
     ba6:	d3 1f       	adc	r29, r19
     ba8:	69 91       	ld	r22, Y+
     baa:	78 81       	ld	r23, Y
     bac:	68 1b       	sub	r22, r24
     bae:	79 0b       	sbc	r23, r25
     bb0:	28 f4       	brcc	.+10     	; 0xbbc <end_192>
     bb2:	3d ef       	ldi	r19, 0xFD	; 253
     bb4:	63 0f       	add	r22, r19
     bb6:	3f e0       	ldi	r19, 0x0F	; 15
     bb8:	73 1f       	adc	r23, r19
     bba:	33 27       	eor	r19, r19

00000bbc <end_192>:
     bbc:	6a 93       	st	-Y, r22
     bbe:	21 96       	adiw	r28, 0x01	; 1
     bc0:	78 83       	st	Y, r23
     bc2:	11 97       	sbiw	r26, 0x01	; 1
     bc4:	73 94       	inc	r7
     bc6:	72 14       	cp	r7, r2
     bc8:	31 f6       	brne	.-116    	; 0xb56 <inner_loop_192>
     bca:	77 24       	eor	r7, r7
     bcc:	12 96       	adiw	r26, 0x02	; 2
     bce:	f7 01       	movw	r30, r14
     bd0:	03 95       	inc	r16
     bd2:	02 15       	cp	r16, r2
     bd4:	01 f6       	brne	.-128    	; 0xb56 <inner_loop_192>
     bd6:	ff 91       	pop	r31
     bd8:	ef 91       	pop	r30
     bda:	df 91       	pop	r29
     bdc:	cf 91       	pop	r28
     bde:	bf 91       	pop	r27
     be0:	af 91       	pop	r26
     be2:	3f 91       	pop	r19
     be4:	2f 91       	pop	r18
     be6:	1f 91       	pop	r17
     be8:	0f 91       	pop	r16
     bea:	ff 90       	pop	r15
     bec:	ef 90       	pop	r14
     bee:	af 90       	pop	r10
     bf0:	9f 90       	pop	r9
     bf2:	8f 90       	pop	r8
     bf4:	7f 90       	pop	r7
     bf6:	6f 90       	pop	r6
     bf8:	2f 90       	pop	r2
     bfa:	1f 90       	pop	r1
     bfc:	0f 90       	pop	r0
     bfe:	08 95       	ret

00000c00 <polyMul_asm_4093_320>:
     c00:	0f 92       	push	r0
     c02:	1f 92       	push	r1
     c04:	2f 92       	push	r2
     c06:	3f 92       	push	r3
     c08:	4f 92       	push	r4
     c0a:	6f 92       	push	r6
     c0c:	8f 92       	push	r8
     c0e:	9f 92       	push	r9
     c10:	af 92       	push	r10
     c12:	bf 92       	push	r11
     c14:	cf 92       	push	r12
     c16:	ef 92       	push	r14
     c18:	ff 92       	push	r15
     c1a:	0f 93       	push	r16
     c1c:	1f 93       	push	r17
     c1e:	2f 93       	push	r18
     c20:	3f 93       	push	r19
     c22:	af 93       	push	r26
     c24:	bf 93       	push	r27
     c26:	cf 93       	push	r28
     c28:	df 93       	push	r29
     c2a:	ef 93       	push	r30
     c2c:	ff 93       	push	r31
     c2e:	30 e4       	ldi	r19, 0x40	; 64
     c30:	23 2e       	mov	r2, r19
     c32:	31 e0       	ldi	r19, 0x01	; 1
     c34:	33 2e       	mov	r3, r19
     c36:	bb 24       	eor	r11, r11
     c38:	cc 24       	eor	r12, r12
     c3a:	44 24       	eor	r4, r4
     c3c:	33 27       	eor	r19, r19
     c3e:	dc 01       	movw	r26, r24
     c40:	fb 01       	movw	r30, r22
     c42:	7b 01       	movw	r14, r22

00000c44 <inner_loop_320>:
     c44:	00 27       	eor	r16, r16
     c46:	22 27       	eor	r18, r18
     c48:	0b 0d       	add	r16, r11
     c4a:	2c 1d       	adc	r18, r12
     c4c:	04 0d       	add	r16, r4
     c4e:	30 f9       	bld	r19, 0
     c50:	23 1f       	adc	r18, r19
     c52:	23 15       	cp	r18, r3
     c54:	d8 f0       	brcs	.+54     	; 0xc8c <smaller_320>
     c56:	11 f4       	brne	.+4      	; 0xc5c <greater_equal_320>
     c58:	02 15       	cp	r16, r2
     c5a:	c0 f0       	brcs	.+48     	; 0xc8c <smaller_320>

00000c5c <greater_equal_320>:
     c5c:	02 19       	sub	r16, r2
     c5e:	23 09       	sbc	r18, r3
     c60:	8d 91       	ld	r24, X+
     c62:	9c 91       	ld	r25, X
     c64:	65 91       	lpm	r22, Z+
     c66:	75 91       	lpm	r23, Z+
     c68:	0e 94 00 05 	call	0xa00	; 0xa00 <mulRed_asm_4093>
     c6c:	ea 01       	movw	r28, r20
     c6e:	c0 0f       	add	r28, r16
     c70:	d2 1f       	adc	r29, r18
     c72:	c0 0f       	add	r28, r16
     c74:	d2 1f       	adc	r29, r18
     c76:	69 91       	ld	r22, Y+
     c78:	78 81       	ld	r23, Y
     c7a:	68 1b       	sub	r22, r24
     c7c:	79 0b       	sbc	r23, r25
     c7e:	e0 f4       	brcc	.+56     	; 0xcb8 <end_320>
     c80:	3d ef       	ldi	r19, 0xFD	; 253
     c82:	63 0f       	add	r22, r19
     c84:	3f e0       	ldi	r19, 0x0F	; 15
     c86:	73 1f       	adc	r23, r19
     c88:	33 27       	eor	r19, r19
     c8a:	16 c0       	rjmp	.+44     	; 0xcb8 <end_320>

00000c8c <smaller_320>:
     c8c:	8d 91       	ld	r24, X+
     c8e:	9c 91       	ld	r25, X
     c90:	65 91       	lpm	r22, Z+
     c92:	75 91       	lpm	r23, Z+
     c94:	b5 de       	rcall	.-662    	; 0xa00 <mulRed_asm_4093>
     c96:	ea 01       	movw	r28, r20
     c98:	c0 0f       	add	r28, r16
     c9a:	d2 1f       	adc	r29, r18
     c9c:	c0 0f       	add	r28, r16
     c9e:	d2 1f       	adc	r29, r18
     ca0:	69 91       	ld	r22, Y+
     ca2:	78 81       	ld	r23, Y
     ca4:	68 0f       	add	r22, r24
     ca6:	79 1f       	adc	r23, r25

00000ca8 <test_reduction3_320>:
     ca8:	7f 30       	cpi	r23, 0x0F	; 15
     caa:	30 f0       	brcs	.+12     	; 0xcb8 <end_320>
     cac:	09 f0       	breq	.+2      	; 0xcb0 <consider_reduction3_320>
     cae:	02 c0       	rjmp	.+4      	; 0xcb4 <do_reduction3_320>

00000cb0 <consider_reduction3_320>:
     cb0:	6d 3f       	cpi	r22, 0xFD	; 253
     cb2:	10 f0       	brcs	.+4      	; 0xcb8 <end_320>

00000cb4 <do_reduction3_320>:
     cb4:	6d 5f       	subi	r22, 0xFD	; 253
     cb6:	7f 40       	sbci	r23, 0x0F	; 15

00000cb8 <end_320>:
     cb8:	6a 93       	st	-Y, r22
     cba:	21 96       	adiw	r28, 0x01	; 1
     cbc:	78 83       	st	Y, r23
     cbe:	11 97       	sbiw	r26, 0x01	; 1
     cc0:	43 94       	inc	r4
     cc2:	09 f4       	brne	.+2      	; 0xcc6 <skip_set_t>
     cc4:	68 94       	set

00000cc6 <skip_set_t>:
     cc6:	16 f4       	brtc	.+4      	; 0xccc <jmp_inner_loop_320>
     cc8:	42 14       	cp	r4, r2
     cca:	09 f0       	breq	.+2      	; 0xcce <skip_jmp_inner_loop_320>

00000ccc <jmp_inner_loop_320>:
     ccc:	bb cf       	rjmp	.-138    	; 0xc44 <inner_loop_320>

00000cce <skip_jmp_inner_loop_320>:
     cce:	44 24       	eor	r4, r4
     cd0:	e8 94       	clt
     cd2:	12 96       	adiw	r26, 0x02	; 2
     cd4:	f7 01       	movw	r30, r14
     cd6:	b3 94       	inc	r11
     cd8:	09 f4       	brne	.+2      	; 0xcdc <skip_inc_outercnt_h>
     cda:	c3 94       	inc	r12

00000cdc <skip_inc_outercnt_h>:
     cdc:	c3 14       	cp	r12, r3
     cde:	10 f0       	brcs	.+4      	; 0xce4 <jmp_outer_loop_320>
     ce0:	b2 14       	cp	r11, r2
     ce2:	09 f0       	breq	.+2      	; 0xce6 <skip_jmp_outer_loop_320>

00000ce4 <jmp_outer_loop_320>:
     ce4:	af cf       	rjmp	.-162    	; 0xc44 <inner_loop_320>

00000ce6 <skip_jmp_outer_loop_320>:
     ce6:	ff 91       	pop	r31
     ce8:	ef 91       	pop	r30
     cea:	df 91       	pop	r29
     cec:	cf 91       	pop	r28
     cee:	bf 91       	pop	r27
     cf0:	af 91       	pop	r26
     cf2:	3f 91       	pop	r19
     cf4:	2f 91       	pop	r18
     cf6:	1f 91       	pop	r17
     cf8:	0f 91       	pop	r16
     cfa:	ff 90       	pop	r15
     cfc:	ef 90       	pop	r14
     cfe:	cf 90       	pop	r12
     d00:	bf 90       	pop	r11
     d02:	af 90       	pop	r10
     d04:	9f 90       	pop	r9
     d06:	8f 90       	pop	r8
     d08:	6f 90       	pop	r6
     d0a:	4f 90       	pop	r4
     d0c:	3f 90       	pop	r3
     d0e:	2f 90       	pop	r2
     d10:	1f 90       	pop	r1
     d12:	0f 90       	pop	r0
     d14:	08 95       	ret

00000d16 <call_mulRed_asm_4093>:
     d16:	48 2f       	mov	r20, r24
     d18:	46 03       	mulsu	r20, r22
     d1a:	20 2d       	mov	r18, r0
     d1c:	31 2d       	mov	r19, r1
     d1e:	44 27       	eor	r20, r20
     d20:	11 20       	and	r1, r1
     d22:	0a f4       	brpl	.+2      	; 0xd26 <skip>
     d24:	4a 95       	dec	r20

00000d26 <skip>:
     d26:	68 2f       	mov	r22, r24
     d28:	67 03       	mulsu	r22, r23
     d2a:	30 0d       	add	r19, r0
     d2c:	41 1d       	adc	r20, r1
     d2e:	63 2f       	mov	r22, r19
     d30:	45 95       	asr	r20
     d32:	67 95       	ror	r22
     d34:	45 95       	asr	r20
     d36:	67 95       	ror	r22
     d38:	45 95       	asr	r20
     d3a:	67 95       	ror	r22
     d3c:	45 95       	asr	r20
     d3e:	67 95       	ror	r22
     d40:	3f 70       	andi	r19, 0x0F	; 15
     d42:	86 2f       	mov	r24, r22
     d44:	94 2f       	mov	r25, r20
     d46:	88 0f       	add	r24, r24
     d48:	99 1f       	adc	r25, r25
     d4a:	86 0f       	add	r24, r22
     d4c:	94 1f       	adc	r25, r20
     d4e:	82 0f       	add	r24, r18
     d50:	93 1f       	adc	r25, r19
     d52:	11 24       	eor	r1, r1
     d54:	08 95       	ret

00000d56 <next_block_ptr>:
     d56:	bc 01       	movw	r22, r24
     d58:	42 e1       	ldi	r20, 0x12	; 18
     d5a:	50 e2       	ldi	r21, 0x20	; 32
     d5c:	82 e0       	ldi	r24, 0x02	; 2
     d5e:	90 e2       	ldi	r25, 0x20	; 32
     d60:	0e 94 c0 06 	call	0xd80	; 0xd80 <AES_encrypt>
     d64:	e2 e0       	ldi	r30, 0x02	; 2
     d66:	f0 e2       	ldi	r31, 0x20	; 32
     d68:	80 81       	ld	r24, Z
     d6a:	91 81       	ldd	r25, Z+1	; 0x01
     d6c:	a2 81       	ldd	r26, Z+2	; 0x02
     d6e:	b3 81       	ldd	r27, Z+3	; 0x03
     d70:	01 96       	adiw	r24, 0x01	; 1
     d72:	a1 1d       	adc	r26, r1
     d74:	b1 1d       	adc	r27, r1
     d76:	80 83       	st	Z, r24
     d78:	91 83       	std	Z+1, r25	; 0x01
     d7a:	a2 83       	std	Z+2, r26	; 0x02
     d7c:	b3 83       	std	Z+3, r27	; 0x03
     d7e:	08 95       	ret

00000d80 <AES_encrypt>:
     d80:	9c 01       	movw	r18, r24
     d82:	cb 01       	movw	r24, r22
     d84:	ba 01       	movw	r22, r20
     d86:	40 5f       	subi	r20, 0xF0	; 240
     d88:	5f 4f       	sbci	r21, 0xFF	; 255
     d8a:	fb 01       	movw	r30, r22
     d8c:	6f 5f       	subi	r22, 0xFF	; 255
     d8e:	7f 4f       	sbci	r23, 0xFF	; 255
     d90:	e0 81       	ld	r30, Z
     d92:	e0 93 c3 00 	sts	0x00C3, r30	; 0x8000c3 <__TEXT_REGION_LENGTH__+0x7000c3>
     d96:	46 17       	cp	r20, r22
     d98:	57 07       	cpc	r21, r23
     d9a:	b9 f7       	brne	.-18     	; 0xd8a <AES_encrypt+0xa>
     d9c:	a9 01       	movw	r20, r18
     d9e:	40 5f       	subi	r20, 0xF0	; 240
     da0:	5f 4f       	sbci	r21, 0xFF	; 255
     da2:	f9 01       	movw	r30, r18
     da4:	2f 5f       	subi	r18, 0xFF	; 255
     da6:	3f 4f       	sbci	r19, 0xFF	; 255
     da8:	60 81       	ld	r22, Z
     daa:	60 93 c2 00 	sts	0x00C2, r22	; 0x8000c2 <__TEXT_REGION_LENGTH__+0x7000c2>
     dae:	42 17       	cp	r20, r18
     db0:	53 07       	cpc	r21, r19
     db2:	b9 f7       	brne	.-18     	; 0xda2 <AES_encrypt+0x22>
     db4:	20 91 c0 00 	lds	r18, 0x00C0	; 0x8000c0 <__TEXT_REGION_LENGTH__+0x7000c0>
     db8:	2f 76       	andi	r18, 0x6F	; 111
     dba:	20 68       	ori	r18, 0x80	; 128
     dbc:	20 93 c0 00 	sts	0x00C0, r18	; 0x8000c0 <__TEXT_REGION_LENGTH__+0x7000c0>
     dc0:	20 91 c1 00 	lds	r18, 0x00C1	; 0x8000c1 <__TEXT_REGION_LENGTH__+0x7000c1>
     dc4:	21 78       	andi	r18, 0x81	; 129
     dc6:	e1 f3       	breq	.-8      	; 0xdc0 <AES_encrypt+0x40>
     dc8:	20 91 c1 00 	lds	r18, 0x00C1	; 0x8000c1 <__TEXT_REGION_LENGTH__+0x7000c1>
     dcc:	27 fd       	sbrc	r18, 7
     dce:	0d c0       	rjmp	.+26     	; 0xdea <AES_encrypt+0x6a>
     dd0:	9c 01       	movw	r18, r24
     dd2:	20 5f       	subi	r18, 0xF0	; 240
     dd4:	3f 4f       	sbci	r19, 0xFF	; 255
     dd6:	fc 01       	movw	r30, r24
     dd8:	01 96       	adiw	r24, 0x01	; 1
     dda:	40 91 c2 00 	lds	r20, 0x00C2	; 0x8000c2 <__TEXT_REGION_LENGTH__+0x7000c2>
     dde:	40 83       	st	Z, r20
     de0:	28 17       	cp	r18, r24
     de2:	39 07       	cpc	r19, r25
     de4:	c1 f7       	brne	.-16     	; 0xdd6 <AES_encrypt+0x56>
     de6:	81 e0       	ldi	r24, 0x01	; 1
     de8:	08 95       	ret
     dea:	80 e0       	ldi	r24, 0x00	; 0
     dec:	08 95       	ret

00000dee <sample_gauss>:
     dee:	af 92       	push	r10
     df0:	bf 92       	push	r11
     df2:	df 92       	push	r13
     df4:	ef 92       	push	r14
     df6:	ff 92       	push	r15
     df8:	0f 93       	push	r16
     dfa:	1f 93       	push	r17
     dfc:	cf 93       	push	r28
     dfe:	df 93       	push	r29
     e00:	78 2f       	mov	r23, r24
     e02:	5a 01       	movw	r10, r20
     e04:	a9 01       	movw	r20, r18
     e06:	d8 01       	movw	r26, r16
     e08:	1c 92       	st	X, r1
     e0a:	80 e0       	ldi	r24, 0x00	; 0
     e0c:	87 17       	cp	r24, r23
     e0e:	88 f5       	brcc	.+98     	; 0xe72 <sample_gauss+0x84>
     e10:	8a 01       	movw	r16, r20
     e12:	30 e0       	ldi	r19, 0x00	; 0
     e14:	20 e0       	ldi	r18, 0x00	; 0
     e16:	90 e0       	ldi	r25, 0x00	; 0
     e18:	75 01       	movw	r14, r10
     e1a:	68 9f       	mul	r22, r24
     e1c:	e0 0c       	add	r14, r0
     e1e:	f1 1c       	adc	r15, r1
     e20:	11 24       	eor	r1, r1
     e22:	22 c0       	rjmp	.+68     	; 0xe68 <sample_gauss+0x7a>
     e24:	f7 01       	movw	r30, r14
     e26:	e2 0f       	add	r30, r18
     e28:	f3 1f       	adc	r31, r19
     e2a:	e4 91       	lpm	r30, Z
     e2c:	9d 15       	cp	r25, r13
     e2e:	08 f4       	brcc	.+2      	; 0xe32 <sample_gauss+0x44>
     e30:	92 2f       	mov	r25, r18
     e32:	e8 01       	movw	r28, r16
     e34:	f9 91       	ld	r31, Y+
     e36:	8e 01       	movw	r16, r28
     e38:	fe 17       	cp	r31, r30
     e3a:	90 f4       	brcc	.+36     	; 0xe60 <sample_gauss+0x72>
     e3c:	9f 5f       	subi	r25, 0xFF	; 255
     e3e:	9c 93       	st	X, r25
     e40:	24 0f       	add	r18, r20
     e42:	35 1f       	adc	r19, r21
     e44:	f9 01       	movw	r30, r18
     e46:	91 81       	ldd	r25, Z+1	; 0x01
     e48:	97 ff       	sbrs	r25, 7
     e4a:	81 95       	neg	r24
     e4c:	df 91       	pop	r29
     e4e:	cf 91       	pop	r28
     e50:	1f 91       	pop	r17
     e52:	0f 91       	pop	r16
     e54:	ff 90       	pop	r15
     e56:	ef 90       	pop	r14
     e58:	df 90       	pop	r13
     e5a:	bf 90       	pop	r11
     e5c:	af 90       	pop	r10
     e5e:	08 95       	ret
     e60:	2f 5f       	subi	r18, 0xFF	; 255
     e62:	3f 4f       	sbci	r19, 0xFF	; 255
     e64:	ef 17       	cp	r30, r31
     e66:	18 f0       	brcs	.+6      	; 0xe6e <sample_gauss+0x80>
     e68:	d2 2e       	mov	r13, r18
     e6a:	26 17       	cp	r18, r22
     e6c:	d8 f2       	brcs	.-74     	; 0xe24 <sample_gauss+0x36>
     e6e:	8f 5f       	subi	r24, 0xFF	; 255
     e70:	cd cf       	rjmp	.-102    	; 0xe0c <sample_gauss+0x1e>
     e72:	80 e0       	ldi	r24, 0x00	; 0
     e74:	eb cf       	rjmp	.-42     	; 0xe4c <sample_gauss+0x5e>

00000e76 <get_gauss_poly_4093>:
     e76:	7f 92       	push	r7
     e78:	8f 92       	push	r8
     e7a:	9f 92       	push	r9
     e7c:	af 92       	push	r10
     e7e:	bf 92       	push	r11
     e80:	cf 92       	push	r12
     e82:	df 92       	push	r13
     e84:	ef 92       	push	r14
     e86:	ff 92       	push	r15
     e88:	0f 93       	push	r16
     e8a:	1f 93       	push	r17
     e8c:	cf 93       	push	r28
     e8e:	df 93       	push	r29
     e90:	cd b7       	in	r28, 0x3d	; 61
     e92:	de b7       	in	r29, 0x3e	; 62
     e94:	e1 97       	sbiw	r28, 0x31	; 49
     e96:	cd bf       	out	0x3d, r28	; 61
     e98:	de bf       	out	0x3e, r29	; 62
     e9a:	4b 01       	movw	r8, r22
     e9c:	6a 01       	movw	r12, r20
     e9e:	19 aa       	std	Y+49, r1	; 0x31
     ea0:	7c 01       	movw	r14, r24
     ea2:	b1 2c       	mov	r11, r1
     ea4:	a1 2c       	mov	r10, r1
     ea6:	8e ef       	ldi	r24, 0xFE	; 254
     ea8:	78 2e       	mov	r7, r24
     eaa:	ac 14       	cp	r10, r12
     eac:	bd 04       	cpc	r11, r13
     eae:	89 f4       	brne	.+34     	; 0xed2 <get_gauss_poly_4093+0x5c>
     eb0:	e1 96       	adiw	r28, 0x31	; 49
     eb2:	cd bf       	out	0x3d, r28	; 61
     eb4:	de bf       	out	0x3e, r29	; 62
     eb6:	df 91       	pop	r29
     eb8:	cf 91       	pop	r28
     eba:	1f 91       	pop	r17
     ebc:	0f 91       	pop	r16
     ebe:	ff 90       	pop	r15
     ec0:	ef 90       	pop	r14
     ec2:	df 90       	pop	r13
     ec4:	cf 90       	pop	r12
     ec6:	bf 90       	pop	r11
     ec8:	af 90       	pop	r10
     eca:	9f 90       	pop	r9
     ecc:	8f 90       	pop	r8
     ece:	7f 90       	pop	r7
     ed0:	08 95       	ret
     ed2:	23 e2       	ldi	r18, 0x23	; 35
     ed4:	27 15       	cp	r18, r7
     ed6:	68 f4       	brcc	.+26     	; 0xef2 <get_gauss_poly_4093+0x7c>
     ed8:	ce 01       	movw	r24, r28
     eda:	01 96       	adiw	r24, 0x01	; 1
     edc:	0e 94 ab 06 	call	0xd56	; 0xd56 <next_block_ptr>
     ee0:	ce 01       	movw	r24, r28
     ee2:	41 96       	adiw	r24, 0x11	; 17
     ee4:	0e 94 ab 06 	call	0xd56	; 0xd56 <next_block_ptr>
     ee8:	ce 01       	movw	r24, r28
     eea:	81 96       	adiw	r24, 0x21	; 33
     eec:	0e 94 ab 06 	call	0xd56	; 0xd56 <next_block_ptr>
     ef0:	71 2c       	mov	r7, r1
     ef2:	21 e0       	ldi	r18, 0x01	; 1
     ef4:	30 e0       	ldi	r19, 0x00	; 0
     ef6:	2c 0f       	add	r18, r28
     ef8:	3d 1f       	adc	r19, r29
     efa:	27 0d       	add	r18, r7
     efc:	31 1d       	adc	r19, r1
     efe:	8e 01       	movw	r16, r28
     f00:	0f 5c       	subi	r16, 0xCF	; 207
     f02:	1f 4f       	sbci	r17, 0xFF	; 255
     f04:	44 ef       	ldi	r20, 0xF4	; 244
     f06:	51 e0       	ldi	r21, 0x01	; 1
     f08:	6c e0       	ldi	r22, 0x0C	; 12
     f0a:	85 e2       	ldi	r24, 0x25	; 37
     f0c:	0e 94 f7 06 	call	0xdee	; 0xdee <sample_gauss>
     f10:	28 2f       	mov	r18, r24
     f12:	89 a9       	ldd	r24, Y+49	; 0x31
     f14:	78 0e       	add	r7, r24
     f16:	82 2f       	mov	r24, r18
     f18:	02 2e       	mov	r0, r18
     f1a:	00 0c       	add	r0, r0
     f1c:	99 0b       	sbc	r25, r25
     f1e:	27 ff       	sbrs	r18, 7
     f20:	02 c0       	rjmp	.+4      	; 0xf26 <get_gauss_poly_4093+0xb0>
     f22:	83 50       	subi	r24, 0x03	; 3
     f24:	90 4f       	sbci	r25, 0xF0	; 240
     f26:	e1 e0       	ldi	r30, 0x01	; 1
     f28:	8e 16       	cp	r8, r30
     f2a:	91 04       	cpc	r9, r1
     f2c:	49 f4       	brne	.+18     	; 0xf40 <get_gauss_poly_4093+0xca>
     f2e:	f7 01       	movw	r30, r14
     f30:	20 81       	ld	r18, Z
     f32:	31 81       	ldd	r19, Z+1	; 0x01
     f34:	82 0f       	add	r24, r18
     f36:	93 1f       	adc	r25, r19
     f38:	8e 3f       	cpi	r24, 0xFE	; 254
     f3a:	ff e0       	ldi	r31, 0x0F	; 15
     f3c:	9f 07       	cpc	r25, r31
     f3e:	50 f4       	brcc	.+20     	; 0xf54 <get_gauss_poly_4093+0xde>
     f40:	f7 01       	movw	r30, r14
     f42:	80 83       	st	Z, r24
     f44:	91 83       	std	Z+1, r25	; 0x01
     f46:	ff ef       	ldi	r31, 0xFF	; 255
     f48:	af 1a       	sub	r10, r31
     f4a:	bf 0a       	sbc	r11, r31
     f4c:	22 e0       	ldi	r18, 0x02	; 2
     f4e:	e2 0e       	add	r14, r18
     f50:	f1 1c       	adc	r15, r1
     f52:	ab cf       	rjmp	.-170    	; 0xeaa <get_gauss_poly_4093+0x34>
     f54:	8d 5f       	subi	r24, 0xFD	; 253
     f56:	9f 40       	sbci	r25, 0x0F	; 15
     f58:	f3 cf       	rjmp	.-26     	; 0xf40 <get_gauss_poly_4093+0xca>

00000f5a <get_gauss_poly_4093_posneg>:
     f5a:	7f 92       	push	r7
     f5c:	8f 92       	push	r8
     f5e:	9f 92       	push	r9
     f60:	af 92       	push	r10
     f62:	bf 92       	push	r11
     f64:	cf 92       	push	r12
     f66:	df 92       	push	r13
     f68:	ef 92       	push	r14
     f6a:	ff 92       	push	r15
     f6c:	0f 93       	push	r16
     f6e:	1f 93       	push	r17
     f70:	cf 93       	push	r28
     f72:	df 93       	push	r29
     f74:	cd b7       	in	r28, 0x3d	; 61
     f76:	de b7       	in	r29, 0x3e	; 62
     f78:	e1 97       	sbiw	r28, 0x31	; 49
     f7a:	cd bf       	out	0x3d, r28	; 61
     f7c:	de bf       	out	0x3e, r29	; 62
     f7e:	4b 01       	movw	r8, r22
     f80:	6a 01       	movw	r12, r20
     f82:	19 aa       	std	Y+49, r1	; 0x31
     f84:	7c 01       	movw	r14, r24
     f86:	b1 2c       	mov	r11, r1
     f88:	a1 2c       	mov	r10, r1
     f8a:	8e ef       	ldi	r24, 0xFE	; 254
     f8c:	78 2e       	mov	r7, r24
     f8e:	ac 14       	cp	r10, r12
     f90:	bd 04       	cpc	r11, r13
     f92:	89 f4       	brne	.+34     	; 0xfb6 <get_gauss_poly_4093_posneg+0x5c>
     f94:	e1 96       	adiw	r28, 0x31	; 49
     f96:	cd bf       	out	0x3d, r28	; 61
     f98:	de bf       	out	0x3e, r29	; 62
     f9a:	df 91       	pop	r29
     f9c:	cf 91       	pop	r28
     f9e:	1f 91       	pop	r17
     fa0:	0f 91       	pop	r16
     fa2:	ff 90       	pop	r15
     fa4:	ef 90       	pop	r14
     fa6:	df 90       	pop	r13
     fa8:	cf 90       	pop	r12
     faa:	bf 90       	pop	r11
     fac:	af 90       	pop	r10
     fae:	9f 90       	pop	r9
     fb0:	8f 90       	pop	r8
     fb2:	7f 90       	pop	r7
     fb4:	08 95       	ret
     fb6:	23 e2       	ldi	r18, 0x23	; 35
     fb8:	27 15       	cp	r18, r7
     fba:	68 f4       	brcc	.+26     	; 0xfd6 <get_gauss_poly_4093_posneg+0x7c>
     fbc:	ce 01       	movw	r24, r28
     fbe:	01 96       	adiw	r24, 0x01	; 1
     fc0:	0e 94 ab 06 	call	0xd56	; 0xd56 <next_block_ptr>
     fc4:	ce 01       	movw	r24, r28
     fc6:	41 96       	adiw	r24, 0x11	; 17
     fc8:	0e 94 ab 06 	call	0xd56	; 0xd56 <next_block_ptr>
     fcc:	ce 01       	movw	r24, r28
     fce:	81 96       	adiw	r24, 0x21	; 33
     fd0:	0e 94 ab 06 	call	0xd56	; 0xd56 <next_block_ptr>
     fd4:	71 2c       	mov	r7, r1
     fd6:	21 e0       	ldi	r18, 0x01	; 1
     fd8:	30 e0       	ldi	r19, 0x00	; 0
     fda:	2c 0f       	add	r18, r28
     fdc:	3d 1f       	adc	r19, r29
     fde:	27 0d       	add	r18, r7
     fe0:	31 1d       	adc	r19, r1
     fe2:	8e 01       	movw	r16, r28
     fe4:	0f 5c       	subi	r16, 0xCF	; 207
     fe6:	1f 4f       	sbci	r17, 0xFF	; 255
     fe8:	44 ef       	ldi	r20, 0xF4	; 244
     fea:	51 e0       	ldi	r21, 0x01	; 1
     fec:	6c e0       	ldi	r22, 0x0C	; 12
     fee:	85 e2       	ldi	r24, 0x25	; 37
     ff0:	0e 94 f7 06 	call	0xdee	; 0xdee <sample_gauss>
     ff4:	99 a9       	ldd	r25, Y+49	; 0x31
     ff6:	79 0e       	add	r7, r25
     ff8:	08 2e       	mov	r0, r24
     ffa:	00 0c       	add	r0, r0
     ffc:	99 0b       	sbc	r25, r25
     ffe:	e1 e0       	ldi	r30, 0x01	; 1
    1000:	8e 16       	cp	r8, r30
    1002:	91 04       	cpc	r9, r1
    1004:	49 f4       	brne	.+18     	; 0x1018 <get_gauss_poly_4093_posneg+0xbe>
    1006:	f7 01       	movw	r30, r14
    1008:	20 81       	ld	r18, Z
    100a:	31 81       	ldd	r19, Z+1	; 0x01
    100c:	82 0f       	add	r24, r18
    100e:	93 1f       	adc	r25, r19
    1010:	8e 3f       	cpi	r24, 0xFE	; 254
    1012:	ff e0       	ldi	r31, 0x0F	; 15
    1014:	9f 07       	cpc	r25, r31
    1016:	50 f4       	brcc	.+20     	; 0x102c <get_gauss_poly_4093_posneg+0xd2>
    1018:	f7 01       	movw	r30, r14
    101a:	80 83       	st	Z, r24
    101c:	91 83       	std	Z+1, r25	; 0x01
    101e:	ff ef       	ldi	r31, 0xFF	; 255
    1020:	af 1a       	sub	r10, r31
    1022:	bf 0a       	sbc	r11, r31
    1024:	22 e0       	ldi	r18, 0x02	; 2
    1026:	e2 0e       	add	r14, r18
    1028:	f1 1c       	adc	r15, r1
    102a:	b1 cf       	rjmp	.-158    	; 0xf8e <get_gauss_poly_4093_posneg+0x34>
    102c:	8d 5f       	subi	r24, 0xFD	; 253
    102e:	9f 40       	sbci	r25, 0x0F	; 15
    1030:	f3 cf       	rjmp	.-26     	; 0x1018 <get_gauss_poly_4093_posneg+0xbe>

00001032 <reduce>:
    1032:	0f 93       	push	r16
    1034:	1f 93       	push	r17
    1036:	cf 93       	push	r28
    1038:	df 93       	push	r29
    103a:	8b 01       	movw	r16, r22
    103c:	ba 01       	movw	r22, r20
    103e:	fc 01       	movw	r30, r24
    1040:	ea 01       	movw	r28, r20
    1042:	cc 0f       	add	r28, r28
    1044:	dd 1f       	adc	r29, r29
    1046:	c8 0f       	add	r28, r24
    1048:	d9 1f       	adc	r29, r25
    104a:	50 e0       	ldi	r21, 0x00	; 0
    104c:	40 e0       	ldi	r20, 0x00	; 0
    104e:	46 17       	cp	r20, r22
    1050:	57 07       	cpc	r21, r23
    1052:	29 f4       	brne	.+10     	; 0x105e <reduce+0x2c>
    1054:	df 91       	pop	r29
    1056:	cf 91       	pop	r28
    1058:	1f 91       	pop	r17
    105a:	0f 91       	pop	r16
    105c:	08 95       	ret
    105e:	81 91       	ld	r24, Z+
    1060:	91 91       	ld	r25, Z+
    1062:	29 91       	ld	r18, Y+
    1064:	39 91       	ld	r19, Y+
    1066:	82 1b       	sub	r24, r18
    1068:	93 0b       	sbc	r25, r19
    106a:	9a 01       	movw	r18, r20
    106c:	22 0f       	add	r18, r18
    106e:	33 1f       	adc	r19, r19
    1070:	20 0f       	add	r18, r16
    1072:	31 1f       	adc	r19, r17
    1074:	97 fd       	sbrc	r25, 7
    1076:	06 c0       	rjmp	.+12     	; 0x1084 <reduce+0x52>
    1078:	d9 01       	movw	r26, r18
    107a:	8d 93       	st	X+, r24
    107c:	9c 93       	st	X, r25
    107e:	4f 5f       	subi	r20, 0xFF	; 255
    1080:	5f 4f       	sbci	r21, 0xFF	; 255
    1082:	e5 cf       	rjmp	.-54     	; 0x104e <reduce+0x1c>
    1084:	83 50       	subi	r24, 0x03	; 3
    1086:	90 4f       	sbci	r25, 0xF0	; 240
    1088:	f7 cf       	rjmp	.-18     	; 0x1078 <reduce+0x46>

0000108a <karatsuba_recursive>:
    108a:	2f 92       	push	r2
    108c:	3f 92       	push	r3
    108e:	4f 92       	push	r4
    1090:	5f 92       	push	r5
    1092:	6f 92       	push	r6
    1094:	7f 92       	push	r7
    1096:	8f 92       	push	r8
    1098:	9f 92       	push	r9
    109a:	af 92       	push	r10
    109c:	bf 92       	push	r11
    109e:	cf 92       	push	r12
    10a0:	df 92       	push	r13
    10a2:	ef 92       	push	r14
    10a4:	ff 92       	push	r15
    10a6:	0f 93       	push	r16
    10a8:	1f 93       	push	r17
    10aa:	cf 93       	push	r28
    10ac:	df 93       	push	r29
    10ae:	cd b7       	in	r28, 0x3d	; 61
    10b0:	de b7       	in	r29, 0x3e	; 62
    10b2:	28 97       	sbiw	r28, 0x08	; 8
    10b4:	cd bf       	out	0x3d, r28	; 61
    10b6:	de bf       	out	0x3e, r29	; 62
    10b8:	2c 01       	movw	r4, r24
    10ba:	3b 01       	movw	r6, r22
    10bc:	7a 01       	movw	r14, r20
    10be:	59 01       	movw	r10, r18
    10c0:	10 2f       	mov	r17, r16
    10c2:	8d b7       	in	r24, 0x3d	; 61
    10c4:	9e b7       	in	r25, 0x3e	; 62
    10c6:	8f 83       	std	Y+7, r24	; 0x07
    10c8:	98 87       	std	Y+8, r25	; 0x08
    10ca:	19 01       	movw	r2, r18
    10cc:	22 0c       	add	r2, r2
    10ce:	33 1c       	adc	r3, r3
    10d0:	ed b7       	in	r30, 0x3d	; 61
    10d2:	fe b7       	in	r31, 0x3e	; 62
    10d4:	e2 19       	sub	r30, r2
    10d6:	f3 09       	sbc	r31, r3
    10d8:	ed bf       	out	0x3d, r30	; 61
    10da:	fe bf       	out	0x3e, r31	; 62
    10dc:	8d b7       	in	r24, 0x3d	; 61
    10de:	9e b7       	in	r25, 0x3e	; 62
    10e0:	01 96       	adiw	r24, 0x01	; 1
    10e2:	4c 01       	movw	r8, r24
    10e4:	f9 01       	movw	r30, r18
    10e6:	e1 70       	andi	r30, 0x01	; 1
    10e8:	ff 27       	eor	r31, r31
    10ea:	ed 83       	std	Y+5, r30	; 0x05
    10ec:	fe 83       	std	Y+6, r31	; 0x06
    10ee:	20 fd       	sbrc	r18, 0
    10f0:	84 c0       	rjmp	.+264    	; 0x11fa <karatsuba_recursive+0x170>
    10f2:	80 91 00 20 	lds	r24, 0x2000	; 0x802000 <max_recursion_stages>
    10f6:	80 17       	cp	r24, r16
    10f8:	09 f4       	brne	.+2      	; 0x10fc <karatsuba_recursive+0x72>
    10fa:	7f c0       	rjmp	.+254    	; 0x11fa <karatsuba_recursive+0x170>
    10fc:	69 01       	movw	r12, r18
    10fe:	d6 94       	lsr	r13
    1100:	c7 94       	ror	r12
    1102:	60 e0       	ldi	r22, 0x00	; 0
    1104:	86 2f       	mov	r24, r22
    1106:	90 e0       	ldi	r25, 0x00	; 0
    1108:	8c 15       	cp	r24, r12
    110a:	9d 05       	cpc	r25, r13
    110c:	08 f4       	brcc	.+2      	; 0x1110 <karatsuba_recursive+0x86>
    110e:	b9 c0       	rjmp	.+370    	; 0x1282 <karatsuba_recursive+0x1f8>
    1110:	1f 5f       	subi	r17, 0xFF	; 255
    1112:	c6 01       	movw	r24, r12
    1114:	88 0f       	add	r24, r24
    1116:	99 1f       	adc	r25, r25
    1118:	89 83       	std	Y+1, r24	; 0x01
    111a:	9a 83       	std	Y+2, r25	; 0x02
    111c:	bc 01       	movw	r22, r24
    111e:	68 0d       	add	r22, r8
    1120:	79 1d       	adc	r23, r9
    1122:	01 2f       	mov	r16, r17
    1124:	96 01       	movw	r18, r12
    1126:	a7 01       	movw	r20, r14
    1128:	c4 01       	movw	r24, r8
    112a:	0e 94 45 08 	call	0x108a	; 0x108a <karatsuba_recursive>
    112e:	69 81       	ldd	r22, Y+1	; 0x01
    1130:	7a 81       	ldd	r23, Y+2	; 0x02
    1132:	66 0d       	add	r22, r6
    1134:	77 1d       	adc	r23, r7
    1136:	96 01       	movw	r18, r12
    1138:	a7 01       	movw	r20, r14
    113a:	42 0d       	add	r20, r2
    113c:	53 1d       	adc	r21, r3
    113e:	89 81       	ldd	r24, Y+1	; 0x01
    1140:	9a 81       	ldd	r25, Y+2	; 0x02
    1142:	84 0d       	add	r24, r4
    1144:	95 1d       	adc	r25, r5
    1146:	0e 94 45 08 	call	0x108a	; 0x108a <karatsuba_recursive>
    114a:	eb 82       	std	Y+3, r14	; 0x03
    114c:	fc 82       	std	Y+4, r15	; 0x04
    114e:	f7 01       	movw	r30, r14
    1150:	30 e0       	ldi	r19, 0x00	; 0
    1152:	20 e0       	ldi	r18, 0x00	; 0
    1154:	2a 15       	cp	r18, r10
    1156:	3b 05       	cpc	r19, r11
    1158:	09 f0       	breq	.+2      	; 0x115c <karatsuba_recursive+0xd2>
    115a:	cd c0       	rjmp	.+410    	; 0x12f6 <karatsuba_recursive+0x26c>
    115c:	01 2f       	mov	r16, r17
    115e:	96 01       	movw	r18, r12
    1160:	a4 01       	movw	r20, r8
    1162:	b3 01       	movw	r22, r6
    1164:	c2 01       	movw	r24, r4
    1166:	0e 94 45 08 	call	0x108a	; 0x108a <karatsuba_recursive>
    116a:	b4 01       	movw	r22, r8
    116c:	d4 01       	movw	r26, r8
    116e:	f7 01       	movw	r30, r14
    1170:	30 e0       	ldi	r19, 0x00	; 0
    1172:	20 e0       	ldi	r18, 0x00	; 0
    1174:	2a 15       	cp	r18, r10
    1176:	3b 05       	cpc	r19, r11
    1178:	09 f0       	breq	.+2      	; 0x117c <karatsuba_recursive+0xf2>
    117a:	d1 c0       	rjmp	.+418    	; 0x131e <karatsuba_recursive+0x294>
    117c:	f6 01       	movw	r30, r12
    117e:	ee 0f       	add	r30, r30
    1180:	ff 1f       	adc	r31, r31
    1182:	ee 0f       	add	r30, r30
    1184:	ff 1f       	adc	r31, r31
    1186:	ee 0d       	add	r30, r14
    1188:	ff 1d       	adc	r31, r15
    118a:	96 01       	movw	r18, r12
    118c:	2a 15       	cp	r18, r10
    118e:	3b 05       	cpc	r19, r11
    1190:	08 f4       	brcc	.+2      	; 0x1194 <karatsuba_recursive+0x10a>
    1192:	d6 c0       	rjmp	.+428    	; 0x1340 <karatsuba_recursive+0x2b6>
    1194:	a9 81       	ldd	r26, Y+1	; 0x01
    1196:	ba 81       	ldd	r27, Y+2	; 0x02
    1198:	ae 0d       	add	r26, r14
    119a:	bf 1d       	adc	r27, r15
    119c:	cd 01       	movw	r24, r26
    119e:	30 e0       	ldi	r19, 0x00	; 0
    11a0:	20 e0       	ldi	r18, 0x00	; 0
    11a2:	2c 15       	cp	r18, r12
    11a4:	3d 05       	cpc	r19, r13
    11a6:	09 f0       	breq	.+2      	; 0x11aa <karatsuba_recursive+0x120>
    11a8:	e3 c0       	rjmp	.+454    	; 0x1370 <karatsuba_recursive+0x2e6>
    11aa:	ed 81       	ldd	r30, Y+5	; 0x05
    11ac:	fe 81       	ldd	r31, Y+6	; 0x06
    11ae:	ec 15       	cp	r30, r12
    11b0:	fd 05       	cpc	r31, r13
    11b2:	09 f0       	breq	.+2      	; 0x11b6 <karatsuba_recursive+0x12c>
    11b4:	e8 c0       	rjmp	.+464    	; 0x1386 <karatsuba_recursive+0x2fc>
    11b6:	ca 14       	cp	r12, r10
    11b8:	db 04       	cpc	r13, r11
    11ba:	08 f4       	brcc	.+2      	; 0x11be <karatsuba_recursive+0x134>
    11bc:	f4 c0       	rjmp	.+488    	; 0x13a6 <karatsuba_recursive+0x31c>
    11be:	8f 81       	ldd	r24, Y+7	; 0x07
    11c0:	98 85       	ldd	r25, Y+8	; 0x08
    11c2:	8d bf       	out	0x3d, r24	; 61
    11c4:	9e bf       	out	0x3e, r25	; 62
    11c6:	ef 81       	ldd	r30, Y+7	; 0x07
    11c8:	f8 85       	ldd	r31, Y+8	; 0x08
    11ca:	ed bf       	out	0x3d, r30	; 61
    11cc:	fe bf       	out	0x3e, r31	; 62
    11ce:	28 96       	adiw	r28, 0x08	; 8
    11d0:	cd bf       	out	0x3d, r28	; 61
    11d2:	de bf       	out	0x3e, r29	; 62
    11d4:	df 91       	pop	r29
    11d6:	cf 91       	pop	r28
    11d8:	1f 91       	pop	r17
    11da:	0f 91       	pop	r16
    11dc:	ff 90       	pop	r15
    11de:	ef 90       	pop	r14
    11e0:	df 90       	pop	r13
    11e2:	cf 90       	pop	r12
    11e4:	bf 90       	pop	r11
    11e6:	af 90       	pop	r10
    11e8:	9f 90       	pop	r9
    11ea:	8f 90       	pop	r8
    11ec:	7f 90       	pop	r7
    11ee:	6f 90       	pop	r6
    11f0:	5f 90       	pop	r5
    11f2:	4f 90       	pop	r4
    11f4:	3f 90       	pop	r3
    11f6:	2f 90       	pop	r2
    11f8:	08 95       	ret
    11fa:	f7 01       	movw	r30, r14
    11fc:	90 e0       	ldi	r25, 0x00	; 0
    11fe:	80 e0       	ldi	r24, 0x00	; 0
    1200:	82 15       	cp	r24, r2
    1202:	93 05       	cpc	r25, r3
    1204:	79 f4       	brne	.+30     	; 0x1224 <karatsuba_recursive+0x19a>
    1206:	12 01       	movw	r2, r4
    1208:	91 2c       	mov	r9, r1
    120a:	81 2c       	mov	r8, r1
    120c:	8a 14       	cp	r8, r10
    120e:	9b 04       	cpc	r9, r11
    1210:	b1 f2       	breq	.-84     	; 0x11be <karatsuba_recursive+0x134>
    1212:	64 01       	movw	r12, r8
    1214:	cc 0c       	add	r12, r12
    1216:	dd 1c       	adc	r13, r13
    1218:	ce 0c       	add	r12, r14
    121a:	df 1c       	adc	r13, r15
    121c:	83 01       	movw	r16, r6
    121e:	51 2c       	mov	r5, r1
    1220:	41 2c       	mov	r4, r1
    1222:	20 c0       	rjmp	.+64     	; 0x1264 <karatsuba_recursive+0x1da>
    1224:	11 92       	st	Z+, r1
    1226:	11 92       	st	Z+, r1
    1228:	01 96       	adiw	r24, 0x01	; 1
    122a:	ea cf       	rjmp	.-44     	; 0x1200 <karatsuba_recursive+0x176>
    122c:	f8 01       	movw	r30, r16
    122e:	61 91       	ld	r22, Z+
    1230:	71 91       	ld	r23, Z+
    1232:	8f 01       	movw	r16, r30
    1234:	f1 01       	movw	r30, r2
    1236:	80 81       	ld	r24, Z
    1238:	0e 94 8b 06 	call	0xd16	; 0xd16 <call_mulRed_asm_4093>
    123c:	f6 01       	movw	r30, r12
    123e:	20 81       	ld	r18, Z
    1240:	31 81       	ldd	r19, Z+1	; 0x01
    1242:	82 0f       	add	r24, r18
    1244:	93 1f       	adc	r25, r19
    1246:	8d 3f       	cpi	r24, 0xFD	; 253
    1248:	ff e0       	ldi	r31, 0x0F	; 15
    124a:	9f 07       	cpc	r25, r31
    124c:	ac f0       	brlt	.+42     	; 0x1278 <karatsuba_recursive+0x1ee>
    124e:	8d 5f       	subi	r24, 0xFD	; 253
    1250:	9f 40       	sbci	r25, 0x0F	; 15
    1252:	f6 01       	movw	r30, r12
    1254:	80 83       	st	Z, r24
    1256:	91 83       	std	Z+1, r25	; 0x01
    1258:	ff ef       	ldi	r31, 0xFF	; 255
    125a:	4f 1a       	sub	r4, r31
    125c:	5f 0a       	sbc	r5, r31
    125e:	22 e0       	ldi	r18, 0x02	; 2
    1260:	c2 0e       	add	r12, r18
    1262:	d1 1c       	adc	r13, r1
    1264:	4a 14       	cp	r4, r10
    1266:	5b 04       	cpc	r5, r11
    1268:	09 f7       	brne	.-62     	; 0x122c <karatsuba_recursive+0x1a2>
    126a:	4f ef       	ldi	r20, 0xFF	; 255
    126c:	84 1a       	sub	r8, r20
    126e:	94 0a       	sbc	r9, r20
    1270:	72 e0       	ldi	r23, 0x02	; 2
    1272:	27 0e       	add	r2, r23
    1274:	31 1c       	adc	r3, r1
    1276:	ca cf       	rjmp	.-108    	; 0x120c <karatsuba_recursive+0x182>
    1278:	97 ff       	sbrs	r25, 7
    127a:	eb cf       	rjmp	.-42     	; 0x1252 <karatsuba_recursive+0x1c8>
    127c:	83 50       	subi	r24, 0x03	; 3
    127e:	90 4f       	sbci	r25, 0xF0	; 240
    1280:	e8 cf       	rjmp	.-48     	; 0x1252 <karatsuba_recursive+0x1c8>
    1282:	ac 01       	movw	r20, r24
    1284:	44 0f       	add	r20, r20
    1286:	55 1f       	adc	r21, r21
    1288:	8c 0d       	add	r24, r12
    128a:	9d 1d       	adc	r25, r13
    128c:	88 0f       	add	r24, r24
    128e:	99 1f       	adc	r25, r25
    1290:	f2 01       	movw	r30, r4
    1292:	e4 0f       	add	r30, r20
    1294:	f5 1f       	adc	r31, r21
    1296:	d2 01       	movw	r26, r4
    1298:	a8 0f       	add	r26, r24
    129a:	b9 1f       	adc	r27, r25
    129c:	01 90       	ld	r0, Z+
    129e:	f0 81       	ld	r31, Z
    12a0:	e0 2d       	mov	r30, r0
    12a2:	2d 91       	ld	r18, X+
    12a4:	3c 91       	ld	r19, X
    12a6:	2e 0f       	add	r18, r30
    12a8:	3f 1f       	adc	r19, r31
    12aa:	f4 01       	movw	r30, r8
    12ac:	e4 0f       	add	r30, r20
    12ae:	f5 1f       	adc	r31, r21
    12b0:	2d 3f       	cpi	r18, 0xFD	; 253
    12b2:	7f e0       	ldi	r23, 0x0F	; 15
    12b4:	37 07       	cpc	r19, r23
    12b6:	cc f4       	brge	.+50     	; 0x12ea <karatsuba_recursive+0x260>
    12b8:	20 83       	st	Z, r18
    12ba:	31 83       	std	Z+1, r19	; 0x01
    12bc:	46 0d       	add	r20, r6
    12be:	57 1d       	adc	r21, r7
    12c0:	fa 01       	movw	r30, r20
    12c2:	20 81       	ld	r18, Z
    12c4:	31 81       	ldd	r19, Z+1	; 0x01
    12c6:	f3 01       	movw	r30, r6
    12c8:	e8 0f       	add	r30, r24
    12ca:	f9 1f       	adc	r31, r25
    12cc:	40 81       	ld	r20, Z
    12ce:	51 81       	ldd	r21, Z+1	; 0x01
    12d0:	24 0f       	add	r18, r20
    12d2:	35 1f       	adc	r19, r21
    12d4:	88 0d       	add	r24, r8
    12d6:	99 1d       	adc	r25, r9
    12d8:	2d 3f       	cpi	r18, 0xFD	; 253
    12da:	ff e0       	ldi	r31, 0x0F	; 15
    12dc:	3f 07       	cpc	r19, r31
    12de:	44 f4       	brge	.+16     	; 0x12f0 <karatsuba_recursive+0x266>
    12e0:	fc 01       	movw	r30, r24
    12e2:	20 83       	st	Z, r18
    12e4:	31 83       	std	Z+1, r19	; 0x01
    12e6:	6f 5f       	subi	r22, 0xFF	; 255
    12e8:	0d cf       	rjmp	.-486    	; 0x1104 <karatsuba_recursive+0x7a>
    12ea:	2d 5f       	subi	r18, 0xFD	; 253
    12ec:	3f 40       	sbci	r19, 0x0F	; 15
    12ee:	e4 cf       	rjmp	.-56     	; 0x12b8 <karatsuba_recursive+0x22e>
    12f0:	2d 5f       	subi	r18, 0xFD	; 253
    12f2:	3f 40       	sbci	r19, 0x0F	; 15
    12f4:	f5 cf       	rjmp	.-22     	; 0x12e0 <karatsuba_recursive+0x256>
    12f6:	80 81       	ld	r24, Z
    12f8:	91 81       	ldd	r25, Z+1	; 0x01
    12fa:	df 01       	movw	r26, r30
    12fc:	a2 0d       	add	r26, r2
    12fe:	b3 1d       	adc	r27, r3
    1300:	4d 91       	ld	r20, X+
    1302:	5c 91       	ld	r21, X
    1304:	84 1b       	sub	r24, r20
    1306:	95 0b       	sbc	r25, r21
    1308:	97 fd       	sbrc	r25, 7
    130a:	06 c0       	rjmp	.+12     	; 0x1318 <karatsuba_recursive+0x28e>
    130c:	80 83       	st	Z, r24
    130e:	91 83       	std	Z+1, r25	; 0x01
    1310:	2f 5f       	subi	r18, 0xFF	; 255
    1312:	3f 4f       	sbci	r19, 0xFF	; 255
    1314:	32 96       	adiw	r30, 0x02	; 2
    1316:	1e cf       	rjmp	.-452    	; 0x1154 <karatsuba_recursive+0xca>
    1318:	83 50       	subi	r24, 0x03	; 3
    131a:	90 4f       	sbci	r25, 0xF0	; 240
    131c:	f7 cf       	rjmp	.-18     	; 0x130c <karatsuba_recursive+0x282>
    131e:	4d 91       	ld	r20, X+
    1320:	5d 91       	ld	r21, X+
    1322:	80 81       	ld	r24, Z
    1324:	91 81       	ldd	r25, Z+1	; 0x01
    1326:	84 1b       	sub	r24, r20
    1328:	95 0b       	sbc	r25, r21
    132a:	97 fd       	sbrc	r25, 7
    132c:	06 c0       	rjmp	.+12     	; 0x133a <karatsuba_recursive+0x2b0>
    132e:	80 83       	st	Z, r24
    1330:	91 83       	std	Z+1, r25	; 0x01
    1332:	2f 5f       	subi	r18, 0xFF	; 255
    1334:	3f 4f       	sbci	r19, 0xFF	; 255
    1336:	32 96       	adiw	r30, 0x02	; 2
    1338:	1d cf       	rjmp	.-454    	; 0x1174 <karatsuba_recursive+0xea>
    133a:	83 50       	subi	r24, 0x03	; 3
    133c:	90 4f       	sbci	r25, 0xF0	; 240
    133e:	f7 cf       	rjmp	.-18     	; 0x132e <karatsuba_recursive+0x2a4>
    1340:	d9 01       	movw	r26, r18
    1342:	aa 0f       	add	r26, r26
    1344:	bb 1f       	adc	r27, r27
    1346:	ae 0d       	add	r26, r14
    1348:	bf 1d       	adc	r27, r15
    134a:	8d 91       	ld	r24, X+
    134c:	9c 91       	ld	r25, X
    134e:	40 81       	ld	r20, Z
    1350:	51 81       	ldd	r21, Z+1	; 0x01
    1352:	84 0f       	add	r24, r20
    1354:	95 1f       	adc	r25, r21
    1356:	8d 3f       	cpi	r24, 0xFD	; 253
    1358:	4f e0       	ldi	r20, 0x0F	; 15
    135a:	94 07       	cpc	r25, r20
    135c:	34 f4       	brge	.+12     	; 0x136a <karatsuba_recursive+0x2e0>
    135e:	80 83       	st	Z, r24
    1360:	91 83       	std	Z+1, r25	; 0x01
    1362:	2f 5f       	subi	r18, 0xFF	; 255
    1364:	3f 4f       	sbci	r19, 0xFF	; 255
    1366:	32 96       	adiw	r30, 0x02	; 2
    1368:	11 cf       	rjmp	.-478    	; 0x118c <karatsuba_recursive+0x102>
    136a:	8d 5f       	subi	r24, 0xFD	; 253
    136c:	9f 40       	sbci	r25, 0x0F	; 15
    136e:	f7 cf       	rjmp	.-18     	; 0x135e <karatsuba_recursive+0x2d4>
    1370:	f7 01       	movw	r30, r14
    1372:	41 91       	ld	r20, Z+
    1374:	51 91       	ld	r21, Z+
    1376:	7f 01       	movw	r14, r30
    1378:	fc 01       	movw	r30, r24
    137a:	41 93       	st	Z+, r20
    137c:	51 93       	st	Z+, r21
    137e:	cf 01       	movw	r24, r30
    1380:	2f 5f       	subi	r18, 0xFF	; 255
    1382:	3f 4f       	sbci	r19, 0xFF	; 255
    1384:	0e cf       	rjmp	.-484    	; 0x11a2 <karatsuba_recursive+0x118>
    1386:	fb 01       	movw	r30, r22
    1388:	81 91       	ld	r24, Z+
    138a:	91 91       	ld	r25, Z+
    138c:	bf 01       	movw	r22, r30
    138e:	eb 81       	ldd	r30, Y+3	; 0x03
    1390:	fc 81       	ldd	r31, Y+4	; 0x04
    1392:	81 93       	st	Z+, r24
    1394:	91 93       	st	Z+, r25
    1396:	eb 83       	std	Y+3, r30	; 0x03
    1398:	fc 83       	std	Y+4, r31	; 0x04
    139a:	8d 81       	ldd	r24, Y+5	; 0x05
    139c:	9e 81       	ldd	r25, Y+6	; 0x06
    139e:	01 96       	adiw	r24, 0x01	; 1
    13a0:	8d 83       	std	Y+5, r24	; 0x05
    13a2:	9e 83       	std	Y+6, r25	; 0x06
    13a4:	02 cf       	rjmp	.-508    	; 0x11aa <karatsuba_recursive+0x120>
    13a6:	f6 01       	movw	r30, r12
    13a8:	ee 0f       	add	r30, r30
    13aa:	ff 1f       	adc	r31, r31
    13ac:	e8 0d       	add	r30, r8
    13ae:	f9 1d       	adc	r31, r9
    13b0:	80 81       	ld	r24, Z
    13b2:	91 81       	ldd	r25, Z+1	; 0x01
    13b4:	2d 91       	ld	r18, X+
    13b6:	3c 91       	ld	r19, X
    13b8:	11 97       	sbiw	r26, 0x01	; 1
    13ba:	82 0f       	add	r24, r18
    13bc:	93 1f       	adc	r25, r19
    13be:	8d 3f       	cpi	r24, 0xFD	; 253
    13c0:	ff e0       	ldi	r31, 0x0F	; 15
    13c2:	9f 07       	cpc	r25, r31
    13c4:	44 f4       	brge	.+16     	; 0x13d6 <karatsuba_recursive+0x34c>
    13c6:	8d 93       	st	X+, r24
    13c8:	9c 93       	st	X, r25
    13ca:	11 97       	sbiw	r26, 0x01	; 1
    13cc:	2f ef       	ldi	r18, 0xFF	; 255
    13ce:	c2 1a       	sub	r12, r18
    13d0:	d2 0a       	sbc	r13, r18
    13d2:	12 96       	adiw	r26, 0x02	; 2
    13d4:	f0 ce       	rjmp	.-544    	; 0x11b6 <karatsuba_recursive+0x12c>
    13d6:	8d 5f       	subi	r24, 0xFD	; 253
    13d8:	9f 40       	sbci	r25, 0x0F	; 15
    13da:	f5 cf       	rjmp	.-22     	; 0x13c6 <karatsuba_recursive+0x33c>

000013dc <karatsuba_4093_192>:
    13dc:	bf 92       	push	r11
    13de:	cf 92       	push	r12
    13e0:	df 92       	push	r13
    13e2:	ef 92       	push	r14
    13e4:	ff 92       	push	r15
    13e6:	0f 93       	push	r16
    13e8:	1f 93       	push	r17
    13ea:	cf 93       	push	r28
    13ec:	df 93       	push	r29
    13ee:	cd b7       	in	r28, 0x3d	; 61
    13f0:	de b7       	in	r29, 0x3e	; 62
    13f2:	c0 58       	subi	r28, 0x80	; 128
    13f4:	d4 40       	sbci	r29, 0x04	; 4
    13f6:	cd bf       	out	0x3d, r28	; 61
    13f8:	de bf       	out	0x3e, r29	; 62
    13fa:	6b 01       	movw	r12, r22
    13fc:	f4 2e       	mov	r15, r20
    13fe:	15 2f       	mov	r17, r21
    1400:	a9 01       	movw	r20, r18
    1402:	de 01       	movw	r26, r28
    1404:	af 5f       	subi	r26, 0xFF	; 255
    1406:	bc 4f       	sbci	r27, 0xFC	; 252
    1408:	30 e0       	ldi	r19, 0x00	; 0
    140a:	20 e0       	ldi	r18, 0x00	; 0
    140c:	ba 2e       	mov	r11, r26
    140e:	eb 2e       	mov	r14, r27
    1410:	f6 01       	movw	r30, r12
    1412:	e2 0f       	add	r30, r18
    1414:	f3 1f       	adc	r31, r19
    1416:	65 91       	lpm	r22, Z+
    1418:	74 91       	lpm	r23, Z
    141a:	6d 93       	st	X+, r22
    141c:	7d 93       	st	X+, r23
    141e:	2e 5f       	subi	r18, 0xFE	; 254
    1420:	3f 4f       	sbci	r19, 0xFF	; 255
    1422:	20 38       	cpi	r18, 0x80	; 128
    1424:	61 e0       	ldi	r22, 0x01	; 1
    1426:	36 07       	cpc	r19, r22
    1428:	99 f7       	brne	.-26     	; 0x1410 <karatsuba_4093_192+0x34>
    142a:	00 e0       	ldi	r16, 0x00	; 0
    142c:	20 ec       	ldi	r18, 0xC0	; 192
    142e:	30 e0       	ldi	r19, 0x00	; 0
    1430:	45 2b       	or	r20, r21
    1432:	e9 f4       	brne	.+58     	; 0x146e <karatsuba_4093_192+0x92>
    1434:	ae 01       	movw	r20, r28
    1436:	4f 5f       	subi	r20, 0xFF	; 255
    1438:	5f 4f       	sbci	r21, 0xFF	; 255
    143a:	6b 2d       	mov	r22, r11
    143c:	7e 2d       	mov	r23, r14
    143e:	0e 94 45 08 	call	0x108a	; 0x108a <karatsuba_recursive>
    1442:	40 ec       	ldi	r20, 0xC0	; 192
    1444:	50 e0       	ldi	r21, 0x00	; 0
    1446:	6f 2d       	mov	r22, r15
    1448:	71 2f       	mov	r23, r17
    144a:	ce 01       	movw	r24, r28
    144c:	01 96       	adiw	r24, 0x01	; 1
    144e:	0e 94 19 08 	call	0x1032	; 0x1032 <reduce>
    1452:	c0 58       	subi	r28, 0x80	; 128
    1454:	db 4f       	sbci	r29, 0xFB	; 251
    1456:	cd bf       	out	0x3d, r28	; 61
    1458:	de bf       	out	0x3e, r29	; 62
    145a:	df 91       	pop	r29
    145c:	cf 91       	pop	r28
    145e:	1f 91       	pop	r17
    1460:	0f 91       	pop	r16
    1462:	ff 90       	pop	r15
    1464:	ef 90       	pop	r14
    1466:	df 90       	pop	r13
    1468:	cf 90       	pop	r12
    146a:	bf 90       	pop	r11
    146c:	08 95       	ret
    146e:	ae 01       	movw	r20, r28
    1470:	4f 5f       	subi	r20, 0xFF	; 255
    1472:	5f 4f       	sbci	r21, 0xFF	; 255
    1474:	bc 01       	movw	r22, r24
    1476:	8b 2d       	mov	r24, r11
    1478:	9e 2d       	mov	r25, r14
    147a:	e1 cf       	rjmp	.-62     	; 0x143e <karatsuba_4093_192+0x62>

0000147c <karatsuba_4093_256>:
    147c:	bf 92       	push	r11
    147e:	cf 92       	push	r12
    1480:	df 92       	push	r13
    1482:	ef 92       	push	r14
    1484:	ff 92       	push	r15
    1486:	0f 93       	push	r16
    1488:	1f 93       	push	r17
    148a:	cf 93       	push	r28
    148c:	df 93       	push	r29
    148e:	cd b7       	in	r28, 0x3d	; 61
    1490:	de b7       	in	r29, 0x3e	; 62
    1492:	d6 50       	subi	r29, 0x06	; 6
    1494:	cd bf       	out	0x3d, r28	; 61
    1496:	de bf       	out	0x3e, r29	; 62
    1498:	6b 01       	movw	r12, r22
    149a:	f4 2e       	mov	r15, r20
    149c:	15 2f       	mov	r17, r21
    149e:	a9 01       	movw	r20, r18
    14a0:	de 01       	movw	r26, r28
    14a2:	af 5f       	subi	r26, 0xFF	; 255
    14a4:	bb 4f       	sbci	r27, 0xFB	; 251
    14a6:	30 e0       	ldi	r19, 0x00	; 0
    14a8:	20 e0       	ldi	r18, 0x00	; 0
    14aa:	ba 2e       	mov	r11, r26
    14ac:	eb 2e       	mov	r14, r27
    14ae:	f6 01       	movw	r30, r12
    14b0:	e2 0f       	add	r30, r18
    14b2:	f3 1f       	adc	r31, r19
    14b4:	65 91       	lpm	r22, Z+
    14b6:	74 91       	lpm	r23, Z
    14b8:	6d 93       	st	X+, r22
    14ba:	7d 93       	st	X+, r23
    14bc:	2e 5f       	subi	r18, 0xFE	; 254
    14be:	3f 4f       	sbci	r19, 0xFF	; 255
    14c0:	21 15       	cp	r18, r1
    14c2:	62 e0       	ldi	r22, 0x02	; 2
    14c4:	36 07       	cpc	r19, r22
    14c6:	99 f7       	brne	.-26     	; 0x14ae <karatsuba_4093_256+0x32>
    14c8:	00 e0       	ldi	r16, 0x00	; 0
    14ca:	20 e0       	ldi	r18, 0x00	; 0
    14cc:	31 e0       	ldi	r19, 0x01	; 1
    14ce:	45 2b       	or	r20, r21
    14d0:	e1 f4       	brne	.+56     	; 0x150a <karatsuba_4093_256+0x8e>
    14d2:	ae 01       	movw	r20, r28
    14d4:	4f 5f       	subi	r20, 0xFF	; 255
    14d6:	5f 4f       	sbci	r21, 0xFF	; 255
    14d8:	6b 2d       	mov	r22, r11
    14da:	7e 2d       	mov	r23, r14
    14dc:	0e 94 45 08 	call	0x108a	; 0x108a <karatsuba_recursive>
    14e0:	40 e0       	ldi	r20, 0x00	; 0
    14e2:	51 e0       	ldi	r21, 0x01	; 1
    14e4:	6f 2d       	mov	r22, r15
    14e6:	71 2f       	mov	r23, r17
    14e8:	ce 01       	movw	r24, r28
    14ea:	01 96       	adiw	r24, 0x01	; 1
    14ec:	0e 94 19 08 	call	0x1032	; 0x1032 <reduce>
    14f0:	da 5f       	subi	r29, 0xFA	; 250
    14f2:	cd bf       	out	0x3d, r28	; 61
    14f4:	de bf       	out	0x3e, r29	; 62
    14f6:	df 91       	pop	r29
    14f8:	cf 91       	pop	r28
    14fa:	1f 91       	pop	r17
    14fc:	0f 91       	pop	r16
    14fe:	ff 90       	pop	r15
    1500:	ef 90       	pop	r14
    1502:	df 90       	pop	r13
    1504:	cf 90       	pop	r12
    1506:	bf 90       	pop	r11
    1508:	08 95       	ret
    150a:	ae 01       	movw	r20, r28
    150c:	4f 5f       	subi	r20, 0xFF	; 255
    150e:	5f 4f       	sbci	r21, 0xFF	; 255
    1510:	bc 01       	movw	r22, r24
    1512:	8b 2d       	mov	r24, r11
    1514:	9e 2d       	mov	r25, r14
    1516:	e2 cf       	rjmp	.-60     	; 0x14dc <karatsuba_4093_256+0x60>

00001518 <karatsuba_4093_320>:
    1518:	bf 92       	push	r11
    151a:	cf 92       	push	r12
    151c:	df 92       	push	r13
    151e:	ef 92       	push	r14
    1520:	ff 92       	push	r15
    1522:	0f 93       	push	r16
    1524:	1f 93       	push	r17
    1526:	cf 93       	push	r28
    1528:	df 93       	push	r29
    152a:	cd b7       	in	r28, 0x3d	; 61
    152c:	de b7       	in	r29, 0x3e	; 62
    152e:	c0 58       	subi	r28, 0x80	; 128
    1530:	d7 40       	sbci	r29, 0x07	; 7
    1532:	cd bf       	out	0x3d, r28	; 61
    1534:	de bf       	out	0x3e, r29	; 62
    1536:	6b 01       	movw	r12, r22
    1538:	f4 2e       	mov	r15, r20
    153a:	15 2f       	mov	r17, r21
    153c:	a9 01       	movw	r20, r18
    153e:	de 01       	movw	r26, r28
    1540:	af 5f       	subi	r26, 0xFF	; 255
    1542:	ba 4f       	sbci	r27, 0xFA	; 250
    1544:	30 e0       	ldi	r19, 0x00	; 0
    1546:	20 e0       	ldi	r18, 0x00	; 0
    1548:	ba 2e       	mov	r11, r26
    154a:	eb 2e       	mov	r14, r27
    154c:	f6 01       	movw	r30, r12
    154e:	e2 0f       	add	r30, r18
    1550:	f3 1f       	adc	r31, r19
    1552:	65 91       	lpm	r22, Z+
    1554:	74 91       	lpm	r23, Z
    1556:	6d 93       	st	X+, r22
    1558:	7d 93       	st	X+, r23
    155a:	2e 5f       	subi	r18, 0xFE	; 254
    155c:	3f 4f       	sbci	r19, 0xFF	; 255
    155e:	20 38       	cpi	r18, 0x80	; 128
    1560:	62 e0       	ldi	r22, 0x02	; 2
    1562:	36 07       	cpc	r19, r22
    1564:	99 f7       	brne	.-26     	; 0x154c <karatsuba_4093_320+0x34>
    1566:	00 e0       	ldi	r16, 0x00	; 0
    1568:	20 e4       	ldi	r18, 0x40	; 64
    156a:	31 e0       	ldi	r19, 0x01	; 1
    156c:	45 2b       	or	r20, r21
    156e:	e9 f4       	brne	.+58     	; 0x15aa <karatsuba_4093_320+0x92>
    1570:	ae 01       	movw	r20, r28
    1572:	4f 5f       	subi	r20, 0xFF	; 255
    1574:	5f 4f       	sbci	r21, 0xFF	; 255
    1576:	6b 2d       	mov	r22, r11
    1578:	7e 2d       	mov	r23, r14
    157a:	0e 94 45 08 	call	0x108a	; 0x108a <karatsuba_recursive>
    157e:	40 e4       	ldi	r20, 0x40	; 64
    1580:	51 e0       	ldi	r21, 0x01	; 1
    1582:	6f 2d       	mov	r22, r15
    1584:	71 2f       	mov	r23, r17
    1586:	ce 01       	movw	r24, r28
    1588:	01 96       	adiw	r24, 0x01	; 1
    158a:	0e 94 19 08 	call	0x1032	; 0x1032 <reduce>
    158e:	c0 58       	subi	r28, 0x80	; 128
    1590:	d8 4f       	sbci	r29, 0xF8	; 248
    1592:	cd bf       	out	0x3d, r28	; 61
    1594:	de bf       	out	0x3e, r29	; 62
    1596:	df 91       	pop	r29
    1598:	cf 91       	pop	r28
    159a:	1f 91       	pop	r17
    159c:	0f 91       	pop	r16
    159e:	ff 90       	pop	r15
    15a0:	ef 90       	pop	r14
    15a2:	df 90       	pop	r13
    15a4:	cf 90       	pop	r12
    15a6:	bf 90       	pop	r11
    15a8:	08 95       	ret
    15aa:	ae 01       	movw	r20, r28
    15ac:	4f 5f       	subi	r20, 0xFF	; 255
    15ae:	5f 4f       	sbci	r21, 0xFF	; 255
    15b0:	bc 01       	movw	r22, r24
    15b2:	8b 2d       	mov	r24, r11
    15b4:	9e 2d       	mov	r25, r14
    15b6:	e1 cf       	rjmp	.-62     	; 0x157a <karatsuba_4093_320+0x62>

000015b8 <add_encode_ksuba_4093>:
    15b8:	cf 93       	push	r28
    15ba:	df 93       	push	r29
    15bc:	dc 01       	movw	r26, r24
    15be:	fb 01       	movw	r30, r22
    15c0:	90 e0       	ldi	r25, 0x00	; 0
    15c2:	80 e0       	ldi	r24, 0x00	; 0
    15c4:	41 50       	subi	r20, 0x01	; 1
    15c6:	51 09       	sbc	r21, r1
    15c8:	ec 01       	movw	r28, r24
    15ca:	23 e0       	ldi	r18, 0x03	; 3
    15cc:	d6 95       	lsr	r29
    15ce:	c7 95       	ror	r28
    15d0:	2a 95       	dec	r18
    15d2:	e1 f7       	brne	.-8      	; 0x15cc <add_encode_ksuba_4093+0x14>
    15d4:	ca 0f       	add	r28, r26
    15d6:	db 1f       	adc	r29, r27
    15d8:	28 81       	ld	r18, Y
    15da:	30 e0       	ldi	r19, 0x00	; 0
    15dc:	bc 01       	movw	r22, r24
    15de:	67 70       	andi	r22, 0x07	; 7
    15e0:	77 27       	eor	r23, r23
    15e2:	02 c0       	rjmp	.+4      	; 0x15e8 <add_encode_ksuba_4093+0x30>
    15e4:	35 95       	asr	r19
    15e6:	27 95       	ror	r18
    15e8:	6a 95       	dec	r22
    15ea:	e2 f7       	brpl	.-8      	; 0x15e4 <add_encode_ksuba_4093+0x2c>
    15ec:	20 ff       	sbrs	r18, 0
    15ee:	0b c0       	rjmp	.+22     	; 0x1606 <add_encode_ksuba_4093+0x4e>
    15f0:	20 81       	ld	r18, Z
    15f2:	31 81       	ldd	r19, Z+1	; 0x01
    15f4:	b9 01       	movw	r22, r18
    15f6:	62 50       	subi	r22, 0x02	; 2
    15f8:	78 4f       	sbci	r23, 0xF8	; 248
    15fa:	6e 3f       	cpi	r22, 0xFE	; 254
    15fc:	cf e0       	ldi	r28, 0x0F	; 15
    15fe:	7c 07       	cpc	r23, r28
    1600:	40 f4       	brcc	.+16     	; 0x1612 <add_encode_ksuba_4093+0x5a>
    1602:	60 83       	st	Z, r22
    1604:	71 83       	std	Z+1, r23	; 0x01
    1606:	32 96       	adiw	r30, 0x02	; 2
    1608:	48 17       	cp	r20, r24
    160a:	59 07       	cpc	r21, r25
    160c:	39 f0       	breq	.+14     	; 0x161c <add_encode_ksuba_4093+0x64>
    160e:	01 96       	adiw	r24, 0x01	; 1
    1610:	db cf       	rjmp	.-74     	; 0x15c8 <add_encode_ksuba_4093+0x10>
    1612:	2f 5f       	subi	r18, 0xFF	; 255
    1614:	37 40       	sbci	r19, 0x07	; 7
    1616:	20 83       	st	Z, r18
    1618:	31 83       	std	Z+1, r19	; 0x01
    161a:	f5 cf       	rjmp	.-22     	; 0x1606 <add_encode_ksuba_4093+0x4e>
    161c:	df 91       	pop	r29
    161e:	cf 91       	pop	r28
    1620:	08 95       	ret

00001622 <encrypt_ksuba_4093>:
    1622:	6f 92       	push	r6
    1624:	7f 92       	push	r7
    1626:	8f 92       	push	r8
    1628:	9f 92       	push	r9
    162a:	af 92       	push	r10
    162c:	bf 92       	push	r11
    162e:	cf 92       	push	r12
    1630:	df 92       	push	r13
    1632:	ef 92       	push	r14
    1634:	ff 92       	push	r15
    1636:	0f 93       	push	r16
    1638:	1f 93       	push	r17
    163a:	cf 93       	push	r28
    163c:	df 93       	push	r29
    163e:	3c 01       	movw	r6, r24
    1640:	d6 2f       	mov	r29, r22
    1642:	c7 2f       	mov	r28, r23
    1644:	5a 01       	movw	r10, r20
    1646:	49 01       	movw	r8, r18
    1648:	67 01       	movw	r12, r14
    164a:	a7 01       	movw	r20, r14
    164c:	70 e0       	ldi	r23, 0x00	; 0
    164e:	60 e0       	ldi	r22, 0x00	; 0
    1650:	8d 2f       	mov	r24, r29
    1652:	9c 2f       	mov	r25, r28
    1654:	0e 94 ad 07 	call	0xf5a	; 0xf5a <get_gauss_poly_4093_posneg>
    1658:	80 ec       	ldi	r24, 0xC0	; 192
    165a:	e8 16       	cp	r14, r24
    165c:	f1 04       	cpc	r15, r1
    165e:	89 f5       	brne	.+98     	; 0x16c2 <encrypt_ksuba_4093+0xa0>
    1660:	30 e0       	ldi	r19, 0x00	; 0
    1662:	20 e0       	ldi	r18, 0x00	; 0
    1664:	a5 01       	movw	r20, r10
    1666:	b8 01       	movw	r22, r16
    1668:	8d 2f       	mov	r24, r29
    166a:	9c 2f       	mov	r25, r28
    166c:	0e 94 ee 09 	call	0x13dc	; 0x13dc <karatsuba_4093_192>
    1670:	30 e0       	ldi	r19, 0x00	; 0
    1672:	20 e0       	ldi	r18, 0x00	; 0
    1674:	4d 2f       	mov	r20, r29
    1676:	5c 2f       	mov	r21, r28
    1678:	b4 01       	movw	r22, r8
    167a:	8d 2f       	mov	r24, r29
    167c:	9c 2f       	mov	r25, r28
    167e:	0e 94 ee 09 	call	0x13dc	; 0x13dc <karatsuba_4093_192>
    1682:	a6 01       	movw	r20, r12
    1684:	61 e0       	ldi	r22, 0x01	; 1
    1686:	70 e0       	ldi	r23, 0x00	; 0
    1688:	8d 2f       	mov	r24, r29
    168a:	9c 2f       	mov	r25, r28
    168c:	0e 94 3b 07 	call	0xe76	; 0xe76 <get_gauss_poly_4093>
    1690:	a6 01       	movw	r20, r12
    1692:	61 e0       	ldi	r22, 0x01	; 1
    1694:	70 e0       	ldi	r23, 0x00	; 0
    1696:	c5 01       	movw	r24, r10
    1698:	0e 94 3b 07 	call	0xe76	; 0xe76 <get_gauss_poly_4093>
    169c:	a6 01       	movw	r20, r12
    169e:	b5 01       	movw	r22, r10
    16a0:	c3 01       	movw	r24, r6
    16a2:	df 91       	pop	r29
    16a4:	cf 91       	pop	r28
    16a6:	1f 91       	pop	r17
    16a8:	0f 91       	pop	r16
    16aa:	ff 90       	pop	r15
    16ac:	ef 90       	pop	r14
    16ae:	df 90       	pop	r13
    16b0:	cf 90       	pop	r12
    16b2:	bf 90       	pop	r11
    16b4:	af 90       	pop	r10
    16b6:	9f 90       	pop	r9
    16b8:	8f 90       	pop	r8
    16ba:	7f 90       	pop	r7
    16bc:	6f 90       	pop	r6
    16be:	0c 94 dc 0a 	jmp	0x15b8	; 0x15b8 <add_encode_ksuba_4093>
    16c2:	e1 14       	cp	r14, r1
    16c4:	81 e0       	ldi	r24, 0x01	; 1
    16c6:	f8 06       	cpc	r15, r24
    16c8:	b9 f0       	breq	.+46     	; 0x16f8 <encrypt_ksuba_4093+0xd6>
    16ca:	80 e4       	ldi	r24, 0x40	; 64
    16cc:	e8 16       	cp	r14, r24
    16ce:	81 e0       	ldi	r24, 0x01	; 1
    16d0:	f8 06       	cpc	r15, r24
    16d2:	b9 f6       	brne	.-82     	; 0x1682 <encrypt_ksuba_4093+0x60>
    16d4:	30 e0       	ldi	r19, 0x00	; 0
    16d6:	20 e0       	ldi	r18, 0x00	; 0
    16d8:	a5 01       	movw	r20, r10
    16da:	b8 01       	movw	r22, r16
    16dc:	8d 2f       	mov	r24, r29
    16de:	9c 2f       	mov	r25, r28
    16e0:	0e 94 8c 0a 	call	0x1518	; 0x1518 <karatsuba_4093_320>
    16e4:	30 e0       	ldi	r19, 0x00	; 0
    16e6:	20 e0       	ldi	r18, 0x00	; 0
    16e8:	4d 2f       	mov	r20, r29
    16ea:	5c 2f       	mov	r21, r28
    16ec:	b4 01       	movw	r22, r8
    16ee:	8d 2f       	mov	r24, r29
    16f0:	9c 2f       	mov	r25, r28
    16f2:	0e 94 8c 0a 	call	0x1518	; 0x1518 <karatsuba_4093_320>
    16f6:	c5 cf       	rjmp	.-118    	; 0x1682 <encrypt_ksuba_4093+0x60>
    16f8:	30 e0       	ldi	r19, 0x00	; 0
    16fa:	20 e0       	ldi	r18, 0x00	; 0
    16fc:	a5 01       	movw	r20, r10
    16fe:	b8 01       	movw	r22, r16
    1700:	8d 2f       	mov	r24, r29
    1702:	9c 2f       	mov	r25, r28
    1704:	0e 94 3e 0a 	call	0x147c	; 0x147c <karatsuba_4093_256>
    1708:	30 e0       	ldi	r19, 0x00	; 0
    170a:	20 e0       	ldi	r18, 0x00	; 0
    170c:	4d 2f       	mov	r20, r29
    170e:	5c 2f       	mov	r21, r28
    1710:	b4 01       	movw	r22, r8
    1712:	8d 2f       	mov	r24, r29
    1714:	9c 2f       	mov	r25, r28
    1716:	0e 94 3e 0a 	call	0x147c	; 0x147c <karatsuba_4093_256>
    171a:	b3 cf       	rjmp	.-154    	; 0x1682 <encrypt_ksuba_4093+0x60>

0000171c <decode_ksuba_4093>:
    171c:	0f 93       	push	r16
    171e:	1f 93       	push	r17
    1720:	cf 93       	push	r28
    1722:	df 93       	push	r29
    1724:	9b 01       	movw	r18, r22
    1726:	fc 01       	movw	r30, r24
    1728:	90 e0       	ldi	r25, 0x00	; 0
    172a:	80 e0       	ldi	r24, 0x00	; 0
    172c:	c1 e0       	ldi	r28, 0x01	; 1
    172e:	d0 e0       	ldi	r29, 0x00	; 0
    1730:	41 50       	subi	r20, 0x01	; 1
    1732:	51 09       	sbc	r21, r1
    1734:	61 91       	ld	r22, Z+
    1736:	71 91       	ld	r23, Z+
    1738:	6f 5f       	subi	r22, 0xFF	; 255
    173a:	73 40       	sbci	r23, 0x03	; 3
    173c:	6e 3f       	cpi	r22, 0xFE	; 254
    173e:	77 40       	sbci	r23, 0x07	; 7
    1740:	98 f4       	brcc	.+38     	; 0x1768 <decode_ksuba_4093+0x4c>
    1742:	dc 01       	movw	r26, r24
    1744:	63 e0       	ldi	r22, 0x03	; 3
    1746:	b6 95       	lsr	r27
    1748:	a7 95       	ror	r26
    174a:	6a 95       	dec	r22
    174c:	e1 f7       	brne	.-8      	; 0x1746 <decode_ksuba_4093+0x2a>
    174e:	a2 0f       	add	r26, r18
    1750:	b3 1f       	adc	r27, r19
    1752:	bc 01       	movw	r22, r24
    1754:	67 70       	andi	r22, 0x07	; 7
    1756:	77 27       	eor	r23, r23
    1758:	8e 01       	movw	r16, r28
    175a:	01 c0       	rjmp	.+2      	; 0x175e <decode_ksuba_4093+0x42>
    175c:	00 0f       	add	r16, r16
    175e:	6a 95       	dec	r22
    1760:	ea f7       	brpl	.-6      	; 0x175c <decode_ksuba_4093+0x40>
    1762:	6c 91       	ld	r22, X
    1764:	60 2b       	or	r22, r16
    1766:	6c 93       	st	X, r22
    1768:	48 17       	cp	r20, r24
    176a:	59 07       	cpc	r21, r25
    176c:	11 f0       	breq	.+4      	; 0x1772 <decode_ksuba_4093+0x56>
    176e:	01 96       	adiw	r24, 0x01	; 1
    1770:	e1 cf       	rjmp	.-62     	; 0x1734 <decode_ksuba_4093+0x18>
    1772:	df 91       	pop	r29
    1774:	cf 91       	pop	r28
    1776:	1f 91       	pop	r17
    1778:	0f 91       	pop	r16
    177a:	08 95       	ret

0000177c <decrypt_ksuba_4093>:
    177c:	af 92       	push	r10
    177e:	bf 92       	push	r11
    1780:	cf 92       	push	r12
    1782:	df 92       	push	r13
    1784:	ef 92       	push	r14
    1786:	ff 92       	push	r15
    1788:	0f 93       	push	r16
    178a:	1f 93       	push	r17
    178c:	cf 93       	push	r28
    178e:	df 93       	push	r29
    1790:	6c 01       	movw	r12, r24
    1792:	d6 2f       	mov	r29, r22
    1794:	c7 2f       	mov	r28, r23
    1796:	5a 01       	movw	r10, r20
    1798:	b9 01       	movw	r22, r18
    179a:	78 01       	movw	r14, r16
    179c:	00 3c       	cpi	r16, 0xC0	; 192
    179e:	11 05       	cpc	r17, r1
    17a0:	f9 f4       	brne	.+62     	; 0x17e0 <decrypt_ksuba_4093+0x64>
    17a2:	21 e0       	ldi	r18, 0x01	; 1
    17a4:	30 e0       	ldi	r19, 0x00	; 0
    17a6:	4d 2f       	mov	r20, r29
    17a8:	5c 2f       	mov	r21, r28
    17aa:	8d 2f       	mov	r24, r29
    17ac:	9c 2f       	mov	r25, r28
    17ae:	0e 94 ee 09 	call	0x13dc	; 0x13dc <karatsuba_4093_192>
    17b2:	ed 2f       	mov	r30, r29
    17b4:	fc 2f       	mov	r31, r28
    17b6:	d5 01       	movw	r26, r10
    17b8:	50 e0       	ldi	r21, 0x00	; 0
    17ba:	40 e0       	ldi	r20, 0x00	; 0
    17bc:	4e 15       	cp	r20, r14
    17be:	5f 05       	cpc	r21, r15
    17c0:	41 f5       	brne	.+80     	; 0x1812 <decrypt_ksuba_4093+0x96>
    17c2:	b6 01       	movw	r22, r12
    17c4:	8d 2f       	mov	r24, r29
    17c6:	9c 2f       	mov	r25, r28
    17c8:	df 91       	pop	r29
    17ca:	cf 91       	pop	r28
    17cc:	1f 91       	pop	r17
    17ce:	0f 91       	pop	r16
    17d0:	ff 90       	pop	r15
    17d2:	ef 90       	pop	r14
    17d4:	df 90       	pop	r13
    17d6:	cf 90       	pop	r12
    17d8:	bf 90       	pop	r11
    17da:	af 90       	pop	r10
    17dc:	0c 94 8e 0b 	jmp	0x171c	; 0x171c <decode_ksuba_4093>
    17e0:	01 15       	cp	r16, r1
    17e2:	81 e0       	ldi	r24, 0x01	; 1
    17e4:	18 07       	cpc	r17, r24
    17e6:	61 f0       	breq	.+24     	; 0x1800 <decrypt_ksuba_4093+0x84>
    17e8:	00 34       	cpi	r16, 0x40	; 64
    17ea:	11 40       	sbci	r17, 0x01	; 1
    17ec:	11 f7       	brne	.-60     	; 0x17b2 <decrypt_ksuba_4093+0x36>
    17ee:	21 e0       	ldi	r18, 0x01	; 1
    17f0:	30 e0       	ldi	r19, 0x00	; 0
    17f2:	4d 2f       	mov	r20, r29
    17f4:	5c 2f       	mov	r21, r28
    17f6:	8d 2f       	mov	r24, r29
    17f8:	9c 2f       	mov	r25, r28
    17fa:	0e 94 8c 0a 	call	0x1518	; 0x1518 <karatsuba_4093_320>
    17fe:	d9 cf       	rjmp	.-78     	; 0x17b2 <decrypt_ksuba_4093+0x36>
    1800:	21 e0       	ldi	r18, 0x01	; 1
    1802:	30 e0       	ldi	r19, 0x00	; 0
    1804:	4d 2f       	mov	r20, r29
    1806:	5c 2f       	mov	r21, r28
    1808:	8d 2f       	mov	r24, r29
    180a:	9c 2f       	mov	r25, r28
    180c:	0e 94 3e 0a 	call	0x147c	; 0x147c <karatsuba_4093_256>
    1810:	d0 cf       	rjmp	.-96     	; 0x17b2 <decrypt_ksuba_4093+0x36>
    1812:	2d 91       	ld	r18, X+
    1814:	3d 91       	ld	r19, X+
    1816:	80 81       	ld	r24, Z
    1818:	91 81       	ldd	r25, Z+1	; 0x01
    181a:	28 0f       	add	r18, r24
    181c:	39 1f       	adc	r19, r25
    181e:	2e 3f       	cpi	r18, 0xFE	; 254
    1820:	8f e0       	ldi	r24, 0x0F	; 15
    1822:	38 07       	cpc	r19, r24
    1824:	10 f0       	brcs	.+4      	; 0x182a <decrypt_ksuba_4093+0xae>
    1826:	2d 5f       	subi	r18, 0xFD	; 253
    1828:	3f 40       	sbci	r19, 0x0F	; 15
    182a:	20 83       	st	Z, r18
    182c:	31 83       	std	Z+1, r19	; 0x01
    182e:	4f 5f       	subi	r20, 0xFF	; 255
    1830:	5f 4f       	sbci	r21, 0xFF	; 255
    1832:	32 96       	adiw	r30, 0x02	; 2
    1834:	c3 cf       	rjmp	.-122    	; 0x17bc <decrypt_ksuba_4093+0x40>

00001836 <main>:
    1836:	cd b7       	in	r28, 0x3d	; 61
    1838:	de b7       	in	r29, 0x3e	; 62
    183a:	c0 52       	subi	r28, 0x20	; 32
    183c:	d4 40       	sbci	r29, 0x04	; 4
    183e:	cd bf       	out	0x3d, r28	; 61
    1840:	de bf       	out	0x3e, r29	; 62
    1842:	88 e0       	ldi	r24, 0x08	; 8
    1844:	80 93 45 06 	sts	0x0645, r24	; 0x800645 <__TEXT_REGION_LENGTH__+0x700645>
    1848:	80 93 41 06 	sts	0x0641, r24	; 0x800641 <__TEXT_REGION_LENGTH__+0x700641>
    184c:	10 92 a7 08 	sts	0x08A7, r1	; 0x8008a7 <__TEXT_REGION_LENGTH__+0x7008a7>
    1850:	9c e0       	ldi	r25, 0x0C	; 12
    1852:	90 93 a6 08 	sts	0x08A6, r25	; 0x8008a6 <__TEXT_REGION_LENGTH__+0x7008a6>
    1856:	10 92 a3 08 	sts	0x08A3, r1	; 0x8008a3 <__TEXT_REGION_LENGTH__+0x7008a3>
    185a:	93 e0       	ldi	r25, 0x03	; 3
    185c:	90 93 a5 08 	sts	0x08A5, r25	; 0x8008a5 <__TEXT_REGION_LENGTH__+0x7008a5>
    1860:	80 93 a4 08 	sts	0x08A4, r24	; 0x8008a4 <__TEXT_REGION_LENGTH__+0x7008a4>
    1864:	e1 2c       	mov	r14, r1
    1866:	ff 24       	eor	r15, r15
    1868:	f3 94       	inc	r15
    186a:	00 eb       	ldi	r16, 0xB0	; 176
    186c:	15 e0       	ldi	r17, 0x05	; 5
    186e:	20 eb       	ldi	r18, 0xB0	; 176
    1870:	33 e0       	ldi	r19, 0x03	; 3
    1872:	ae 01       	movw	r20, r28
    1874:	4f 5f       	subi	r20, 0xFF	; 255
    1876:	5f 4f       	sbci	r21, 0xFF	; 255
    1878:	be 01       	movw	r22, r28
    187a:	6f 5f       	subi	r22, 0xFF	; 255
    187c:	7d 4f       	sbci	r23, 0xFD	; 253
    187e:	ce 01       	movw	r24, r28
    1880:	8f 5f       	subi	r24, 0xFF	; 255
    1882:	9b 4f       	sbci	r25, 0xFB	; 251
    1884:	0e 94 11 0b 	call	0x1622	; 0x1622 <encrypt_ksuba_4093>
    1888:	00 e0       	ldi	r16, 0x00	; 0
    188a:	11 e0       	ldi	r17, 0x01	; 1
    188c:	20 eb       	ldi	r18, 0xB0	; 176
    188e:	37 e0       	ldi	r19, 0x07	; 7
    1890:	ae 01       	movw	r20, r28
    1892:	4f 5f       	subi	r20, 0xFF	; 255
    1894:	5f 4f       	sbci	r21, 0xFF	; 255
    1896:	be 01       	movw	r22, r28
    1898:	6f 5f       	subi	r22, 0xFF	; 255
    189a:	7d 4f       	sbci	r23, 0xFD	; 253
    189c:	ce 01       	movw	r24, r28
    189e:	8f 5f       	subi	r24, 0xFF	; 255
    18a0:	9b 4f       	sbci	r25, 0xFB	; 251
    18a2:	0e 94 be 0b 	call	0x177c	; 0x177c <decrypt_ksuba_4093>
    18a6:	fe 01       	movw	r30, r28
    18a8:	ef 5f       	subi	r30, 0xFF	; 255
    18aa:	fb 4f       	sbci	r31, 0xFB	; 251
    18ac:	ce 01       	movw	r24, r28
    18ae:	8f 5f       	subi	r24, 0xFF	; 255
    18b0:	9a 4f       	sbci	r25, 0xFA	; 250
    18b2:	21 91       	ld	r18, Z+
    18b4:	30 91 a1 08 	lds	r19, 0x08A1	; 0x8008a1 <__TEXT_REGION_LENGTH__+0x7008a1>
    18b8:	35 ff       	sbrs	r19, 5
    18ba:	fc cf       	rjmp	.-8      	; 0x18b4 <main+0x7e>
    18bc:	20 93 a0 08 	sts	0x08A0, r18	; 0x8008a0 <__TEXT_REGION_LENGTH__+0x7008a0>
    18c0:	e8 17       	cp	r30, r24
    18c2:	f9 07       	cpc	r31, r25
    18c4:	b1 f7       	brne	.-20     	; 0x18b2 <main+0x7c>
    18c6:	90 e0       	ldi	r25, 0x00	; 0
    18c8:	80 e0       	ldi	r24, 0x00	; 0
    18ca:	c0 5e       	subi	r28, 0xE0	; 224
    18cc:	db 4f       	sbci	r29, 0xFB	; 251
    18ce:	cd bf       	out	0x3d, r28	; 61
    18d0:	de bf       	out	0x3e, r29	; 62
    18d2:	08 95       	ret

000018d4 <_exit>:
    18d4:	f8 94       	cli

000018d6 <__stop_program>:
    18d6:	ff cf       	rjmp	.-2      	; 0x18d6 <__stop_program>
