
profiling.elf:     file format elf32-avr

Sections:
Idx Name          Size      VMA       LMA       File off  Algn
  0 .text         0000a80c  00000000  00000000  00000094  2**1
                  CONTENTS, ALLOC, LOAD, READONLY, CODE
  1 .data         00000430  00802000  0000a80c  0000a8a0  2**0
                  CONTENTS, ALLOC, LOAD, DATA
  2 .bss          00000038  00802430  00802430  0000acd0  2**0
                  ALLOC
  3 .stab         0000e994  00000000  00000000  0000acd0  2**2
                  CONTENTS, READONLY, DEBUGGING
  4 .stabstr      0000e919  00000000  00000000  00019664  2**0
                  CONTENTS, READONLY, DEBUGGING
  5 .comment      00000011  00000000  00000000  00027f7d  2**0
                  CONTENTS, READONLY
  6 .note.gnu.avr.deviceinfo 00000040  00000000  00000000  00027f90  2**2
                  CONTENTS, READONLY, OCTETS
  7 .debug_info   0000354c  00000000  00000000  00027fd0  2**0
                  CONTENTS, READONLY, DEBUGGING, OCTETS
  8 .debug_abbrev 0000327a  00000000  00000000  0002b51c  2**0
                  CONTENTS, READONLY, DEBUGGING, OCTETS
  9 .debug_line   0000001d  00000000  00000000  0002e796  2**0
                  CONTENTS, READONLY, DEBUGGING, OCTETS
 10 .debug_str    000023b9  00000000  00000000  0002e7b3  2**0
                  CONTENTS, READONLY, DEBUGGING, OCTETS

Disassembly of section .text:

00000000 <__vectors>:
       0:	0c 94 5a 2c 	jmp	0x58b4	; 0x58b4 <__ctors_end>
       4:	0c 94 80 2c 	jmp	0x5900	; 0x5900 <__bad_interrupt>
       8:	0c 94 80 2c 	jmp	0x5900	; 0x5900 <__bad_interrupt>
       c:	0c 94 80 2c 	jmp	0x5900	; 0x5900 <__bad_interrupt>
      10:	0c 94 80 2c 	jmp	0x5900	; 0x5900 <__bad_interrupt>
      14:	0c 94 80 2c 	jmp	0x5900	; 0x5900 <__bad_interrupt>
      18:	0c 94 80 2c 	jmp	0x5900	; 0x5900 <__bad_interrupt>
      1c:	0c 94 80 2c 	jmp	0x5900	; 0x5900 <__bad_interrupt>
      20:	0c 94 80 2c 	jmp	0x5900	; 0x5900 <__bad_interrupt>
      24:	0c 94 80 2c 	jmp	0x5900	; 0x5900 <__bad_interrupt>
      28:	0c 94 80 2c 	jmp	0x5900	; 0x5900 <__bad_interrupt>
      2c:	0c 94 80 2c 	jmp	0x5900	; 0x5900 <__bad_interrupt>
      30:	0c 94 80 2c 	jmp	0x5900	; 0x5900 <__bad_interrupt>
      34:	0c 94 80 2c 	jmp	0x5900	; 0x5900 <__bad_interrupt>
      38:	0c 94 80 2c 	jmp	0x5900	; 0x5900 <__bad_interrupt>
      3c:	0c 94 80 2c 	jmp	0x5900	; 0x5900 <__bad_interrupt>
      40:	0c 94 80 2c 	jmp	0x5900	; 0x5900 <__bad_interrupt>
      44:	0c 94 80 2c 	jmp	0x5900	; 0x5900 <__bad_interrupt>
      48:	0c 94 80 2c 	jmp	0x5900	; 0x5900 <__bad_interrupt>
      4c:	0c 94 80 2c 	jmp	0x5900	; 0x5900 <__bad_interrupt>
      50:	0c 94 36 50 	jmp	0xa06c	; 0xa06c <__vector_20>
      54:	0c 94 80 2c 	jmp	0x5900	; 0x5900 <__bad_interrupt>
      58:	0c 94 80 2c 	jmp	0x5900	; 0x5900 <__bad_interrupt>
      5c:	0c 94 80 2c 	jmp	0x5900	; 0x5900 <__bad_interrupt>
      60:	0c 94 80 2c 	jmp	0x5900	; 0x5900 <__bad_interrupt>
      64:	0c 94 80 2c 	jmp	0x5900	; 0x5900 <__bad_interrupt>
      68:	0c 94 80 2c 	jmp	0x5900	; 0x5900 <__bad_interrupt>
      6c:	0c 94 80 2c 	jmp	0x5900	; 0x5900 <__bad_interrupt>
      70:	0c 94 80 2c 	jmp	0x5900	; 0x5900 <__bad_interrupt>
      74:	0c 94 80 2c 	jmp	0x5900	; 0x5900 <__bad_interrupt>
      78:	0c 94 80 2c 	jmp	0x5900	; 0x5900 <__bad_interrupt>
      7c:	0c 94 80 2c 	jmp	0x5900	; 0x5900 <__bad_interrupt>
      80:	0c 94 80 2c 	jmp	0x5900	; 0x5900 <__bad_interrupt>
      84:	0c 94 80 2c 	jmp	0x5900	; 0x5900 <__bad_interrupt>
      88:	0c 94 80 2c 	jmp	0x5900	; 0x5900 <__bad_interrupt>
      8c:	0c 94 80 2c 	jmp	0x5900	; 0x5900 <__bad_interrupt>
      90:	0c 94 80 2c 	jmp	0x5900	; 0x5900 <__bad_interrupt>
      94:	0c 94 80 2c 	jmp	0x5900	; 0x5900 <__bad_interrupt>
      98:	0c 94 80 2c 	jmp	0x5900	; 0x5900 <__bad_interrupt>
      9c:	0c 94 80 2c 	jmp	0x5900	; 0x5900 <__bad_interrupt>
      a0:	0c 94 80 2c 	jmp	0x5900	; 0x5900 <__bad_interrupt>
      a4:	0c 94 80 2c 	jmp	0x5900	; 0x5900 <__bad_interrupt>
      a8:	0c 94 80 2c 	jmp	0x5900	; 0x5900 <__bad_interrupt>
      ac:	0c 94 80 2c 	jmp	0x5900	; 0x5900 <__bad_interrupt>
      b0:	0c 94 80 2c 	jmp	0x5900	; 0x5900 <__bad_interrupt>
      b4:	0c 94 80 2c 	jmp	0x5900	; 0x5900 <__bad_interrupt>
      b8:	0c 94 80 2c 	jmp	0x5900	; 0x5900 <__bad_interrupt>
      bc:	0c 94 80 2c 	jmp	0x5900	; 0x5900 <__bad_interrupt>
      c0:	0c 94 80 2c 	jmp	0x5900	; 0x5900 <__bad_interrupt>
      c4:	0c 94 80 2c 	jmp	0x5900	; 0x5900 <__bad_interrupt>
      c8:	0c 94 80 2c 	jmp	0x5900	; 0x5900 <__bad_interrupt>
      cc:	0c 94 80 2c 	jmp	0x5900	; 0x5900 <__bad_interrupt>
      d0:	0c 94 80 2c 	jmp	0x5900	; 0x5900 <__bad_interrupt>
      d4:	0c 94 80 2c 	jmp	0x5900	; 0x5900 <__bad_interrupt>
      d8:	0c 94 80 2c 	jmp	0x5900	; 0x5900 <__bad_interrupt>
      dc:	0c 94 80 2c 	jmp	0x5900	; 0x5900 <__bad_interrupt>
      e0:	0c 94 80 2c 	jmp	0x5900	; 0x5900 <__bad_interrupt>
      e4:	0c 94 80 2c 	jmp	0x5900	; 0x5900 <__bad_interrupt>
      e8:	0c 94 80 2c 	jmp	0x5900	; 0x5900 <__bad_interrupt>
      ec:	0c 94 80 2c 	jmp	0x5900	; 0x5900 <__bad_interrupt>
      f0:	0c 94 80 2c 	jmp	0x5900	; 0x5900 <__bad_interrupt>
      f4:	0c 94 80 2c 	jmp	0x5900	; 0x5900 <__bad_interrupt>
      f8:	0c 94 80 2c 	jmp	0x5900	; 0x5900 <__bad_interrupt>
      fc:	0c 94 80 2c 	jmp	0x5900	; 0x5900 <__bad_interrupt>
     100:	0c 94 80 2c 	jmp	0x5900	; 0x5900 <__bad_interrupt>
     104:	0c 94 80 2c 	jmp	0x5900	; 0x5900 <__bad_interrupt>
     108:	0c 94 80 2c 	jmp	0x5900	; 0x5900 <__bad_interrupt>
     10c:	0c 94 80 2c 	jmp	0x5900	; 0x5900 <__bad_interrupt>
     110:	0c 94 80 2c 	jmp	0x5900	; 0x5900 <__bad_interrupt>
     114:	0c 94 80 2c 	jmp	0x5900	; 0x5900 <__bad_interrupt>
     118:	0c 94 80 2c 	jmp	0x5900	; 0x5900 <__bad_interrupt>
     11c:	0c 94 80 2c 	jmp	0x5900	; 0x5900 <__bad_interrupt>
     120:	0c 94 80 2c 	jmp	0x5900	; 0x5900 <__bad_interrupt>
     124:	0c 94 80 2c 	jmp	0x5900	; 0x5900 <__bad_interrupt>
     128:	0c 94 80 2c 	jmp	0x5900	; 0x5900 <__bad_interrupt>
     12c:	0c 94 80 2c 	jmp	0x5900	; 0x5900 <__bad_interrupt>
     130:	0c 94 80 2c 	jmp	0x5900	; 0x5900 <__bad_interrupt>
     134:	0c 94 80 2c 	jmp	0x5900	; 0x5900 <__bad_interrupt>
     138:	0c 94 80 2c 	jmp	0x5900	; 0x5900 <__bad_interrupt>
     13c:	0c 94 80 2c 	jmp	0x5900	; 0x5900 <__bad_interrupt>
     140:	0c 94 80 2c 	jmp	0x5900	; 0x5900 <__bad_interrupt>
     144:	0c 94 80 2c 	jmp	0x5900	; 0x5900 <__bad_interrupt>
     148:	0c 94 80 2c 	jmp	0x5900	; 0x5900 <__bad_interrupt>
     14c:	0c 94 80 2c 	jmp	0x5900	; 0x5900 <__bad_interrupt>
     150:	0c 94 80 2c 	jmp	0x5900	; 0x5900 <__bad_interrupt>
     154:	0c 94 80 2c 	jmp	0x5900	; 0x5900 <__bad_interrupt>
     158:	0c 94 80 2c 	jmp	0x5900	; 0x5900 <__bad_interrupt>
     15c:	0c 94 80 2c 	jmp	0x5900	; 0x5900 <__bad_interrupt>
     160:	0c 94 80 2c 	jmp	0x5900	; 0x5900 <__bad_interrupt>
     164:	0c 94 80 2c 	jmp	0x5900	; 0x5900 <__bad_interrupt>
     168:	0c 94 80 2c 	jmp	0x5900	; 0x5900 <__bad_interrupt>
     16c:	0c 94 80 2c 	jmp	0x5900	; 0x5900 <__bad_interrupt>
     170:	0c 94 80 2c 	jmp	0x5900	; 0x5900 <__bad_interrupt>
     174:	0c 94 80 2c 	jmp	0x5900	; 0x5900 <__bad_interrupt>
     178:	0c 94 80 2c 	jmp	0x5900	; 0x5900 <__bad_interrupt>
     17c:	0c 94 80 2c 	jmp	0x5900	; 0x5900 <__bad_interrupt>
     180:	0c 94 80 2c 	jmp	0x5900	; 0x5900 <__bad_interrupt>
     184:	0c 94 80 2c 	jmp	0x5900	; 0x5900 <__bad_interrupt>
     188:	0c 94 80 2c 	jmp	0x5900	; 0x5900 <__bad_interrupt>
     18c:	0c 94 80 2c 	jmp	0x5900	; 0x5900 <__bad_interrupt>
     190:	0c 94 80 2c 	jmp	0x5900	; 0x5900 <__bad_interrupt>
     194:	0c 94 80 2c 	jmp	0x5900	; 0x5900 <__bad_interrupt>
     198:	0c 94 80 2c 	jmp	0x5900	; 0x5900 <__bad_interrupt>
     19c:	0c 94 80 2c 	jmp	0x5900	; 0x5900 <__bad_interrupt>
     1a0:	0c 94 80 2c 	jmp	0x5900	; 0x5900 <__bad_interrupt>
     1a4:	0c 94 80 2c 	jmp	0x5900	; 0x5900 <__bad_interrupt>
     1a8:	0c 94 80 2c 	jmp	0x5900	; 0x5900 <__bad_interrupt>
     1ac:	0c 94 80 2c 	jmp	0x5900	; 0x5900 <__bad_interrupt>
     1b0:	0c 94 80 2c 	jmp	0x5900	; 0x5900 <__bad_interrupt>
     1b4:	0c 94 80 2c 	jmp	0x5900	; 0x5900 <__bad_interrupt>
     1b8:	0c 94 80 2c 	jmp	0x5900	; 0x5900 <__bad_interrupt>
     1bc:	0c 94 80 2c 	jmp	0x5900	; 0x5900 <__bad_interrupt>
     1c0:	0c 94 80 2c 	jmp	0x5900	; 0x5900 <__bad_interrupt>
     1c4:	0c 94 80 2c 	jmp	0x5900	; 0x5900 <__bad_interrupt>
     1c8:	0c 94 80 2c 	jmp	0x5900	; 0x5900 <__bad_interrupt>
     1cc:	0c 94 80 2c 	jmp	0x5900	; 0x5900 <__bad_interrupt>
     1d0:	0c 94 80 2c 	jmp	0x5900	; 0x5900 <__bad_interrupt>
     1d4:	0c 94 80 2c 	jmp	0x5900	; 0x5900 <__bad_interrupt>
     1d8:	0c 94 80 2c 	jmp	0x5900	; 0x5900 <__bad_interrupt>
     1dc:	0c 94 80 2c 	jmp	0x5900	; 0x5900 <__bad_interrupt>
     1e0:	0c 94 80 2c 	jmp	0x5900	; 0x5900 <__bad_interrupt>
     1e4:	0c 94 80 2c 	jmp	0x5900	; 0x5900 <__bad_interrupt>
     1e8:	0c 94 80 2c 	jmp	0x5900	; 0x5900 <__bad_interrupt>
     1ec:	0c 94 80 2c 	jmp	0x5900	; 0x5900 <__bad_interrupt>
     1f0:	0c 94 80 2c 	jmp	0x5900	; 0x5900 <__bad_interrupt>

000001f4 <__trampolines_start>:
     1f4:	0c 94 53 44 	jmp	0x88a6	; 0x88a6 <uart_putchar>

000001f8 <cdf_table_4093_8000>:
     1f8:	1f ff ff ff ff ff ff ff ff ff ff ff 5c ef 2c 24     ............\.,$
     208:	88 06 c8 27 16 1a bd 18 91 86 50 6b cc 06 5f 20     ...'......Pk.._ 
     218:	43 44 c1 25 ba ab 5f 82 bc db 43 b3 5d 62 ce 65     CD.%.._...C.]b.e
     228:	d7 d9 76 9f ad 23 bc b1 14 11 f5 51 ea 9b e2 f4     ..v..#.....Q....
     238:	d6 dd b5 ed 7e 15 26 d5 f5 8a 99 47 49 19 b8 c9     ....~.&....GI...
     248:	e7 d2 a1 37 fb 51 17 81 27 53 b7 b8 e8 a7 73 d9     ...7.Q..'S....s.
     258:	fe 15 1b d0 92 85 96 d3 14 8c b4 9f ff 48 75 08     .............Hu.
     268:	ba 9f 72 08 07 e4 4d 00 ff c1 66 86 27 0c fc 82     ..r...M...f.'...
     278:	1a 54 09 be ff ec 8a c3 c1 59 43 1b fd c9 9b fd     .T.......YC.....
     288:	ff fa 7d f4 b6 e9 2c 28 a6 fc d4 c0 ff fe 94 bb     ..}...,(........
     298:	45 54 b5 ac 4b 86 9c 62 ff ff aa de 1b 1c aa 95     ET..K..b........
     2a8:	ec 72 32 9e ff ff ed dc 1c 64 36 dc 33 7f 63 16     .r2......d6.3.c.
     2b8:	ff ff fc 7c 9d c2 56 9a d9 5e 7b 2c ff ff ff 61     ...|..V..^{,...a
     2c8:	bc 33 7f ed 8e 0b 13 2a ff ff ff e6 b3 cf 05 f7     .3.....*........
     2d8:	05 b9 d7 25 ff ff ff fc 53 ea 61 0e 99 e8 f7 2b     ...%....S.a....+
     2e8:	ff ff ff ff 84 19 43 de c6 e2 f0 d7 ff ff ff ff     ......C.........
     2f8:	f1 2d 07 ec 47 45 91 3c ff ff ff ff fe 63 e3 48     .-..GE.<.....c.H
     308:	ee 62 d4 20 ff ff ff ff ff d7 62 c7 06 4a 0c 6c     .b. ......b..J.l
     318:	ff ff ff ff ff fc 5e 37 c6 72 f3 a6 ff ff ff ff     ......^7.r......
     328:	ff ff b4 8f 6a be f8 b0 ff ff ff ff ff ff fa 72     ....j..........r
     338:	69 75 98 ce ff ff ff ff ff ff ff a1 12 f5 a3 0d     iu..............
     348:	ff ff ff ff ff ff ff fa 40 16 ed 3d ff ff ff ff     ........@..=....
     358:	ff ff ff ff af 22 d9 af ff ff ff ff ff ff ff ff     ....."..........
     368:	fb f8 86 81 ff ff ff ff ff ff ff ff ff d1 63 85     ..............c.
     378:	ff ff ff ff ff ff ff ff ff fe 16 ff ff ff ff ff     ................
     388:	ff ff ff ff ff ff ed d3 ff ff ff ff ff ff ff ff     ................
     398:	ff ff ff 62 ff ff ff ff ff ff ff ff ff ff ff fa     ...b............
     3a8:	ff ff ff ff ff ff ff ff ff ff ff ff                 ............

000003b4 <cdf_table_4096_8000>:
     3b4:	1f ff ff ff ff ff ff ff ff ff ff ff 5c ef 2c 24     ............\.,$
     3c4:	88 06 c8 27 16 1a bd 18 91 86 50 6b cc 06 5f 20     ...'......Pk.._ 
     3d4:	43 44 c1 25 ba ab 5f 82 bc db 43 b3 5d 62 ce 65     CD.%.._...C.]b.e
     3e4:	d7 d9 76 9f ad 23 bc b1 14 11 f5 51 ea 9b e2 f4     ..v..#.....Q....
     3f4:	d6 dd b5 ed 7e 15 26 d5 f5 8a 99 47 49 19 b8 c9     ....~.&....GI...
     404:	e7 d2 a1 37 fb 51 17 81 27 53 b7 b8 e8 a7 73 d9     ...7.Q..'S....s.
     414:	fe 15 1b d0 92 85 96 d3 14 8c b4 9f ff 48 75 08     .............Hu.
     424:	ba 9f 72 08 07 e4 4d 00 ff c1 66 86 27 0c fc 82     ..r...M...f.'...
     434:	1a 54 09 be ff ec 8a c3 c1 59 43 1b fd c9 9b fd     .T.......YC.....
     444:	ff fa 7d f4 b6 e9 2c 28 a6 fc d4 c0 ff fe 94 bb     ..}...,(........
     454:	45 54 b5 ac 4b 86 9c 62 ff ff aa de 1b 1c aa 95     ET..K..b........
     464:	ec 72 32 9e ff ff ed dc 1c 64 36 dc 33 7f 63 16     .r2......d6.3.c.
     474:	ff ff fc 7c 9d c2 56 9a d9 5e 7b 2c ff ff ff 61     ...|..V..^{,...a
     484:	bc 33 7f ed 8e 0b 13 2a ff ff ff e6 b3 cf 05 f7     .3.....*........
     494:	05 b9 d7 25 ff ff ff fc 53 ea 61 0e 99 e8 f7 2b     ...%....S.a....+
     4a4:	ff ff ff ff 84 19 43 de c6 e2 f0 d7 ff ff ff ff     ......C.........
     4b4:	f1 2d 07 ec 47 45 91 3c ff ff ff ff fe 63 e3 48     .-..GE.<.....c.H
     4c4:	ee 62 d4 20 ff ff ff ff ff d7 62 c7 06 4a 0c 6c     .b. ......b..J.l
     4d4:	ff ff ff ff ff fc 5e 37 c6 72 f3 a6 ff ff ff ff     ......^7.r......
     4e4:	ff ff b4 8f 6a be f8 b0 ff ff ff ff ff ff fa 72     ....j..........r
     4f4:	69 75 98 ce ff ff ff ff ff ff ff a1 12 f5 a3 0d     iu..............
     504:	ff ff ff ff ff ff ff fa 40 16 ed 3d ff ff ff ff     ........@..=....
     514:	ff ff ff ff af 22 d9 af ff ff ff ff ff ff ff ff     ....."..........
     524:	fb f8 86 81 ff ff ff ff ff ff ff ff ff d1 63 85     ..............c.
     534:	ff ff ff ff ff ff ff ff ff fe 16 ff ff ff ff ff     ................
     544:	ff ff ff ff ff ff ed d3 ff ff ff ff ff ff ff ff     ................
     554:	ff ff ff 62 ff ff ff ff ff ff ff ff ff ff ff fa     ...b............
     564:	ff ff ff ff ff ff ff ff ff ff ff ff                 ............

00000570 <cdf_table_7681_1132>:
     570:	16 9d 66 38 15 b5 d2 c5 33 8f d4 93 42 bf c7 58     ..f8....3...B..X
     580:	91 14 84 19 33 67 f3 13 6b c0 fe 8d 1f 87 5b dd     ....3g..k.....[.
     590:	57 62 d6 87 90 07 2e 40 5b b8 44 2b 97 f1 a8 1a     Wb.....@[.D+....
     5a0:	ae 94 f7 b0 98 01 6a c1 ae f5 32 2c c7 16 08 a4     ......j...2,....
     5b0:	6b 11 39 e8 63 00 69 5d d9 cc 4b 2c 7d 82 ae 5a     k.9.c.i]..K,}..Z
     5c0:	da 7b 20 67 e7 67 36 e1 4a 33 c6 7a c1 1b 2f 5e     .{ g.g6.J3.z../^
     5d0:	f0 d2 6a 55 71 80 15 06 7d 99 67 b6 f7 07 cc 5d     ..jUq...}.g....]
     5e0:	c0 17 fc 28 ac 8e ff 15 fa ed 55 d3 1b 44 4d 34     ...(......U..DM4
     5f0:	a0 bb 6c d8 fd 41 74 e9 ea ac 00 23 33 c0 83 13     ..l..At....#3...
     600:	fe 94 a6 1b 57 46 1c 3b e1 76 d7 ae ff 4c 69 e1     ....WF.;.v...Li.
     610:	2e b9 b5 3d db 01 ec 4d ff ab 35 4f d9 33 35 ff     ...=...M..5O.35.
     620:	d7 54 08 a8 ff d9 c4 9d 20 62 eb ba 59 d4 e1 2b     .T...... b..Y..+
     630:	ff ef 8a d2 36 65 a3 7f 9a d3 68 02 ff f9 3c ed     ....6e....h...<.
     640:	f2 36 5a 71 c3 29 69 87 ff fd 59 49 af 8e fd e2     .6Zq.)i...YI....
     650:	5f f2 7e 22 ff ff 02 1d 57 70 a7 ad 84 cb 46 ba     _.~"....Wp....F.
     660:	ff ff a5 68 24 bf 3a db 92 cf b2 6f ff ff e1 2b     ...h$.:....o...+
     670:	2f 90 4c 12 83 7b 15 ef ff ff f5 fe 6d 8a a4 71     /.L..{......m..q
     680:	76 59 f8 b3 ff ff fc e7 4e 4e 01 da 9f cc dc 01     vY......NN......
     690:	ff ff ff 16 20 75 dd 64 ff b9 d6 7f ff ff ff be     .... u.d........
     6a0:	38 93 d2 4d 60 cf 07 34 ff ff ff ee 5d 53 c6 eb     8..M`..4....]S..
     6b0:	66 0f 62 77 ff ff ff fb 7e 54 64 35 7c 32 44 ab     f.bw....~Td5|2D.
     6c0:	ff ff ff fe e7 07 85 d4 68 7c 66 2f ff ff ff ff     ........h|f/....
     6d0:	be c9 7a 2b 8f f2 de 2b ff ff ff ff f1 93 8e 36     ..z+...+.......6
     6e0:	e2 00 b4 5d ff ff ff ff fc f5 ca a4 b1 cf 26 7e     ...]..........&~
     6f0:	ff ff ff ff ff 63 b8 e6 23 f9 76 6f ff ff ff ff     .....c..#.vo....
     700:	ff e2 19 26 b5 a6 58 83 ff ff ff ff ff fa 8c 8b     ...&..X.........
     710:	fa 0b 21 e4 ff ff ff ff ff ff 0d a4 a2 a3 e0 13     ..!.............
     720:	ff ff ff ff ff ff d7 e6 7d 64 b8 89 ff ff ff ff     ........}d......
     730:	ff ff f9 ad ef 92 36 8c ff ff ff ff ff ff ff 0d     ......6.........
     740:	0b 5b 09 eb ff ff ff ff ff ff ff dd 3f dd c6 cf     .[..........?...
     750:	ff ff ff ff ff ff ff fb 43 ee c5 03 ff ff ff ff     ........C.......
     760:	ff ff ff ff 62 b2 e2 e4 ff ff ff ff ff ff ff ff     ....b...........
     770:	ec 8e 17 2c ff ff ff ff ff ff ff ff fd b5 e2 ea     ...,............
     780:	ff ff ff ff ff ff ff ff ff be 44 f8 ff ff ff ff     ..........D.....
     790:	ff ff ff ff ff f8 fa a2 ff ff ff ff ff ff ff ff     ................
     7a0:	ff ff 49 25 ff ff ff ff ff ff ff ff ff ff ee 48     ..I%...........H
     7b0:	ff ff ff ff ff ff ff ff ff ff fe 5d ff ff ff ff     ...........]....
     7c0:	ff ff ff ff ff ff ff da ff ff ff ff ff ff ff ff     ................
     7d0:	ff ff ff fc ff ff ff ff ff ff ff ff ff ff ff ff     ................

000007e0 <omegamultiples_7681_256>:
     7e0:	00 00 ca 10 93 03 5d 14 26 07 f0 17 b9 0a 83 1b     ......].&.......
     7f0:	4c 0e 15 01 df 11 a8 04 72 15 3b 08 05 19 ce 0b     L.......r.;.....

00000800 <omegainvbitrev_7681_256>:
     800:	01 00 37 0d 85 07 44 19 ba 1b c0 06 b0 1a 0f 02     ..7...D.........
     810:	8e 09 4d 09 61 00 ad 15 58 0a 5a 08 21 13 ab 18     ..M.a...X.Z.!...
     820:	5e 1b 25 15 fb 18 ed 11 02 07 58 04 49 12 a2 14     ^.%.......X.I...
     830:	6d 01 cb 16 46 0e c1 0a e1 08 6e 03 ac 13 4a 01     m...F.....n...J.
     840:	35 14 7d 0b 79 0d 10 02 d6 0a 35 17 77 06 b9 1b     5.}.y.....5.w...
     850:	f7 09 ae 10 d4 09 38 04 41 0b 03 1b f3 00 ca 00     ......8.A.......
     860:	08 0c 6c 10 25 1b ff 11 b2 06 4c 1b cd 10 a5 09     ..l.%.....L.....
     870:	9c 18 ae 16 e2 1a b7 02 9b 18 77 09 5d 13 74 07     ..........w.].t.
     880:	b8 19 35 19 26 02 38 07 ec 07 37 06 a0 07 05 16     ..5.&.8...7.....
     890:	e0 13 60 1c 65 04 c4 0e 63 18 88 13 53 12 c3 02     ..`.e...c...S...
     8a0:	1b 0c 79 1b ff 13 fb 11 6f 17 87 05 cc 0d c1 12     ..y.....o.......
     8b0:	20 1a 5f 13 14 04 81 18 1c 0b 20 12 c4 16 16 1a      ._....... .....
     8c0:	c6 05 00 1d 6c 0c bc 11 87 18 34 0f fe 12 35 0c     ....l.....4...5.
     8d0:	fe 13 c4 04 f4 13 a3 16 13 10 01 0c d8 08 83 04     ................
     8e0:	70 03 8d 11 54 10 db 00 33 06 3b 1d f2 15 54 0b     p...T...3.;...T.
     8f0:	08 07 a0 17 65 03 35 16 51 0b 6c 1c 3f 01 fd 0e     ....e.5.Q.l.?...
     900:	5b 04 a2 02 30 0d 82 1b 18 0b 46 19 b1 16 09 0f     [...0.....F.....
     910:	17 02 06 13 6d 02 5a 0f c8 0b c8 0a f5 19 35 15     ....m.Z.......5.
     920:	71 00 16 17 99 09 a5 04 b2 0c a7 0c 4c 0f 98 16     q...........L...
     930:	8b 1d da 00 d0 0c 0c 13 b2 1c 9b 0d 49 01 1f 1b     ............I...
     940:	e9 1b c5 1b 0f 14 64 13 80 14 79 0c 5d 07 bd 06     ......d...y.]...
     950:	5b 09 6f 19 ef 06 4c 17 79 06 26 18 3e 08 b1 09     [.o...L.y.&.>...
     960:	19 03 02 08 37 16 09 17 4e 18 0e 0c 6f 0a 41 0c     ....7...N...o.A.
     970:	e2 0f 90 18 6f 00 a9 1a 87 0b ee 15 40 11 28 1d     ....o.......@.(.
     980:	ad 16 2f 16 33 19 dc 07 be 0b a7 1c c5 0a 95 08     ../.3...........
     990:	be 11 02 0e 44 09 88 15 a7 07 83 18 d9 1c eb 12     ....D...........
     9a0:	d8 19 07 1c be 02 9d 05 0f 19 30 0c 84 15 e3 1b     ..........0.....
     9b0:	96 19 f6 19 85 10 4d 12 58 19 bf 10 5e 00 09 0c     ......M.X...^...
     9c0:	8c 10 cb 14 97 12 41 01 6e 0e 48 1d 89 17 12 13     ......A.n.H.....
     9d0:	64 1c fb 02 d7 0e a8 06 6c 0a 9d 02 80 13 ea 13     d.......l.......
     9e0:	51 16 93 06 7e 17 ba 17 3b 0b bb 07 d7 0f 38 1d     Q...~...;.....8.
     9f0:	d3 08 73 1c 69 04 9e 07 27 10 44 06 37 09 c3 1d     ..s.i...'.D.7...

00000a00 <psibitrev_7681_256>:
     a00:	01 00 ca 10 bd 04 7c 16 f2 1b 51 03 41 17 47 02     ......|...Q.A.G.
     a10:	56 05 e0 0a a7 15 a9 13 54 08 a0 1d b4 14 73 14     V.......T.....s.
     a20:	b7 1c 55 0a 93 1a 20 15 40 13 bb 0f 36 07 94 1c     ..U... .@...6...
     a30:	5f 09 b8 0b a9 19 ff 16 14 0c 06 05 dc 08 a3 02     _...............
     a40:	8d 16 a4 0a 8a 14 66 05 4a 1b 1f 03 53 07 65 05     ......f.J...S.e.
     a50:	5c 14 34 0d b5 02 4f 17 02 0c dc 02 95 0d f9 11     \.4...O.........
     a60:	37 1d 0e 1d fe 02 c0 12 c9 19 2d 14 53 0d 0a 14     7.........-.S...
     a70:	48 02 8a 17 cc 06 2b 13 f1 1b 88 10 84 12 cc 09     H.....+.........
     a80:	04 0f c2 1c 95 01 b0 12 cc 07 9c 1a 61 06 f9 16     ............a...
     a90:	ad 12 0f 08 c6 00 ce 17 26 1d ad 0d 74 0c 91 1a     ........&...t...
     aa0:	7e 19 29 15 00 12 ee 0d 5e 07 0d 0a 3d 19 03 0a     ~.).....^...=...
     ab0:	cc 11 03 0b cd 0e 7a 05 45 0c 95 11 01 01 3b 18     ......z.E.....;.
     ac0:	eb 03 3d 07 e1 0b e5 12 80 05 ed 19 a2 0a e1 03     ..=.............
     ad0:	40 0b 35 10 7a 18 92 06 06 0c 02 0a 88 02 e6 11     @.5.z...........
     ae0:	3e 1b ae 0b 79 0a 9e 05 3d 0f 9c 19 a1 01 21 0a     >...y...=.....!.
     af0:	fc 07 61 16 ca 17 15 16 c9 16 db 1b cc 04 49 04     ..a...........I.
     b00:	3e 00 ca 14 bd 17 da 0d 63 16 98 19 8e 01 2e 15     >.......c.......
     b10:	c9 00 2a 0e 46 16 c6 12 47 06 83 06 6e 17 b0 07     ..*.F...G...n...
     b20:	17 0a 81 0a 64 1b 95 13 59 17 2a 0f 06 1b 9d 01     ....d...Y.*.....
     b30:	ef 0a 78 06 b9 00 93 0f c0 1c 6a 0b 36 09 75 0d     ..x.......j.6.u.
     b40:	f8 11 a3 1d 42 0d a9 04 b4 0b 7c 0d 0b 04 6b 04     ....B.....|...k.
     b50:	1e 02 7d 08 d1 11 f2 04 64 18 43 1b fa 01 29 04     ..}.....d.C...).
     b60:	16 0b 28 01 7e 05 5a 16 79 08 bd 14 ff 0f 43 0c     ..(.~.Z.y.....C.
     b70:	6c 15 3c 13 5a 01 43 12 25 16 ce 04 d2 07 54 07     l.<.Z.C.%.....T.
     b80:	d9 00 c1 0c 13 08 7a 12 58 03 92 1d 71 05 1f 0e     ......z.X...q...
     b90:	c0 11 92 13 f3 11 b3 05 f8 06 ca 07 ff 15 e8 1a     ................
     ba0:	50 14 c3 15 db 05 88 17 b5 06 12 17 92 04 a6 14     P...............
     bb0:	44 17 a4 16 88 11 81 09 9d 0a f2 09 3c 02 18 02     D...........<...
     bc0:	e2 02 b8 1c 66 10 4f 01 f5 0a 31 11 27 1d 76 00     ....f.O...1.'.v.
     bd0:	69 07 b5 0e 5a 11 4f 11 5c 19 68 14 eb 06 90 1d     i...Z.O.\.h.....
     be0:	cc 08 0c 04 39 13 39 12 a7 0e 94 1b fb 0a ea 1b     ....9.9.........
     bf0:	f8 0e 50 07 bb 04 e9 12 7f 02 d1 10 5f 1b a6 19     ..P........._...

00000c00 <cdf_table_12289_1218>:
     c00:	15 04 9f bc be 00 d7 39 96 e8 e1 4f 3e 2c 61 ba     .......9...O>,a.
     c10:	49 f1 fb a5 99 96 47 71 64 cb 9f dc 91 e1 55 5b     I.....Gqd.....U[
     c20:	b3 1f 27 5b 87 89 7f 2e e2 8c f0 d2 d9 da 78 c2     ..'[..........x.
     c30:	a5 7e 0a 3c 86 78 e5 06 42 15 09 8b be 3f e0 b7     .~.<.x..B....?..
     c40:	3d 86 69 90 3f 4d 0f 65 d1 dc b5 99 bd 0a 9d b1     =.i.?M.e........
     c50:	7c e4 c5 8b e0 c1 44 76 06 7d 3e 30 5f f3 1d 45     |.....Dv.}>0_..E
     c60:	eb 98 45 63 8d f7 28 c8 77 3b 55 5d f3 28 52 97     ..Ec..(.w;U].(R.
     c70:	cc 82 04 f9 c2 06 a5 0f f8 37 0b 75 22 65 b7 a4     .........7.u"e..
     c80:	e2 1b 8b 1c fb 74 fa 0a ed 64 1c d6 b3 45 7b fa     .....t...d...E{.
     c90:	fd 72 e9 5d cb 90 b9 84 3b 03 3a 7e fe 9f 3c dd     .r.]....;.:~..<.
     ca0:	f1 89 85 7b 76 e9 e9 c2 ff 48 c7 ae ea 6e 1e 50     ...{v....H...n.P
     cb0:	98 c0 78 45 ff a4 85 ad 74 97 e5 49 73 78 b9 c1     ..xE....t..Isx..
     cc0:	ff d4 1b 54 f3 d6 e6 75 8e 6c 07 c3 ff eb c3 aa     ...T...u.l......
     cd0:	a2 56 15 ea 0c ed fe 24 ff f7 09 d2 78 f1 88 6d     .V.....$....x..m
     ce0:	79 2f 60 16 ff fc 30 30 18 2d 40 bc a5 30 0b 2d     y/`...00.-@..0.-
     cf0:	ff fe 71 6e 2f 98 61 03 2e a8 55 c1 ff ff 63 b1     ..qn/.a...U...c.
     d00:	81 e1 e7 fc 7b 6e 6c d0 ff ff c5 27 04 27 cc 59     ....{nl....'.'.Y
     d10:	69 f9 39 82 ff ff ea bb a4 10 84 c4 1f de 2c a5     i.9...........,.
     d20:	ff ff f8 9f 8d 25 a1 97 b5 50 41 11 ff ff fd 8b     .....%...PA.....
     d30:	5c 34 ae ee 1f 6d 11 88 ff ff ff 37 2f 0c ff 07     \4...m.....7/...
     d40:	9e 5b 35 c7 ff ff ff c2 72 00 0f a8 5e fd 1b 10     .[5.....r...^...
     d50:	ff ff ff ed e5 8f 2b 98 c3 0f 3b 2c ff ff ff fa     ......+...;,....
     d60:	e4 54 26 62 59 a1 d5 7e ff ff ff fe 9e 05 2e 68     .T&bY..~.......h
     d70:	c3 a7 a0 f3 ff ff ff ff a4 14 56 a5 89 b0 ed 6e     ..........V....n
     d80:	ff ff ff ff e9 1a 5d 12 66 93 ff 8b ff ff ff ff     ......].f.......
     d90:	fa 87 74 bc 78 9c 42 8b ff ff ff ff fe bf 07 22     ..t.x.B........"
     da0:	19 e6 52 02 ff ff ff ff ff b9 72 87 72 79 73 c0     ..R.......r.rys.
     db0:	ff ff ff ff ff f1 20 57 54 6b d4 57 ff ff ff ff     ...... WTk.W....
     dc0:	ff fc fe 25 f5 06 80 fe ff ff ff ff ff ff 6a b9     ...%..........j.
     dd0:	a8 aa c8 5e ff ff ff ff ff ff e4 3e 08 f1 e9 30     ...^.......>...0
     de0:	ff ff ff ff ff ff fb 0c db c2 c9 b3 ff ff ff ff     ................
     df0:	ff ff ff 27 51 97 37 2e ff ff ff ff ff ff ff dc     ...'Q.7.........
     e00:	78 30 67 75 ff ff ff ff ff ff ff fa 69 cd d8 fc     x0gu........i...
     e10:	ff ff ff ff ff ff ff ff 28 5e 08 21 ff ff ff ff     ........(^.!....
     e20:	ff ff ff ff e0 d3 80 1d ff ff ff ff ff ff ff ff     ................
     e30:	fb ad bf 7d ff ff ff ff ff ff ff ff ff 6c f7 30     ...}.........l.0
     e40:	ff ff ff ff ff ff ff ff ff ed 43 22 ff ff ff ff     ..........C"....
     e50:	ff ff ff ff ff fd b5 e3 ff ff ff ff ff ff ff ff     ................
     e60:	ff ff bb 57 ff ff ff ff ff ff ff ff ff ff f8 4b     ...W...........K
     e70:	ff ff ff ff ff ff ff ff ff ff ff 2d ff ff ff ff     ...........-....
     e80:	ff ff ff ff ff ff ff eb ff ff ff ff ff ff ff ff     ................
     e90:	ff ff ff ff                                         ....

00000e94 <omegamultiples_12289_512>:
     e94:	00 00 3a 2a 73 24 ac 1e e5 18 1e 13 57 0d 90 07     ..:*s$......W...
     ea4:	c9 01 03 2c 3c 26 75 20 ae 1a e7 14 20 0f 59 09     ...,<&u .... .Y.

00000eb4 <omegainvbitrev_12289_512>:
     eb4:	01 00 c7 05 36 20 1a 14 26 10 99 19 2f 2d 19 05     ....6 ..&.../-..
     ec4:	1d 19 86 23 45 2b 6e 06 dc 21 f1 09 b0 0d 2b 22     ...#E+n..!....+"
     ed4:	ba 2a 72 13 91 16 00 0d 3d 19 62 1c ef 11 a1 19     .*r.....=.b.....
     ee4:	b8 0a be 0b 9f 0b 33 02 b5 03 41 0a b2 25 d5 12     ......3...A..%..
     ef4:	d6 02 03 12 3d 07 8c 00 d0 0a 63 06 9f 10 99 04     ....=.....c.....
     f04:	c3 26 eb 0b 20 13 93 0b e8 03 e0 10 51 00 ee 23     .&.. .......Q..#
     f14:	f6 08 26 04 e1 0d 3c 1d 81 21 3f 0c bb 0a 13 1d     ..&...<..!?.....
     f24:	2e 05 23 1c 3b 24 81 0c 16 03 bb 03 92 04 f2 26     ..#.;$.........&
     f34:	fe 14 ec 24 7f 2f 02 11 a5 26 9d 1e e0 0c 94 20     ...$./...&..... 
     f44:	cb 13 6c 27 8b 2f 55 26 7a 19 c6 2c a4 0e b9 03     ..l'./U&z..,....
     f54:	dd 09 9c 2a 00 0e 51 10 7d 13 d3 14 4b 1f 89 06     ...*..Q.}...K...
     f64:	e1 2d 62 19 ae 2e a4 09 f8 2f 03 2c 21 2e 1a 0b     .-b....../.,!...
     f74:	17 17 1a 13 5c 0f ab 0a a6 15 70 2f 7e 22 cc 21     ....\.....p/~".!
     f84:	87 10 f4 09 63 01 cb 22 7b 0e df 06 3b 14 6e 0e     ....c.."{...;.n.
     f94:	29 08 e4 13 2d 23 c0 24 58 23 28 2d d9 0c 24 28     )...-#.$X#(-..$(
     fa4:	61 29 6d 2a b3 2e 87 26 7b 16 e9 1d dd 1e 15 2b     a)m*...&{......+
     fb4:	25 2e 36 22 d8 1c 70 20 f9 29 82 08 5d 2e b7 15     %.6"..p .)..]...
     fc4:	0e 2f 39 24 62 2d b8 0b 40 0c 47 14 48 0d 5f 09     ./9$b-..@.G.H._.
     fd4:	d0 0f c9 08 44 0b 81 04 8f 23 e2 1a 4e 08 a3 29     ....D....#..N..)
     fe4:	4b 22 2d 1b d0 24 42 09 99 0b 8a 0f 7e 0a af 0c     K"-..$B.....~...
     ff4:	35 2a 1f 13 dc 0a b6 1b ac 25 2c 20 01 09 b2 13     5*.......%, ....
    1004:	ed 1e 83 27 3e 11 1f 0b c7 0c 28 20 68 29 dd 22     ...'>.....( h)."
    1014:	f1 06 82 29 2e 12 92 05 71 25 56 1b b7 1c cd 21     ...)....q%V....!
    1024:	ac 1e 03 00 b4 23 a0 00 37 13 71 00 b6 20 8b 27     .....#..7.q.. .'
    1034:	89 28 9f 2a b3 01 f1 10 b4 26 44 15 00 10 14 2e     .(.*.....&D.....
    1044:	51 23 b7 04 64 1b 71 2b 25 12 94 01 a2 27 29 04     Q#..d.q+%....').
    1054:	76 09 97 17 8b 08 06 0a 56 24 7b 18 c3 21 85 09     v.......V${..!..
    1064:	6b 03 c4 0e 47 06 70 13 bc 10 21 1c 6e 1c 17 2c     k...G.p...!.n..,
    1074:	21 02 66 1c 89 21 76 0a 2f 10 97 1d 0f 2f 00 2a     !.f..!v./..../.*
    1084:	a0 05 b3 0e fa 0b e6 2f dc 13 a1 29 15 13 08 2c     ......./...)...,
    1094:	15 04 d6 24 b1 09 6d 1c bf 19 60 0b 04 1d 9f 2e     ...$..m...`.....
    10a4:	3f 21 f9 0e fc 2c 7b 2e 2b 04 ed 13 47 2e a0 26     ?!...,{.+...G..&
    10b4:	e6 04 34 2c 3b 15 4f 05 7f 28 da 20 9e 0f f1 07     ..4,;.O..(. ....
    10c4:	7e 01 c5 2e 94 0f 2d 2e 34 18 83 21 bb 1a 26 1b     ~.....-.4..!..&.
    10d4:	c0 06 71 2e f9 17 ad 1c 3b 0e 27 15 e6 16 09 18     ..q.....;.'.....
    10e4:	38 00 82 23 ab 1b 99 15 3e 28 5b 29 14 22 73 2d     8..#....>([)."s-
    10f4:	fa 03 dc 18 11 04 ba 0d c6 15 4c 28 28 09 fe 04     ..........L((...
    1104:	3e 1b eb 0f cd 1c e4 10 0a 02 88 27 be 0c 2a 1c     >..........'..*.
    1114:	1a 04 b8 11 bc 1a ed 20 7b 0a 5b 2b ea 0e 1b 18     ....... {.[+....
    1124:	cd 0e 93 00 50 15 a0 1e 74 1d a1 15 b5 12 73 11     ....P...t.....s.
    1134:	10 12 44 18 42 23 10 0e 4d 18 ef 21 f0 0f a5 01     ..D.B#..M..!....
    1144:	5d 02 03 27 09 2e 75 10 03 19 53 1d da 15 d5 0b     ]..'..u...S.....
    1154:	8d 1f cf 03 93 22 1c 0b 51 04 73 2f 31 16 6c 22     ....."..Q.s/1.l"
    1164:	78 17 75 03 91 13 5d 28 eb 03 35 22 f1 00 3a 00     x.u...](..5"..:.
    1174:	4f 08 6a 2f 17 0b 8c 20 ef 18 c9 09 af 01 d6 29     O.j/... .......)
    1184:	9b 23 34 00 ce 0a d6 2a 08 0d a7 17 f2 16 5c 2d     .#4....*......\-
    1194:	01 08 d1 1c d8 2a c0 00 75 0d 55 1d a7 1d 40 1c     .....*..u.U...@.
    11a4:	ee 2c 9a 0d 0f 2c 5c 15 37 0c 49 10 68 0b 79 14     .,...,\.7.I.h.y.
    11b4:	89 14 07 21 1f 17 51 11 6e 15 ee 0b d3 06 33 0c     ...!..Q.n.....3.
    11c4:	c7 09 84 0b 6b 19 1e 06 40 00 b9 21 56 2d 66 26     ....k...@..!V-f&
    11d4:	43 03 b1 17 f2 0d 71 1f da 2a 4e 0c 3c 2d 33 20     C.....q..*N.<-3 
    11e4:	e3 27 a9 2b 1f 1f 5b 28 48 2e 67 2c 22 04 ef 0f     .'.+..[(H.g,"...
    11f4:	50 1b e7 17 8d 20 b1 2a b0 04 40 14 fb 09 ea 17     P.... .*..@.....
    1204:	c7 29 aa 07 f2 13 b8 18 7d 25 a8 00 37 1f 00 23     .)......}%..7..#
    1214:	d1 0f 90 0e 7a 2b 9b 18 b4 03 7a 04 7c 05 bc 2e     ....z+....z.|...
    1224:	67 0b b2 0e 14 20 b0 0f 75 2d 7b 19 2e 18 da 2e     g.... ..u-{.....
    1234:	f4 2a 81 12 a6 12 cc 1a c5 01 ed 18 5f 2e 45 21     .*.........._.E!
    1244:	2c 1b ef 07 0d 19 18 27 65 2f cf 0a 81 0f 6a 20     ,......'e/....j 
    1254:	0d 07 42 0b 03 08 5f 28 8f 09 03 18 c1 2d 86 20     ..B..._(.....-. 
    1264:	c9 0d 97 22 27 2f a5 24 33 07 c8 26 ee 1f 2b 24     ..."'/.$3..&..+$
    1274:	6f 1d bf 28 aa 01 f3 0c 94 24 a6 2e ad 0e b7 07     o..(.....$......
    1284:	2e 2d 53 2f 64 29 c1 0b a2 25 67 16 ec 16 b2 0a     .-S/d)...%g.....
    1294:	74 1e 82 0c 09 08 08 1b fa 1a 17 07 a3 2e 19 2a     t..............*
    12a4:	36 17 2f 06 d1 05 c4 09 36 2a e6 18 12 2b d0 2f     6./.....6*...+./

000012b4 <psibitrev_12289_512>:
    12b4:	01 00 3a 2a e7 1b cb 0f e8 2a d2 02 68 16 db 1f     ..:*.....*..h...
    12c4:	d6 0d 51 22 10 26 25 0e 93 29 bc 04 7b 0c e4 16     ..Q".&%..)..{...
    12d4:	2c 1d 4f 0a c0 25 4c 2c ce 2d 62 24 43 24 49 25     ,.O..%L,.-b$C$I%
    12e4:	60 16 12 1e 9f 13 c4 16 01 23 70 19 8f 1c 47 05     `........#p...G.
    12f4:	0f 09 6f 2b 46 2c eb 2c 80 23 c6 0b de 13 d3 2a     ..o+F,.,.#.....*
    1304:	ee 12 46 25 c2 23 80 0e c5 12 20 22 db 2b 0b 27     ..F%.#.... ".+.'
    1314:	13 0c b0 2f 21 1f 19 2c 6e 24 e1 1c 16 24 3e 09     .../!..,n$...$>.
    1324:	68 2b 62 1f 9e 29 31 25 75 2f c4 28 fe 1d 2b 2d     h+b..)1%u/.(..+-
    1334:	ec 04 24 11 18 12 86 19 7a 09 4e 01 94 05 a0 06     ..$.....z.N.....
    1344:	dd 07 28 23 d9 02 a9 0c 41 0b d4 0c 1d 1c d8 27     ..(#....A......'
    1354:	93 21 c6 1b 22 29 86 21 36 0d 9e 2e 0d 26 7a 1f     .!..").!6....&z.
    1364:	35 0e 83 0d 91 00 5b 1a 56 25 a5 20 e7 1c ea 18     5.....[.V%. ....
    1374:	e7 24 e0 01 fe 03 09 00 5d 26 53 01 9f 16 20 02     .$......]&S... .
    1384:	78 29 b6 10 2e 1b 84 1c b0 1f 01 22 65 05 24 26     x)........."e.$&
    1394:	48 2c 5d 21 3b 03 87 16 ac 09 76 00 95 08 36 1c     H,]!;.....v...6.
    13a4:	6d 0f 21 23 64 11 5c 09 ff 1e 82 00 15 0b 03 1b     m.!#d.\.........
    13b4:	61 09 ba 01 14 1c d6 2b 86 01 05 03 08 21 c2 0e     a......+.....!..
    13c4:	62 01 fd 12 a1 24 42 16 94 13 50 26 2b 0b ec 2b     b....$B...P&+..+
    13d4:	f9 03 ec 1c 60 06 25 1c 1b 00 07 24 4e 21 61 2a     ....`.%....$N!a*
    13e4:	01 06 f2 00 6a 12 d2 1f 8b 25 78 0e 9b 13 e0 2d     ....j....%x....-
    13f4:	ea 03 93 13 e0 13 45 1f 91 1c ba 29 3d 21 96 2c     ......E....)=!.,
    1404:	7c 26 3e 0e 86 17 ab 0b fb 25 76 27 6a 18 8b 26     |&>......%v'j..&
    1414:	d8 2b 5f 08 6d 2e dc 1d 90 04 9d 14 4a 2b b0 0c     .+_.m.......J+..
    1424:	ed 01 01 20 bd 1a 4d 09 10 1f 4e 2e 62 05 78 07     ... ..M...N.b.x.
    1434:	76 08 4b 0f 90 2f ca 1c 61 2f 4d 0c fe 2f 55 11     v.K../..a/M../U.
    1444:	34 0e 4a 13 ab 14 90 0a 6f 2a d3 1d 7f 06 10 29     4.J.....o*.....)
    1454:	24 0d 99 06 d9 0f 3a 23 e2 24 c3 1e 7e 08 14 11     $.....:#.$..~...
    1464:	4f 1c 00 27 d5 0f 55 0a 4b 14 25 25 e2 1c cc 05     O..'..U.K.%%....
    1474:	52 23 83 25 77 20 68 24 bf 26 31 0b d4 14 b6 0d     R#.%w h$.&1.....
    1484:	5e 06 b3 27 1f 15 72 0c 80 2b bd 24 38 27 31 20     ^..'..r..+.$8'1 
    1494:	a2 26 b9 22 ba 1b c1 23 49 24 9f 02 c8 0b f3 00     .&."...#I$......
    14a4:	4a 1a a4 01 7f 27 08 06 91 0f 29 13 cb 0d dc 01     J....'....).....
    14b4:	31 00 ef 04 1b 17 cb 05 3d 26 30 2a d2 29 cb 18     1.......=&0*.)..
    14c4:	e8 05 5e 01 ea 28 07 15 f9 14 f8 27 7f 23 8d 11     ..^..(.....'.#..
    14d4:	4f 25 15 19 9a 19 5f 0a 40 24 9d 06 ae 00 d3 02     O%...._.@$......
    14e4:	4a 28 54 21 5b 01 6d 0b 0e 23 57 2e 42 07 92 12     J(T![.m..#W.B...
    14f4:	d6 0b 13 10 39 09 ce 28 5c 0b da 00 6a 0d 38 22     ....9..(\...j.8"
    1504:	7b 0f 40 02 fe 17 72 26 a2 07 fe 27 bf 24 f4 28     {.@...r&...'.$.(
    1514:	97 0f 80 20 32 25 9c 00 e9 08 f4 16 12 28 d5 14     ... 2%.......(..
    1524:	bc 0e a2 01 14 17 3c 2e 35 15 5b 1d 80 1d 0d 05     ......<.5.[.....
    1534:	27 01 d3 17 86 16 8c 02 51 20 ed 0f 4f 21 9a 24     '.......Q ..O!.$
    1544:	45 01 85 2a 87 2b 4d 2c 66 17 87 04 71 21 30 20     E..*.+M,f...q!0 
    1554:	01 0d ca 10 59 2f 84 0a 49 17 0f 1c 57 28 3a 06     ....Y/..I...W(:.
    1564:	17 18 06 26 c1 1b 51 2b 50 05 74 0f 1a 18 b1 14     ...&..Q+P.t.....
    1574:	12 20 df 2b 9a 03 b9 01 a6 07 e2 10 58 04 1e 08     . .+........X...
    1584:	ce 0f c5 02 b3 23 27 05 90 10 0f 22 50 18 be 2c     .....#'...."P..,
    1594:	9b 09 ab 02 48 0e c1 2f e3 29 96 16 7d 24 3a 26     ....H../.)..}$:&
    15a4:	ce 23 2e 29 13 24 93 1a b0 1e e2 18 fa 0e 78 1b     .#.).$........x.
    15b4:	88 1b 99 24 b8 1f ca 23 a5 1a f2 03 67 22 13 03     ...$...#....g"..
    15c4:	c1 13 5a 12 ac 12 8c 22 41 2f 29 05 30 13 00 28     ..Z...."A/).0..(
    15d4:	a5 02 0f 19 5a 18 f9 22 2b 05 33 25 cd 2f 66 0c     ....Z.."+.3%./f.
    15e4:	2b 06 52 2e 38 26 12 17 75 0f ea 24 97 00 b2 27     +.R.8&..u..$...'
    15f4:	c7 2f 10 2f cc 0d 16 2c a4 07 70 1c 8c 2c 89 18     ././...,..p..,..
    1604:	95 0d d0 19 8e 00 b0 2b e5 24 6e 0d 32 2c 74 10     .......+.$n.2,t.
    1614:	2c 24 27 1a ae 12 fe 16 8c 1f f8 01 fe 08 a4 2d     ,$'............-
    1624:	5c 2e 11 20 12 0e b4 17 f1 21 bf 0c bd 17 f1 1d     \.. .....!......
    1634:	8e 1e 4c 1d 60 1a 8d 12 61 11 b1 1a 6e 2f 34 21     ..L.`...a...n/4!
    1644:	e6 17 17 21 a6 04 86 25 14 0f 45 15 49 1e e7 2b     ...!...%..E.I..+
    1654:	d7 13 43 23 79 08 f7 2d 1d 1f 34 13 16 20 c3 14     ..C#y..-..4.. ..
    1664:	03 2b d9 26 b5 07 3b 1a 47 22 f0 2b 25 17 07 2c     .+.&..;.G".+%..,
    1674:	8e 02 ed 0d a6 06 c3 07 68 1a 56 14 7f 0c c9 2f     ........h.V..../
    1684:	f8 17 1b 19 da 1a c6 21 54 13 08 18 90 01 41 29     .......!T.....A)
    1694:	db 14 46 15 7e 0e cd 17 d4 01 6d 20 3c 01 83 2e     ..F.~.....m <...
    16a4:	10 28 63 20 27 0f 82 07 b2 2a c6 1a cd 03 1b 2b     .(c '....*.....+

000016b4 <pubKeyA_4096_320>:
    16b4:	f5 00 85 01 24 02 98 08 8c 05 b3 09 a1 0f b3 0b     ....$...........
    16c4:	bc 03 c4 05 82 09 a4 0a 73 00 8e 01 cf 0f 3f 0a     ........s.....?.
    16d4:	f5 07 95 05 e9 0b 2c 0c 1d 08 c4 05 cd 04 4c 0a     ......,.......L.
    16e4:	09 02 fb 05 53 0a c7 07 0b 04 29 02 bb 08 65 0a     ....S.....)...e.
    16f4:	15 07 f0 09 b7 0c 75 00 91 0e 24 02 4c 06 a7 03     ......u...$.L...
    1704:	df 0f 90 0c 5f 0f a0 0b 79 08 bf 0a da 09 a1 0e     ...._...y.......
    1714:	88 0d 58 09 88 0b 27 0d 18 0f e6 06 dc 04 58 0d     ..X...'.......X.
    1724:	43 05 65 01 d0 0c 48 0a 6f 00 ec 0e d8 08 f1 03     C.e...H.o.......
    1734:	78 08 e9 0d 3f 0a 51 09 02 05 a7 05 54 06 22 09     x...?.Q.....T.".
    1744:	54 00 ec 07 86 08 54 09 76 00 a7 03 38 04 77 08     T.....T.v...8.w.
    1754:	36 09 ee 08 5e 0d 09 02 98 01 13 0e 18 01 b8 0b     6...^...........
    1764:	e9 0d 2a 0b 8b 0c 84 0b 69 0f a8 01 99 02 eb 06     ..*.....i.......
    1774:	31 0d c1 08 73 02 ce 0e 73 06 1d 01 52 06 a9 09     1...s...s...R...
    1784:	47 0f cf 01 2f 02 a7 0a ef 07 36 0f 64 0c c4 05     G.../.....6.d...
    1794:	d1 0b ba 07 bb 08 de 03 e9 02 60 0a 02 07 dd 0e     ..........`.....
    17a4:	60 00 33 08 0e 07 33 0d 96 0e 81 05 c7 0b 56 0a     `.3...3.......V.
    17b4:	b0 0e ba 0d 80 03 49 0d 6e 08 2c 0f a4 0c 02 0b     ......I.n.,.....
    17c4:	79 0d 04 04 8a 0d b2 07 dd 0b 17 03 02 0e 2d 03     y.............-.
    17d4:	59 0f f9 07 c2 01 9c 0b 8f 05 f4 01 c5 07 27 06     Y.............'.
    17e4:	af 0a 93 0f fe 03 66 09 43 0b b5 06 33 0d ff 09     ......f.C...3...
    17f4:	d6 03 21 01 eb 08 c6 01 04 04 4c 07 94 02 31 05     ..!.......L...1.
    1804:	e3 09 94 03 27 0f 0f 0b 40 0b fb 0e da 0c 7a 03     ....'...@.....z.
    1814:	20 07 72 0f df 06 63 0c cb 02 70 0f 3b 0a 36 0e      .r...c...p.;.6.
    1824:	dc 03 22 0f 9e 07 98 04 8e 01 27 03 dc 0e ee 0d     ..".......'.....
    1834:	73 0a 3a 04 7c 07 a2 0b 07 0c a0 03 70 04 76 06     s.:.|.......p.v.
    1844:	26 06 7b 04 36 00 49 0f db 0b a9 0b eb 0c e2 06     &.{.6.I.........
    1854:	42 0a b1 00 50 07 71 0a 3b 0c cb 09 e8 03 b8 08     B...P.q.;.......
    1864:	4d 03 04 09 dd 06 54 0f 81 00 0d 02 b9 0e b1 07     M.....T.........
    1874:	10 0d b8 03 3c 05 15 06 c9 09 80 0b a7 0f 3e 0f     ....<.........>.
    1884:	d7 0c 61 0e d4 02 12 02 6c 01 80 07 2c 07 16 0e     ..a.....l...,...
    1894:	92 0a cb 04 d9 0b c4 05 2b 0b 61 0b b8 07 a3 0d     ........+.a.....
    18a4:	31 05 41 09 fb 06 8c 0b 24 02 08 0e b2 08 49 09     1.A.....$.....I.
    18b4:	a9 00 35 0f 37 0a a1 0b 85 00 12 07 71 07 e4 04     ..5.7.......q...
    18c4:	bb 0a 24 0f 73 0f ee 07 cd 0e 7c 0c 5a 0e 46 07     ..$.s.....|.Z.F.
    18d4:	f0 0f 2e 0f 5f 0f 01 0d b2 04 c3 0e 6b 03 34 05     ...._.......k.4.
    18e4:	fa 0b bf 07 e4 07 1a 03 bf 09 6c 03 a1 08 26 00     ..........l...&.
    18f4:	ff 0b 57 09 16 0d d8 07 c5 01 ed 07 e1 0f 7f 0c     ..W.............
    1904:	41 0c 18 05 15 04 76 03 99 09 a6 00 c2 0b a4 08     A.....v.........
    1914:	87 02 4a 09 a9 0a d3 06 20 01 dc 09 db 00 e9 0a     ..J..... .......
    1924:	e1 01 f3 0d eb 03 cb 03 b5 00 55 0a 14 0b 77 09     ..........U...w.

00001934 <pubKeyP_4096_320>:
    1934:	c2 08 87 0f 81 06 ef 0a 7f 02 ee 03 5e 0b e2 0e     ............^...
    1944:	3c 04 9d 05 a4 03 62 0d bd 06 70 0f ce 07 b0 05     <.....b...p.....
    1954:	1a 0e 7e 04 c3 04 74 07 73 06 ea 0d 9f 0a 4d 08     ..~...t.s.....M.
    1964:	38 05 c8 0b d1 0c 2f 03 42 0e 2e 08 b1 01 b5 0c     8...../.B.......
    1974:	46 0c 33 0c ea 06 63 0e 01 08 96 01 f1 04 b2 0c     F.3...c.........
    1984:	84 04 75 07 c8 01 bf 02 da 0f fc 02 49 0d 42 0d     ..u.........I.B.
    1994:	c2 0c 9e 02 00 04 f9 03 aa 02 75 08 38 01 2e 0f     ..........u.8...
    19a4:	08 0f aa 0a c8 01 c9 0f 58 0d e7 06 93 0a 56 08     ........X.....V.
    19b4:	11 08 9a 00 f8 08 f8 0c 2c 07 bd 0c 69 07 bb 0d     ........,...i...
    19c4:	fd 02 f5 0f e2 07 f8 08 07 03 d1 0e 62 00 3c 09     ............b.<.
    19d4:	45 03 4a 0a 87 03 a9 08 c9 0b ee 07 bd 01 7f 02     E.J.............
    19e4:	85 04 c1 03 9c 0e ef 03 57 0f d5 00 e5 0b f5 0d     ........W.......
    19f4:	6a 09 70 0f 38 0b 4a 0b 93 00 65 0d fd 02 a7 01     j.p.8.J...e.....
    1a04:	cb 0b 6f 0e c4 08 7f 06 3c 0d 08 0b dd 03 d7 07     ..o.....<.......
    1a14:	3d 06 6d 01 41 0a 1c 0d bb 04 2c 09 7a 0c 8e 09     =.m.A.....,.z...
    1a24:	30 00 c5 00 1b 02 6e 0a 6b 0d 85 02 44 02 83 03     0.....n.k...D...
    1a34:	ff 0d d1 04 43 06 f6 0b b8 0c 1d 00 f1 09 e8 01     ....C...........
    1a44:	0f 05 52 0d d6 05 3e 00 29 0d 4f 06 90 0f 16 02     ..R...>.).O.....
    1a54:	b6 00 3c 0f 6e 02 87 05 f8 02 78 0c 7b 09 3f 0f     ..<.n.....x.{.?.
    1a64:	d7 0c 82 09 17 06 38 0c bb 08 2e 0b 59 02 06 0c     ......8.....Y...
    1a74:	7d 05 42 08 d6 0c e4 09 70 0b 39 01 08 04 06 09     }.B.....p.9.....
    1a84:	92 05 46 0d 2e 0f ee 03 d4 0f 32 06 78 04 b8 03     ..F.......2.x...
    1a94:	c4 0a 55 08 76 03 ae 0d 9e 0e 53 07 55 07 20 05     ..U.v.....S.U. .
    1aa4:	db 03 26 0e 70 00 e2 0c 4e 0e 3b 09 9c 0b 49 04     ..&.p...N.;...I.
    1ab4:	0f 0b f2 07 90 00 97 0b 96 0e 2b 09 0f 0a a4 0a     ..........+.....
    1ac4:	03 0b 28 04 be 01 7d 01 59 08 79 0a 41 0a 25 00     ..(...}.Y.y.A.%.
    1ad4:	17 05 a3 07 1d 09 b5 02 69 05 70 0d 1f 09 ae 03     ........i.p.....
    1ae4:	12 06 6b 00 a9 0a c2 01 0c 0f 8d 0f 2e 05 ed 06     ..k.............
    1af4:	7a 0c 2e 0d 33 09 21 01 50 05 5e 0c c7 0f bf 0c     z...3.!.P.^.....
    1b04:	7b 05 5e 06 ae 07 bf 0d 5c 08 b3 0f 51 07 11 02     {.^.....\...Q...
    1b14:	01 0a e7 03 25 00 82 0e 2c 07 dc 02 d3 0f a0 00     ....%...,.......
    1b24:	28 0f 66 0e a1 05 b4 05 ef 0c c1 0d f0 04 69 0b     (.f...........i.
    1b34:	fa 06 28 00 4f 07 85 01 ea 01 cd 00 4f 05 70 09     ..(.O.......O.p.
    1b44:	80 0a a2 02 9a 0b 34 02 4c 0e f6 0b da 06 d4 0c     ......4.L.......
    1b54:	76 0b b5 03 d2 09 14 00 7c 07 e8 0f 55 0e da 06     v.......|...U...
    1b64:	a9 05 38 02 0c 00 22 0b 4c 0e 72 05 cc 05 d8 06     ..8...".L.r.....
    1b74:	15 01 f2 04 c6 0f ac 09 b3 03 a2 04 f7 05 14 04     ................
    1b84:	f8 06 32 0e ee 0e 5d 00 c5 01 66 05 b9 0b 44 02     ..2...]...f...D.
    1b94:	9a 0c c7 09 9f 0b 9c 09 92 03 7a 0d 67 06 c4 01     ..........z.g...
    1ba4:	b8 0e ec 01 14 00 a9 01 cf 08 7d 0c f4 01 d3 04     ..........}.....

00001bb4 <prvKeyR2_4096_320>:
    1bb4:	00 00 05 00 fd ff 02 00 04 00 03 00 fc ff 00 00     ................
    1bc4:	ff ff fe ff 00 00 fd ff 01 00 02 00 fb ff 01 00     ................
    1bd4:	fe ff 00 00 05 00 fc ff 01 00 fc ff 00 00 01 00     ................
    1be4:	fb ff fe ff fe ff 02 00 fa ff 01 00 06 00 fd ff     ................
    1bf4:	00 00 01 00 04 00 04 00 01 00 fc ff 00 00 01 00     ................
    1c04:	04 00 fc ff ff ff ff ff 01 00 fd ff ff ff ff ff     ................
    1c14:	01 00 fc ff 00 00 02 00 fa ff 00 00 fc ff 00 00     ................
    1c24:	01 00 fc ff fe ff 01 00 fd ff ff ff 01 00 06 00     ................
    1c34:	fd ff 00 00 03 00 03 00 fe ff ff ff ff ff 03 00     ................
    1c44:	05 00 03 00 fb ff ff ff 00 00 03 00 06 00 fd ff     ................
    1c54:	01 00 05 00 fc ff 00 00 01 00 03 00 04 00 fc ff     ................
    1c64:	01 00 04 00 fc ff ff ff ff ff 01 00 03 00 fd ff     ................
    1c74:	01 00 fa ff 00 00 04 00 06 00 03 00 08 00 fb ff     ................
    1c84:	ff ff ff ff ff ff 03 00 fe ff 00 00 01 00 03 00     ................
    1c94:	fd ff fe ff 00 00 fc ff 01 00 03 00 fd ff 00 00     ................
    1ca4:	ff ff 01 00 02 00 fd ff fe ff 00 00 01 00 05 00     ................
    1cb4:	04 00 fd ff fe ff fe ff 02 00 05 00 fb ff 00 00     ................
    1cc4:	02 00 fd ff 00 00 fd ff ff ff 01 00 02 00 fd ff     ................
    1cd4:	00 00 01 00 fe ff 00 00 01 00 fc ff ff ff fe ff     ................
    1ce4:	00 00 fe ff 00 00 fd ff 01 00 fe ff 00 00 01 00     ................
    1cf4:	fb ff ff ff ff ff fe ff 00 00 fe ff fe ff 00 00     ................
    1d04:	01 00 03 00 fb ff 01 00 03 00 04 00 fd ff fe ff     ................
    1d14:	fe ff fe ff 02 00 ff ff 01 00 03 00 fc ff 00 00     ................
    1d24:	fc ff 01 00 02 00 03 00 03 00 04 00 fc ff ff ff     ................
    1d34:	01 00 fd ff 00 00 fd ff 00 00 02 00 02 00 fc ff     ................
    1d44:	01 00 fd ff ff ff ff ff fe ff ff ff fe ff 00 00     ................
    1d54:	02 00 04 00 06 00 05 00 04 00 fe ff 00 00 fe ff     ................
    1d64:	ff ff ff ff 01 00 08 00 05 00 03 00 fd ff 01 00     ................
    1d74:	fc ff ff ff 00 00 07 00 fb ff 01 00 03 00 05 00     ................
    1d84:	fa ff fe ff 02 00 03 00 fc ff 00 00 02 00 fb ff     ................
    1d94:	00 00 ff ff ff ff fe ff ff ff 00 00 ff ff 00 00     ................
    1da4:	fe ff 00 00 02 00 03 00 f8 ff 00 00 ff ff ff ff     ................
    1db4:	01 00 04 00 03 00 04 00 02 00 fd ff 01 00 03 00     ................
    1dc4:	fc ff ff ff 01 00 fd ff fe ff ff ff ff ff 02 00     ................
    1dd4:	02 00 f9 ff ff ff 01 00 04 00 03 00 fa ff 02 00     ................
    1de4:	02 00 04 00 f8 ff 01 00 fc ff 03 00 fd ff 01 00     ................
    1df4:	04 00 fd ff 00 00 ff ff fe ff ff ff 00 00 ff ff     ................
    1e04:	fe ff fe ff 00 00 ff ff ff ff 01 00 08 00 fd ff     ................
    1e14:	00 00 03 00 04 00 03 00 04 00 fc ff 02 00 04 00     ................
    1e24:	fd ff 02 00 fb ff ff ff ff ff 00 00 fe ff 00 00     ................

00001e34 <pubKeyA_4096_256>:
    1e34:	2b 08 12 02 02 09 94 0f 15 08 4a 00 b0 05 21 00     +.........J...!.
    1e44:	97 07 fd 00 55 07 63 0a 90 0b dc 0e e8 00 12 0b     ....U.c.........
    1e54:	4a 09 f1 0b 13 06 30 07 d9 06 b0 03 c5 00 32 0e     J.....0.......2.
    1e64:	03 0c 97 08 25 02 e0 04 01 0a d2 0d b2 02 20 0d     ....%......... .
    1e74:	7c 0d 38 0a 26 0b 57 0c f5 0f 9a 01 9f 0f 5d 02     |.8.&.W.......].
    1e84:	4a 0c 23 0b 8e 04 4e 04 e8 0a 43 0a 6b 0e eb 04     J.#...N...C.k...
    1e94:	0b 0a 3d 0d 18 0d 26 05 93 0b 0c 00 52 00 2f 06     ..=...&.....R./.
    1ea4:	43 0c b1 0f 31 00 bc 09 02 05 f1 0d 7f 0f 28 01     C...1.........(.
    1eb4:	9c 0c ff 0c 40 03 f6 02 6f 07 58 01 06 0f 1f 0a     ....@...o.X.....
    1ec4:	bf 06 41 07 ee 0e fc 0c 1b 03 f1 0a d4 0b 65 02     ..A...........e.
    1ed4:	4c 00 fe 01 dd 02 0b 0b e0 01 19 0f 8b 02 b9 08     L...............
    1ee4:	65 0f 6e 0c 15 02 6a 0b 8f 03 31 0f ad 01 d8 0e     e.n...j...1.....
    1ef4:	23 0a cb 08 e9 08 a4 06 5a 0d 31 04 a1 0d 2d 04     #.......Z.1...-.
    1f04:	88 0e 23 0a 9d 0e 36 0f 39 09 56 0f 9e 03 ee 0c     ..#...6.9.V.....
    1f14:	6d 0e 01 0d c5 0a 38 03 85 01 ac 00 da 0e c5 0e     m.....8.........
    1f24:	71 0f 77 04 b1 0e f1 0a e3 09 4b 04 1b 07 97 0d     q.w.......K.....
    1f34:	e1 02 bc 0b bc 09 41 02 ff 0a 2c 0c 35 0e 78 0c     ......A...,.5.x.
    1f44:	64 09 13 04 de 01 a7 0d 13 00 ef 06 d9 03 67 0f     d.............g.
    1f54:	fd 0a 44 02 7c 09 da 09 49 0b 41 0e a7 0f 7f 03     ..D.|...I.A.....
    1f64:	54 04 d6 0d 1d 0b e8 04 20 03 ce 03 9f 07 36 09     T....... .....6.
    1f74:	74 07 2d 00 12 08 19 00 53 03 4d 04 13 0c dc 03     t.-.....S.M.....
    1f84:	5b 0c 22 0c 5d 0e ed 06 ba 05 f1 03 20 01 27 0b     [.".]....... .'.
    1f94:	32 0e 5d 07 4f 0e 45 0d b8 0a 6f 0e 12 03 1d 0e     2.].O.E...o.....
    1fa4:	28 09 24 04 b3 0d d1 02 30 04 98 02 1f 01 31 09     (.$.....0.....1.
    1fb4:	ea 0f d4 02 80 06 d2 0a fc 01 6c 01 62 02 72 08     ..........l.b.r.
    1fc4:	7b 0c 81 0e d4 0d 58 0a e0 04 46 05 df 00 36 02     {.....X...F...6.
    1fd4:	34 01 6e 0b 97 07 b5 0c dc 01 45 0d a3 02 9b 08     4.n.......E.....
    1fe4:	82 0d ee 03 95 0f 0a 09 af 06 71 0e 92 04 e3 01     ..........q.....
    1ff4:	87 0a c5 06 20 09 87 0b 45 0b 62 02 49 08 74 01     .... ...E.b.I.t.
    2004:	46 08 0c 09 7d 03 68 00 bd 0f 63 00 5e 06 0b 09     F...}.h...c.^...
    2014:	46 0f 07 0f 71 0c e6 04 ac 09 50 0f 95 05 0a 06     F...q.....P.....
    2024:	0e 0d b3 06 b2 06 5f 0d 7a 0a 88 06 0c 0a d6 0d     ......_.z.......

00002034 <pubKeyP_4096_256>:
    2034:	bf 04 29 0d ef 07 d2 0d b4 0c 82 07 61 03 34 05     ..).........a.4.
    2044:	02 05 34 0d cf 09 b0 03 af 02 aa 06 b0 0f 52 0c     ..4...........R.
    2054:	62 00 75 00 7f 07 19 01 1c 08 71 00 58 0a 94 0a     b.u.......q.X...
    2064:	f4 0c 6a 01 5b 0d 68 03 92 09 ff 0a 8a 02 32 0e     ..j.[.h.......2.
    2074:	69 0f 3e 07 cc 03 2d 05 27 03 28 07 6e 09 17 07     i.>...-.'.(.n...
    2084:	c9 07 8b 04 52 03 a5 0e cc 0f 2d 08 d4 00 8f 09     ....R.....-.....
    2094:	30 03 48 09 d8 04 83 0b 5e 08 86 0f 5c 05 6f 05     0.H.....^...\.o.
    20a4:	08 0b 97 01 3c 02 d6 03 ff 02 77 02 6e 06 af 0e     ....<.....w.n...
    20b4:	02 0b aa 05 df 0f 10 0b bb 0d be 06 97 07 a9 02     ................
    20c4:	df 0f c8 00 42 01 b8 0d 24 0f f8 08 e8 02 dd 01     ....B...$.......
    20d4:	9f 03 37 06 86 03 ee 02 3e 0e 2a 0c a3 0c 24 06     ..7.....>.*...$.
    20e4:	53 0f fd 09 e6 00 01 06 06 01 9d 0d 1d 0c a6 0e     S...............
    20f4:	50 00 f4 03 18 02 5d 0e 90 0c f5 0a 39 0b 24 08     P.....].....9.$.
    2104:	29 0a 27 06 9e 07 7d 01 6a 0f 07 0f ca 0c db 02     ).'...}.j.......
    2114:	6e 01 2f 0b 22 0b a4 09 a8 04 80 06 7b 0e e1 0c     n./.".......{...
    2124:	6b 04 a5 07 e1 06 8f 0c 64 08 cf 0f 51 09 fb 06     k.......d...Q...
    2134:	f4 05 54 01 f0 07 4a 0d 20 0e 55 09 48 02 8d 06     ..T...J. .U.H...
    2144:	71 07 23 05 a3 03 ef 01 08 03 3d 0e a9 00 b1 00     q.#.......=.....
    2154:	fc 07 d7 0d 33 03 6f 0a da 09 cc 0f 03 00 29 0d     ....3.o.......).
    2164:	69 04 66 05 1f 08 77 0a 96 00 30 0a 21 0e eb 03     i.f...w...0.!...
    2174:	70 01 7d 05 1c 0d 5f 02 00 07 cc 0e fd 07 6c 03     p.}..._.......l.
    2184:	1b 07 35 03 e6 07 75 0b 0b 00 62 02 6e 0c fc 0a     ..5...u...b.n...
    2194:	a1 05 38 02 97 0c c5 07 5f 0b 5a 0e a6 0e a7 0c     ..8....._.Z.....
    21a4:	d8 08 1a 06 e2 05 2e 02 e4 0b 07 02 37 0a 94 0b     ............7...
    21b4:	73 08 44 0f 9b 0a 77 0b 18 0b 94 0a 6a 0e cc 05     s.D...w.....j...
    21c4:	c5 0e a9 03 0b 05 f6 04 66 01 3a 0c c3 04 54 05     ........f.:...T.
    21d4:	2f 05 76 07 f3 0e b0 04 d8 07 4e 0a 8d 09 9e 0e     /.v.......N.....
    21e4:	71 0a a0 0a 7b 06 61 06 77 07 45 01 6c 08 81 0e     q...{.a.w.E.l...
    21f4:	36 02 a2 0c aa 03 2b 0e 13 03 c2 0f 3e 0a 86 00     6.....+.....>...
    2204:	75 09 ca 07 d8 08 db 0e ed 0a 43 01 b9 00 f8 08     u.........C.....
    2214:	87 0d 34 05 02 0b cf 0e 1e 08 05 0d 47 0c e8 00     ..4.........G...
    2224:	1e 0e 1e 01 54 0f ea 0f d8 00 5e 09 9d 03 7f 03     ....T.....^.....

00002234 <prvKeyR2_4096_256>:
    2234:	02 00 fd ff 01 00 fb ff 01 00 fa ff ff ff 00 00     ................
    2244:	02 00 03 00 04 00 fe ff 00 00 01 00 fd ff 01 00     ................
    2254:	03 00 fc ff 01 00 03 00 05 00 07 00 fb ff fe ff     ................
    2264:	01 00 02 00 fb ff ff ff 00 00 ff ff ff ff fe ff     ................
    2274:	ff ff 02 00 03 00 fe ff fe ff ff ff ff ff 01 00     ................
    2284:	fe ff 02 00 04 00 05 00 fe ff 01 00 fa ff fe ff     ................
    2294:	02 00 05 00 03 00 05 00 04 00 02 00 03 00 04 00     ................
    22a4:	03 00 03 00 03 00 03 00 03 00 f7 ff fe ff 02 00     ................
    22b4:	fc ff 01 00 03 00 04 00 fc ff 01 00 01 00 fd ff     ................
    22c4:	ff ff 00 00 01 00 fd ff 01 00 03 00 fd ff 02 00     ................
    22d4:	04 00 fc ff 01 00 fb ff 02 00 03 00 fe ff 02 00     ................
    22e4:	fd ff ff ff fe ff 02 00 05 00 fb ff 01 00 04 00     ................
    22f4:	07 00 03 00 06 00 fe ff ff ff ff ff 02 00 06 00     ................
    2304:	05 00 04 00 ff ff ff ff ff ff 02 00 fd ff fe ff     ................
    2314:	fe ff 01 00 fd ff fe ff 00 00 02 00 03 00 fd ff     ................
    2324:	ff ff fe ff ff ff ff ff 02 00 fd ff ff ff 00 00     ................
    2334:	fc ff 01 00 fa ff 00 00 02 00 08 00 f8 ff ff ff     ................
    2344:	fe ff fe ff 01 00 fd ff fe ff 02 00 08 00 08 00     ................
    2354:	fc ff 01 00 03 00 fb ff 00 00 fd ff 00 00 fe ff     ................
    2364:	fe ff 01 00 02 00 04 00 03 00 fb ff ff ff 00 00     ................
    2374:	00 00 ff ff ff ff 00 00 f9 ff 02 00 03 00 03 00     ................
    2384:	fc ff 01 00 fc ff 00 00 fd ff fe ff fe ff ff ff     ................
    2394:	fc ff 00 00 ff ff ff ff ff ff 00 00 ff ff 00 00     ................
    23a4:	ff ff fe ff 01 00 fe ff 02 00 05 00 02 00 03 00     ................
    23b4:	04 00 fd ff ff ff 02 00 fd ff fe ff 02 00 fd ff     ................
    23c4:	00 00 fd ff 01 00 fd ff 01 00 fd ff 01 00 05 00     ................
    23d4:	fa ff 00 00 04 00 04 00 03 00 04 00 03 00 fc ff     ................
    23e4:	01 00 fd ff 00 00 fd ff 01 00 03 00 02 00 f8 ff     ................
    23f4:	01 00 05 00 04 00 02 00 fd ff 01 00 03 00 fb ff     ................
    2404:	ff ff 00 00 05 00 02 00 fa ff fe ff 02 00 04 00     ................
    2414:	08 00 fb ff fe ff ff ff 01 00 fb ff 00 00 06 00     ................
    2424:	fe ff 01 00 fd ff 02 00 05 00 fd ff 00 00 ff ff     ................

00002434 <pubKeyA_4096_192>:
    2434:	cf 0d 72 00 b6 07 31 01 87 09 30 0e ef 00 8c 0e     ..r...1...0.....
    2444:	c4 0b 64 08 26 0a 0e 0a 18 0d 72 0a 32 00 a7 03     ..d.&.....r.2...
    2454:	a3 01 2f 01 f0 05 c7 01 23 07 a6 05 ff 0a 2c 00     ../.....#.....,.
    2464:	f5 06 fc 09 17 06 ed 0a 6c 0f 49 0f 14 02 be 09     ........l.I.....
    2474:	7d 07 f2 05 bd 01 f1 0d 14 06 38 03 e9 01 07 07     }.........8.....
    2484:	50 0c bd 08 bb 0f 5a 0e 8c 02 67 01 d3 0a ce 0c     P.....Z...g.....
    2494:	3e 0b bb 0e f6 0b 89 00 3a 02 0f 03 80 06 8e 02     >.......:.......
    24a4:	65 0b ee 0a d7 06 5c 07 ce 01 24 01 81 05 cf 07     e.....\...$.....
    24b4:	8c 00 84 0f 9e 05 ed 01 de 05 10 05 0a 0f 8a 0d     ................
    24c4:	54 0d 5c 0b e7 09 14 02 8c 04 9d 00 b2 01 73 0e     T.\...........s.
    24d4:	b4 01 c3 00 2a 01 d2 03 5c 05 2b 09 e9 00 c7 0d     ....*...\.+.....
    24e4:	7e 00 00 0d 8e 0c 27 05 e6 01 dc 09 71 04 62 03     ~.....'.....q.b.
    24f4:	7a 08 eb 0d e4 01 43 01 4e 02 65 09 e6 0b d8 0b     z.....C.N.e.....
    2504:	24 0f 78 08 55 06 a6 0c 89 0b 8c 02 96 08 11 02     $.x.U...........
    2514:	72 08 99 07 4e 0a 40 09 f9 0b a6 0c 96 0e 47 01     r...N.@.......G.
    2524:	0b 07 bb 07 b6 09 49 0a d0 06 6a 09 9b 02 16 05     ......I...j.....
    2534:	57 0e 7e 03 f8 0d 34 0a 77 0f 5e 0b 2d 0b f9 0f     W.~...4.w.^.-...
    2544:	e3 08 b4 03 29 06 35 0b 80 0a 6b 02 0e 0d 1c 0a     ....).5...k.....
    2554:	87 01 1a 0d 77 0a 44 03 3c 04 50 0a bc 04 f0 0b     ....w.D.<.P.....
    2564:	f2 00 d4 0b 95 0c a8 0e e4 06 c2 04 06 0e 84 03     ................
    2574:	9f 03 1b 04 f3 0a 4f 0d 29 01 13 0f fd 0b a9 0c     ......O.).......
    2584:	a8 01 e1 00 6f 0b d0 09 de 06 d4 08 f9 0a cb 03     ....o...........
    2594:	3c 07 bc 01 d2 02 f2 0e ad 0f 39 06 17 0c 33 04     <.........9...3.
    25a4:	51 0b d4 05 2a 05 83 02 38 00 3c 03 2b 05 26 02     Q...*...8.<.+.&.

000025b4 <pubKeyP_4096_192>:
    25b4:	19 0c 8b 0b ab 00 58 0c 86 0d 42 05 83 06 a3 08     ......X...B.....
    25c4:	a6 05 05 0b db 03 bc 0e 09 0f 2a 0b 8c 00 05 03     ..........*.....
    25d4:	da 07 1a 0c 32 09 d3 0f a6 0a c0 09 06 0c de 00     ....2...........
    25e4:	a0 03 a0 0e 45 0f b7 0b 5e 0f d9 0f 2e 02 0c 04     ....E...^.......
    25f4:	b4 0a 16 00 7f 0b 5c 0e 9c 04 4e 0a 75 07 43 05     ......\...N.u.C.
    2604:	1b 09 f5 0c db 0b 88 0f a9 03 97 02 42 0a 08 04     ............B...
    2614:	59 0b bd 01 a6 04 4a 0b 29 06 10 09 37 03 b2 04     Y.....J.)...7...
    2624:	19 01 96 0e ce 00 f1 00 f3 0b 9d 04 a1 0f c1 07     ................
    2634:	cf 08 fe 08 ef 03 d1 09 18 07 c5 02 df 0d a5 09     ................
    2644:	43 05 9d 03 22 09 d1 03 73 0d c3 07 fc 0d 47 02     C..."...s.....G.
    2654:	72 0c 09 0a 77 0f 4a 01 b6 0a 4c 0b 53 0f 88 0a     r...w.J...L.S...
    2664:	17 0d 0b 00 0c 07 a5 0e 25 0c 34 07 c4 0a a2 0f     ........%.4.....
    2674:	38 01 d0 0b c0 09 8d 07 5e 06 02 01 53 05 f8 0e     8.......^...S...
    2684:	27 02 e1 04 95 0e cf 00 44 0b 40 09 8a 05 1e 0b     '.......D.@.....
    2694:	c1 0d fd 00 d8 09 fc 0c fa 09 d5 03 a8 06 5a 02     ..............Z.
    26a4:	c1 08 ad 09 fe 02 74 0b 4e 09 40 0e 4f 0d ec 04     ......t.N.@.O...
    26b4:	58 09 2c 0d 8e 0b 6e 05 53 01 07 03 0d 0b a6 02     X.,...n.S.......
    26c4:	38 0e ff 04 45 0c fe 0e 34 06 5c 0d ca 08 7e 09     8...E...4.\...~.
    26d4:	aa 0c 79 00 d4 08 1b 05 fc 09 46 02 a4 0b 90 0d     ..y.......F.....
    26e4:	44 08 5d 06 57 08 9b 03 31 01 65 03 b0 0c 3b 06     D.].W...1.e...;.
    26f4:	eb 0b 3e 0c ad 0e 60 01 bc 0f 58 0a 10 0e 62 0f     ..>...`...X...b.
    2704:	f3 04 19 0b 1d 03 00 0f 92 0c 22 0f 88 06 ac 08     ..........".....
    2714:	a3 0d 8c 06 63 07 3c 05 8a 02 94 03 40 04 fe 02     ....c.<.....@...
    2724:	99 02 ea 0a cd 03 08 0c 56 0e b0 01 3d 04 c4 0d     ........V...=...

00002734 <prvKeyR2_4096_192>:
    2734:	01 00 fd ff 02 00 03 00 fc ff 01 00 fb ff 00 00     ................
    2744:	00 00 fd ff fe ff 01 00 05 00 fb ff 01 00 06 00     ................
    2754:	05 00 03 00 fe ff 00 00 fd ff 00 00 fe ff 01 00     ................
    2764:	fe ff 00 00 05 00 fc ff 00 00 fd ff 01 00 05 00     ................
    2774:	03 00 07 00 03 00 0a 00 fc ff 01 00 03 00 05 00     ................
    2784:	fb ff fe ff 01 00 f9 ff 00 00 fe ff ff ff 01 00     ................
    2794:	fe ff 01 00 04 00 f7 ff 01 00 fa ff 00 00 fd ff     ................
    27a4:	00 00 05 00 05 00 06 00 03 00 f9 ff 01 00 05 00     ................
    27b4:	06 00 03 00 02 00 03 00 00 00 fa ff 00 00 fd ff     ................
    27c4:	01 00 fd ff 00 00 fc ff 01 00 04 00 03 00 04 00     ................
    27d4:	fc ff 00 00 07 00 02 00 02 00 fb ff 02 00 04 00     ................
    27e4:	fb ff 01 00 02 00 fc ff ff ff 00 00 ff ff 00 00     ................
    27f4:	fa ff 01 00 fd ff 00 00 ff ff 01 00 04 00 f6 ff     ................
    2804:	fb ff 02 00 02 00 03 00 fc ff 00 00 fb ff 01 00     ................
    2814:	03 00 fd ff 02 00 05 00 05 00 06 00 05 00 fe ff     ................
    2824:	00 00 fe ff ff ff 00 00 fe ff ff ff fe ff 02 00     ................
    2834:	06 00 07 00 fd ff 00 00 03 00 fc ff fe ff ff ff     ................
    2844:	00 00 01 00 00 00 ff ff 01 00 fe ff 01 00 fc ff     ................
    2854:	01 00 fc ff 01 00 fc ff 00 00 fc ff fe ff 00 00     ................
    2864:	fc ff 01 00 03 00 04 00 02 00 06 00 03 00 04 00     ................
    2874:	02 00 03 00 02 00 03 00 fd ff ff ff fe ff fe ff     ................
    2884:	ff ff 01 00 04 00 04 00 fc ff 03 00 06 00 04 00     ................
    2894:	fd ff 01 00 06 00 fd ff 01 00 fb ff fe ff 01 00     ................
    28a4:	fb ff 00 00 02 00 fc ff 02 00 fd ff 01 00 04 00     ................

000028b4 <pubKeyA_4093_320>:
    28b4:	56 0b 88 09 be 0c 25 0f d9 0e d3 0b db 00 0a 09     V.....%.........
    28c4:	c5 03 ea 09 a2 05 90 0f d1 04 01 04 f1 08 f1 0b     ................
    28d4:	73 06 06 0b 8a 09 ac 04 10 0c 68 08 ce 09 0a 07     s.........h.....
    28e4:	98 09 fa 06 0e 07 31 0e 05 06 ec 09 78 07 26 0e     ......1.....x.&.
    28f4:	82 09 3a 0b 5e 0e 39 08 0d 0f e1 0d 51 01 eb 00     ..:.^.9.....Q...
    2904:	9b 0b 25 03 4d 0b 95 02 ac 02 72 0c 2e 0f eb 0b     ..%.M.....r.....
    2914:	d4 0f e1 09 7c 0a f3 0d 4c 01 15 0e ee 03 e5 06     ....|...L.......
    2924:	83 09 d4 0d 90 05 02 01 05 07 b4 01 66 03 b5 08     ............f...
    2934:	fb 0c c4 0a bc 00 01 01 79 01 31 02 d8 00 eb 06     ........y.1.....
    2944:	28 02 0f 01 d1 0a e7 0e 38 05 79 0c 4a 02 c1 01     (.......8.y.J...
    2954:	55 04 3f 0e f4 08 6f 01 12 09 2a 0b 95 09 d9 0c     U.?...o...*.....
    2964:	bd 01 0a 0c f0 0e 13 0f 62 05 c9 0d d9 02 ee 06     ........b.......
    2974:	a1 02 3c 08 72 01 15 0d e0 08 8b 05 76 07 af 0b     ..<.r.......v...
    2984:	0f 01 0e 0d ed 09 55 08 23 0a 43 06 f4 0a cf 0c     ......U.#.C.....
    2994:	58 01 01 0d 0f 05 2f 02 84 09 d1 0e 0d 03 9d 08     X...../.........
    29a4:	68 0d b4 00 c1 0d ea 09 ec 04 04 07 92 06 2d 03     h.............-.
    29b4:	e1 0e 4b 0d bd 00 e3 02 8b 0d 8d 0c 1d 0e b2 0e     ..K.............
    29c4:	cb 0a 56 0d 33 08 9c 0b 60 06 3b 02 51 00 92 08     ..V.3...`.;.Q...
    29d4:	eb 0a bb 02 fd 08 a9 0a be 01 74 0b 8f 00 9b 04     ..........t.....
    29e4:	ca 0f af 00 30 0c 6d 02 2d 0f 35 0c 80 0c 54 0e     ....0.m.-.5...T.
    29f4:	ce 01 dc 02 3e 0f 8a 0a f3 07 2a 0a e8 02 84 0e     ....>.....*.....
    2a04:	98 02 88 0b 18 0e e2 04 05 01 fc 01 14 0d 07 0e     ................
    2a14:	cf 07 4a 06 8d 0b 70 0f f8 00 81 02 a5 0b ba 09     ..J...p.........
    2a24:	82 09 6e 0f 0f 0d cc 06 c6 0e 3a 07 70 04 c4 06     ..n.......:.p...
    2a34:	be 0f 38 01 f1 09 73 04 5b 07 15 0f 64 09 c4 00     ..8...s.[...d...
    2a44:	8e 0d f1 08 a3 08 15 01 bc 0b b3 0a 0f 09 8e 0e     ................
    2a54:	c8 00 03 09 8a 02 4c 05 b1 0e 29 0f 60 09 65 0e     ......L...).`.e.
    2a64:	7a 0e 3e 0f c6 08 9d 0e 2e 04 7d 05 4e 0d f1 0f     z.>.......}.N...
    2a74:	14 0d 62 01 06 06 08 08 1a 03 c4 02 54 0f fd 05     ..b.........T...
    2a84:	67 0f e8 01 2e 08 1b 08 d5 0f 8c 0e 28 01 42 02     g...........(.B.
    2a94:	41 00 a8 00 c3 03 03 0e 9a 06 64 0d 58 07 8d 0c     A.........d.X...
    2aa4:	2d 08 2d 0f b3 07 74 03 b6 01 ce 0d ec 0c 66 0b     -.-...t.......f.
    2ab4:	c2 03 77 01 21 07 07 0c cf 07 c4 07 bd 0c de 0b     ..w.!...........
    2ac4:	fc 0a b6 00 5c 04 55 05 16 01 56 0a 5b 0e 49 00     ....\.U...V.[.I.
    2ad4:	60 01 69 06 1b 01 34 09 6b 06 dd 05 1f 0d b7 05     `.i...4.k.......
    2ae4:	89 0c 47 00 81 02 23 0c 43 0c 96 0c 25 05 3d 04     ..G...#.C...%.=.
    2af4:	c2 04 4c 05 a8 0c a3 07 05 06 24 0c 95 0c ea 09     ..L.......$.....
    2b04:	0b 08 31 06 8c 0c 59 05 92 08 f9 02 a5 0a 63 02     ..1...Y.......c.
    2b14:	57 06 ce 09 72 07 10 07 d2 0f cd 08 64 0d f2 0c     W...r.......d...
    2b24:	1c 0e ee 06 ad 09 e6 0e ca 08 2e 03 5a 09 03 05     ............Z...

00002b34 <pubKeyP_4093_320>:
    2b34:	b5 09 00 0d 87 08 3b 05 d9 0f 5f 05 11 03 5f 04     ......;..._..._.
    2b44:	f0 0b b6 08 c0 00 03 05 d2 01 56 00 e5 0e 03 0f     ..........V.....
    2b54:	2f 05 33 02 1f 08 40 09 ee 02 64 08 5c 0e 3f 0f     /.3...@...d.\.?.
    2b64:	b4 05 a7 06 80 03 c7 04 cf 0f c6 0c e9 01 e3 0b     ................
    2b74:	c9 0a 07 04 69 08 8a 0a f5 0b 9d 09 dc 09 c3 04     ....i...........
    2b84:	5b 00 1e 0f 67 0b b9 05 9d 0b d4 0f b1 01 9f 04     [...g...........
    2b94:	a9 0f e6 07 c2 01 c1 06 c2 00 f1 06 bb 01 b4 0e     ................
    2ba4:	c4 0b e9 0d 06 01 73 09 87 08 d6 05 3a 04 12 0c     ......s.....:...
    2bb4:	42 0d 25 0e a3 00 69 0e e8 0d eb 08 9f 01 68 05     B.%...i.......h.
    2bc4:	66 0b 66 0c 80 09 12 08 2e 0f a2 06 0c 0a b6 0f     f.f.............
    2bd4:	1b 06 c1 0d 15 09 3f 02 90 05 c0 03 e4 02 54 0a     ......?.......T.
    2be4:	07 0b 78 04 c5 04 39 0d 02 07 d7 04 3e 00 eb 01     ..x...9.....>...
    2bf4:	3d 02 d5 05 4d 06 ea 0b 6a 09 bd 0a 67 0c 1f 01     =...M...j...g...
    2c04:	3e 04 bd 07 c9 06 f3 07 cb 06 a5 04 24 06 f7 0c     >...........$...
    2c14:	da 03 29 01 6f 00 12 07 92 00 50 0e 6e 05 59 08     ..).o.....P.n.Y.
    2c24:	85 00 38 06 55 04 8c 0d 1a 06 fd 0e 0d 07 5b 01     ..8.U.........[.
    2c34:	dc 07 e0 09 64 08 29 00 41 07 e3 0a 5c 04 2e 0a     ....d.).A...\...
    2c44:	d1 0f b0 06 9a 03 a3 01 18 06 a6 04 9c 0e 9b 0d     ................
    2c54:	77 0b 47 0d 0c 0e 7b 01 c8 0f f3 0c d9 03 5c 0d     w.G...{.......\.
    2c64:	1c 0e fc 06 57 06 9f 04 50 0f a6 07 21 06 91 05     ....W...P...!...
    2c74:	a0 0e 38 0f 13 01 c7 02 73 0b c2 06 8c 02 4a 0b     ..8.....s.....J.
    2c84:	75 0b c8 0d d0 03 b2 07 3a 06 3a 07 de 02 48 06     u.......:.:...H.
    2c94:	ba 0b 73 0e c4 02 53 09 c6 08 2a 02 f9 00 5f 0d     ..s...S...*..._.
    2ca4:	39 06 69 06 80 08 71 01 4c 07 26 03 25 09 3c 0e     9.i...q.L.&.%.<.
    2cb4:	04 01 17 08 2f 0f 6e 04 61 08 1a 00 9b 07 76 0a     ..../.n.a.....v.
    2cc4:	13 0a 2c 04 19 08 a3 05 c2 02 48 0b 39 0c 2f 0e     ..,.......H.9./.
    2cd4:	f8 09 dd 0b 6a 0f 7e 02 af 06 db 04 38 07 8a 09     ....j.~.....8...
    2ce4:	13 02 9f 07 c1 06 07 08 2f 07 7d 03 a8 04 83 0d     ......../.}.....
    2cf4:	0b 03 d4 09 0d 03 0f 04 b5 04 b4 0e 6d 02 60 0d     ............m.`.
    2d04:	9a 0b c1 0f a5 04 2b 06 65 01 cb 0f 9c 03 0e 0d     ......+.e.......
    2d14:	8a 0e 04 0d 25 05 15 07 de 02 65 06 e2 04 70 0d     ....%.....e...p.
    2d24:	92 0f c8 0f 7a 0e 19 04 d4 0b 91 02 35 0f c9 08     ....z.......5...
    2d34:	1d 04 1c 06 12 0e 95 09 41 0a f9 07 e5 09 f1 01     ........A.......
    2d44:	49 00 51 02 b5 07 db 07 77 09 e3 07 4d 0c 1e 0f     I.Q.....w...M...
    2d54:	73 00 e6 07 d2 08 62 07 b6 08 9b 05 19 08 ab 01     s.....b.........
    2d64:	3d 04 a5 07 51 0c 16 06 73 09 ec 04 a8 0c fc 01     =...Q...s.......
    2d74:	7c 0c 33 09 bc 06 90 08 72 03 c1 0f 2b 06 13 0e     |.3.....r...+...
    2d84:	4e 07 42 0b e4 07 f3 08 9b 03 91 01 0a 06 73 06     N.B...........s.
    2d94:	f1 0f 8d 03 eb 04 ed 03 3b 03 40 0a 42 04 e4 0a     ........;.@.B...
    2da4:	a8 0a d9 0c 00 01 de 09 b7 05 26 07 44 08 b1 01     ..........&.D...

00002db4 <prvKeyR2_4093_320>:
	...
    2e04:	00 00 01 00 00 00 00 00 00 00 00 00 00 00 00 00     ................
	...
    2e1c:	00 00 01 00 00 00 00 00 00 00 00 00 00 00 00 00     ................
    2e2c:	01 00 00 00 00 00 00 00 00 00 00 00 00 00 00 00     ................
	...
    2e6c:	01 00 00 00 00 00 00 00 00 00 00 00 00 00 00 00     ................
	...
    2ed4:	01 00 00 00 00 00 00 00 00 00 01 00 00 00 00 00     ................
	...
    2f58:	01 00 00 00 00 00 00 00 00 00 00 00 00 00 00 00     ................
    2f68:	01 00 00 00 00 00 00 00 00 00 00 00 00 00 00 00     ................
	...
    2fd4:	01 00 00 00 00 00 00 00 00 00 00 00 00 00 00 00     ................
	...
    2ff0:	00 00 01 00 00 00 00 00 00 00 00 00 00 00 00 00     ................
	...
    3030:	00 00 01 00                                         ....

00003034 <pubKeyA_4093_256>:
    3034:	1e 04 ce 06 c4 05 3c 09 d4 03 fb 0e 46 09 63 07     ......<.....F.c.
    3044:	fc 0a 6d 0e 00 05 95 02 2b 0e 01 06 72 08 f6 06     ..m.....+...r...
    3054:	4c 09 76 09 9f 04 7b 02 7f 03 bf 09 a8 01 d8 08     L.v...{.........
    3064:	96 0f 36 04 08 02 7f 0a 7a 0d 22 0f 07 04 25 03     ..6.....z."...%.
    3074:	83 00 d0 07 0e 07 08 04 d0 01 ac 09 50 0f 36 09     ............P.6.
    3084:	5a 0b f3 08 4c 09 0f 00 71 08 3b 05 c7 0b ec 0a     Z...L...q.;.....
    3094:	c0 00 72 0e 24 08 54 09 34 0f 2b 08 67 0a d2 02     ..r.$.T.4.+.g...
    30a4:	1b 09 d0 02 5c 0f 0c 01 21 0c 48 07 a4 08 bc 0f     ....\...!.H.....
    30b4:	60 0a 45 0b a4 03 d8 0a 64 00 f8 05 77 09 72 02     `.E.....d...w.r.
    30c4:	36 06 2f 06 2e 02 4c 06 89 0a 0d 01 f3 02 bf 0d     6./...L.........
    30d4:	c9 08 dd 0c 3a 06 81 04 ab 02 a5 0a 0f 07 c3 04     ....:...........
    30e4:	3b 05 a8 07 e3 0f 41 09 7a 00 d8 0f 4f 01 6b 0c     ;.....A.z...O.k.
    30f4:	bf 0e f9 01 82 0e 77 0d 68 0f 9b 05 4f 0f 03 0f     ......w.h...O...
    3104:	bb 0b ef 0e c8 0d 88 03 c9 02 5b 06 9e 09 10 04     ..........[.....
    3114:	fd 04 aa 01 52 0a d7 0a b1 02 ab 0d ab 0e dc 02     ....R...........
    3124:	3f 0d c2 06 db 06 65 06 52 0a 57 00 fc 0e ef 03     ?.....e.R.W.....
    3134:	dd 06 90 04 9b 0d 8c 08 d5 0c 22 09 2e 0c fc 03     ..........".....
    3144:	9e 02 98 09 da 06 3a 0d b3 07 b5 00 4b 09 e2 08     ......:.....K...
    3154:	2d 04 ee 01 36 04 a8 0a bf 09 41 06 85 02 65 0a     -...6.....A...e.
    3164:	fa 0d 39 00 a1 0e 4e 0d 2e 0f aa 03 20 02 94 01     ..9...N..... ...
    3174:	98 0a 6d 08 74 02 40 00 08 08 e4 0e 21 0c a9 0c     ..m.t.@.....!...
    3184:	3f 07 4e 09 0c 06 e2 03 dd 07 2d 07 d2 0f d8 02     ?.N.......-.....
    3194:	fa 0e 28 09 b8 07 c0 09 d2 01 38 04 e8 09 34 0f     ..(.......8...4.
    31a4:	8b 0b 8d 0d 8a 02 d1 0d 14 05 62 0d 11 08 3c 03     ..........b...<.
    31b4:	a6 02 65 09 c3 03 b0 01 af 0f aa 07 e4 05 0d 07     ..e.............
    31c4:	65 06 35 01 87 09 83 06 0c 0f ef 0c 77 08 d2 00     e.5.........w...
    31d4:	85 0d 10 01 2b 03 af 0d 3a 04 b8 0a 70 01 c0 00     ....+...:...p...
    31e4:	27 03 d0 03 78 02 78 01 46 09 83 0e 11 03 33 06     '...x.x.F.....3.
    31f4:	b1 01 bd 08 10 08 3e 0c be 0a dc 02 c5 06 4b 08     ......>.......K.
    3204:	87 0e f4 0f af 04 3a 0b f8 0d 59 0e d6 06 94 03     ......:...Y.....
    3214:	19 06 f3 0b 6c 0e 08 06 0c 03 43 00 a4 0d df 0a     ....l.....C.....
    3224:	2f 03 4d 06 9e 0c 93 03 2e 0e f2 08 04 01 4b 0b     /.M...........K.

00003234 <pubKeyP_4093_256>:
    3234:	f6 0d 42 0e 6f 0d 0d 0c b4 03 ea 0a f9 0e 04 0c     ..B.o...........
    3244:	cf 05 35 0d 83 01 3d 04 ea 01 4d 08 10 0d e0 0d     ..5...=...M.....
    3254:	85 0d 7a 00 ab 05 56 09 28 06 b0 08 9a 06 64 0c     ..z...V.(.....d.
    3264:	a9 07 c2 09 0f 04 29 04 31 06 41 0a cb 0f 72 07     ......).1.A...r.
    3274:	e7 07 9a 00 61 07 46 0e a0 08 70 03 79 03 75 05     ....a.F...p.y.u.
    3284:	43 0a c4 02 c4 0e 13 01 af 07 d8 06 d6 0d 0f 07     C...............
    3294:	a5 01 28 01 e2 08 d0 0f dd 0c 85 0b 21 01 9d 09     ..(.........!...
    32a4:	ec 04 0d 04 c5 06 7e 0a c3 0c f4 09 0a 08 f0 05     ......~.........
    32b4:	00 05 be 0e 71 0e 61 03 98 00 6b 0d b2 02 b7 0d     ....q.a...k.....
    32c4:	bf 0e 5d 0d 1f 02 64 09 59 00 bd 0d c5 0d 10 05     ..]...d.Y.......
    32d4:	51 00 26 02 d3 06 32 06 13 02 98 0a ef 07 b0 0b     Q.&...2.........
    32e4:	18 07 a1 05 a0 08 f0 02 ee 09 30 0d b8 05 76 01     ..........0...v.
    32f4:	d3 05 03 0d 02 09 77 0d ed 03 e5 08 f3 02 01 0a     ......w.........
    3304:	a4 00 e3 0d 07 01 71 0d d5 0a 80 0e fe 07 a8 0d     ......q.........
    3314:	92 04 ce 04 32 00 ec 02 40 00 50 0e 75 06 17 08     ....2...@.P.u...
    3324:	fb 0d 95 0f e8 08 6a 06 12 0d f9 06 3b 01 ac 0e     ......j.....;...
    3334:	85 04 9f 0b 48 06 c1 05 20 00 31 07 d8 09 15 09     ....H... .1.....
    3344:	df 0a 2b 0a 9f 03 70 0b 99 04 99 02 5e 04 08 02     ..+...p.....^...
    3354:	a9 00 ea 09 e7 05 19 02 ee 0e cf 09 b0 0f b5 09     ................
    3364:	21 00 28 0d 3a 0e 74 0d ed 06 5f 04 81 0e 1a 03     !.(.:.t..._.....
    3374:	64 06 87 0f c6 03 51 07 cc 00 8b 06 b3 01 d4 01     d.....Q.........
    3384:	fc 0c fe 0b 65 08 cd 0d 77 03 dc 02 b7 03 d3 0d     ....e...w.......
    3394:	09 0a 1d 0e 47 08 8f 0e a0 01 48 06 cc 07 f9 02     ....G.....H.....
    33a4:	83 09 ce 02 2a 0d 92 0d 0b 04 6c 0e 74 07 d9 02     ....*.....l.t...
    33b4:	78 00 ed 0b 9f 07 e7 0f c6 06 40 0b 79 0c 0c 03     x.........@.y...
    33c4:	07 0a 53 08 64 08 f3 07 50 0d a0 03 84 02 49 08     ..S.d...P.....I.
    33d4:	86 00 62 08 18 0e c4 05 87 08 f9 09 e0 07 14 0e     ..b.............
    33e4:	02 08 ea 0a 56 0f e6 07 a2 0f 55 02 c1 0c be 0f     ....V.....U.....
    33f4:	a7 0c d7 05 8e 08 8c 02 11 0e ef 03 e0 0c 59 03     ..............Y.
    3404:	ad 03 76 00 73 09 59 0a 8a 09 d1 04 49 0c 16 05     ..v.s.Y.....I...
    3414:	1c 0e 81 04 96 06 1d 03 69 03 11 02 13 0a 75 0c     ........i.....u.
    3424:	80 09 fa 0f 03 03 ac 0f 0c 0e 22 03 1e 05 7d 01     .........."...}.

00003434 <prvKeyR2_4093_256>:
	...
    3460:	00 00 01 00 00 00 00 00 00 00 00 00 00 00 00 00     ................
	...
    34d4:	01 00 00 00 00 00 00 00 00 00 00 00 00 00 01 00     ................
	...
    34f0:	00 00 01 00 00 00 00 00 00 00 00 00 00 00 01 00     ................
	...
    3520:	01 00 00 00 00 00 00 00 00 00 00 00 00 00 00 00     ................
	...
    3548:	00 00 01 00 00 00 00 00 00 00 00 00 00 00 00 00     ................
	...
    35ec:	00 00 01 00 00 00 00 00 00 00 00 00 00 00 00 00     ................
	...
    3624:	00 00 01 00 00 00 00 00 00 00 00 00 00 00 00 00     ................

00003634 <pubKeyA_4093_192>:
    3634:	d1 04 d3 07 0c 03 e4 06 85 0f 88 08 57 0c fa 0a     ............W...
    3644:	f2 0b f7 05 05 0b 25 09 9e 03 03 09 ad 0e b2 05     ......%.........
    3654:	87 03 99 02 3d 03 da 0d 13 08 06 01 1c 0e ae 04     ....=...........
    3664:	44 0f f1 02 ac 04 4b 06 24 0e 51 02 ac 03 01 0f     D.....K.$.Q.....
    3674:	46 03 4f 04 5a 00 d1 0f fd 06 e0 03 f5 07 ae 0f     F.O.Z...........
    3684:	e6 05 8b 0a ec 05 84 0c 81 02 e7 0e 7f 02 55 0b     ..............U.
    3694:	84 09 ca 0b 94 0b 62 02 6b 02 aa 00 70 00 18 0b     ......b.k...p...
    36a4:	40 04 d4 04 52 00 5f 02 38 0d 54 02 a5 06 ef 0b     @...R._.8.T.....
    36b4:	a0 00 d5 05 af 0e df 09 5c 0c 95 0a 46 09 1c 0e     ........\...F...
    36c4:	a8 04 55 07 51 07 fa 0c d1 01 d2 0a d7 08 54 04     ..U.Q.........T.
    36d4:	1d 0e e3 0a 56 04 d2 0d 25 09 b3 07 30 09 68 00     ....V...%...0.h.
    36e4:	80 09 2e 08 59 0d cc 02 0f 0a 2d 01 e7 03 77 0c     ....Y.....-...w.
    36f4:	55 04 5c 09 c7 09 e9 06 9b 04 c6 0b 59 0b b1 06     U.\.........Y...
    3704:	74 01 f3 0f bb 06 b8 04 17 0f 84 02 70 0f cc 0d     t...........p...
    3714:	64 02 be 07 32 02 86 09 d8 06 32 08 e2 0a 5d 02     d...2.....2...].
    3724:	97 04 e4 04 46 03 99 0f d9 02 8f 05 cc 08 33 0f     ....F.........3.
    3734:	25 02 9a 0b 47 0b 78 0f 32 0e ce 02 8d 0f 7c 0b     %...G.x.2.....|.
    3744:	d7 0c 69 0d c9 0c 33 0c 7f 0b ef 0a ba 0c 6c 07     ..i...3.......l.
    3754:	7c 07 96 04 59 06 f0 0e aa 0c 8f 06 ea 03 ec 05     |...Y...........
    3764:	7f 02 a0 0f 11 0f 61 0a be 0d e7 07 11 07 e4 00     ......a.........
    3774:	52 04 d1 06 90 06 90 00 9a 0a ab 0c 1a 0c 50 09     R.............P.
    3784:	be 05 3a 0f f8 0c b3 02 80 07 3f 0e 54 02 37 01     ..:.......?.T.7.
    3794:	5f 0f eb 09 76 09 9c 0f 37 00 f5 07 84 0f dc 00     _...v...7.......
    37a4:	17 0a 9d 0c a6 04 f0 0b d9 04 c1 04 58 0f 0b 05     ............X...

000037b4 <pubKeyP_4093_192>:
    37b4:	10 0d 5e 00 7d 0e 45 0e 25 01 05 0b 3b 08 3a 0d     ..^.}.E.%...;.:.
    37c4:	fa 00 94 04 a2 06 43 0e ba 0b ae 04 e0 0a d8 0d     ......C.........
    37d4:	1f 08 4f 04 59 0e ce 0c 11 08 9f 09 19 0d ba 0c     ..O.Y...........
    37e4:	9d 0b 43 05 a1 03 b3 0c 3c 04 a8 01 7e 02 31 09     ..C.....<...~.1.
    37f4:	d6 04 f0 08 84 00 e8 0a bc 0a 99 08 a0 0d 10 06     ................
    3804:	bd 04 3d 0c 19 02 17 0f d9 0d 09 0c 29 08 be 03     ..=.........)...
    3814:	9a 02 89 05 c0 0b be 0c 58 09 33 00 65 0e c0 0e     ........X.3.e...
    3824:	bf 0f d8 0f 2c 07 61 06 d2 0e 79 0a 32 07 70 05     ....,.a...y.2.p.
    3834:	0a 0a 49 03 dc 08 b2 05 ce 0c 92 01 31 0d 28 0d     ..I.........1.(.
    3844:	c0 0c 21 0a b0 04 b4 06 f4 02 84 0d 28 03 e3 00     ..!.........(...
    3854:	2d 0a 3f 02 c0 05 25 02 b4 03 c2 0d 5f 07 5d 07     -.?...%....._.].
    3864:	83 0d 1b 0e 1e 05 71 03 f6 05 5e 0a 1a 00 c0 0e     ......q...^.....
    3874:	e5 00 e4 02 07 01 d1 0f cb 0f 94 03 a2 0f 3e 0c     ..............>.
    3884:	eb 02 0f 03 3a 0a 07 05 8f 08 e8 0d ee 06 ad 05     ....:...........
    3894:	15 0d 53 0c e1 05 0d 07 4f 0b 98 0a 19 0f ff 0a     ..S.....O.......
    38a4:	d1 05 54 0c fc 0f 5a 06 07 02 47 05 5b 0f aa 03     ..T...Z...G.[...
    38b4:	af 0b 90 00 f9 01 a0 05 22 04 bd 09 b8 01 07 00     ........".......
    38c4:	78 0e 51 0b 82 06 a9 06 67 0c f3 0a fc 09 90 0e     x.Q.....g.......
    38d4:	4e 09 fe 0c 84 0f 93 0d a7 04 f6 08 3e 0f cf 0e     N...........>...
    38e4:	72 07 28 0d 3a 0d 65 0d 9e 08 98 01 d8 0f b5 02     r.(.:.e.........
    38f4:	40 07 89 0c 9c 0f 46 09 18 0f 15 0a 61 08 0e 0f     @.....F.....a...
    3904:	5b 0c 13 0d ee 04 bf 0f 91 05 b1 03 65 08 91 09     [...........e...
    3914:	6d 0b 82 0f 27 05 3d 04 8e 0b 88 0c 1a 06 d1 06     m...'.=.........
    3924:	34 00 5d 03 1d 0e 56 0f eb 09 df 0e 1d 0e d2 0b     4.]...V.........

00003934 <prvKeyR2_4093_192>:
	...
    3974:	00 00 01 00 00 00 00 00 00 00 00 00 00 00 00 00     ................
	...
    39b4:	00 00 01 00 00 00 00 00 00 00 00 00 01 00 00 00     ................
    39c4:	00 00 00 00 00 00 01 00 00 00 00 00 00 00 00 00     ................
	...
    3a14:	00 00 01 00 01 00 00 00 00 00 00 00 00 00 00 00     ................
	...
    3a54:	00 00 01 00 00 00 00 00 00 00 00 00 01 00 00 00     ................
	...
    3ab0:	01 00 00 00                                         ....

00003ab4 <pubKeyA_12289_512>:
    3ab4:	ee 2a 61 15 37 2f 5d 0a 7e 02 e3 08 42 04 0e 01     .*a.7/].~...B...
    3ac4:	22 0d de 06 0d 1f 5f 27 5d 1f 17 26 8b 1b c3 06     "....._']..&....
    3ad4:	c9 19 91 1d 57 11 0a 2e 36 29 dc 2d 71 2f fe 05     ....W...6).-q/..
    3ae4:	fe 2c 41 03 c6 0c 53 07 98 11 fa 2b 8a 0b a6 03     .,A...S....+....
    3af4:	75 22 1a 04 6a 1d a5 0c 48 07 cf 25 c1 17 43 26     u"..j...H..%..C&
    3b04:	7f 07 d3 2a 5e 0d 99 0d 93 2f e2 25 ca 26 f1 2a     ...*^..../.%.&.*
    3b14:	00 10 e4 0a c2 10 65 08 e9 1c 0a 22 f9 23 17 1d     ......e....".#..
    3b24:	3b 23 a0 16 6a 2e af 20 22 2e d1 09 5a 1b 40 00     ;#..j.. "...Z.@.
    3b34:	a2 0f 47 22 67 12 b9 16 73 02 48 2b c8 1d fc 12     ..G"g...s.H+....
    3b44:	37 0f b8 0d 55 0d da 1a 39 26 ae 10 cc 04 ae 07     7...U...9&......
    3b54:	fb 00 48 1c e5 1a 38 14 13 20 86 25 f1 26 69 26     ..H...8.. .%.&i&
    3b64:	75 02 eb 13 a0 0a f3 0b b9 1d 09 13 02 09 e0 1e     u...............
    3b74:	fc 1f 77 16 c0 1f 1f 0a 77 1e 91 07 22 21 21 28     ..w.....w..."!!(
    3b84:	54 1f 49 22 14 15 b2 05 1d 28 65 05 69 00 05 26     T.I".....(e.i..&
    3b94:	1c 00 ee 2c 18 10 96 08 c9 2b b9 01 5b 06 ca 29     ...,.....+..[..)
    3ba4:	24 22 c7 1f a0 07 62 13 c4 27 2e 21 35 04 82 18     $"....b..'.!5...
    3bb4:	57 2f a7 03 42 23 0d 09 ca 1b 60 1c be 1e 7f 01     W/..B#....`.....
    3bc4:	6a 00 7f 23 53 13 f6 19 14 2b 99 0a 8c 1f f6 24     j..#S....+.....$
    3bd4:	6b 27 dd 28 5a 15 12 01 d9 07 20 27 7a 0c 63 1f     k'.(Z..... 'z.c.
    3be4:	f4 0e d0 2e 3b 04 9c 29 71 08 f5 22 0e 2a 6b 2f     ....;..)q..".*k/
    3bf4:	53 1c 1a 1e ac 0c 66 2f 19 06 28 1c c5 08 0a 07     S.....f/..(.....
    3c04:	c1 1b d6 13 d2 1d 49 0a 1e 01 31 12 56 06 96 2e     ......I...1.V...
    3c14:	07 2f 33 20 60 25 e6 04 71 1b 30 05 6a 0a 80 01     ./3 `%..q.0.j...
    3c24:	6a 25 98 1f 35 06 76 11 6c 22 75 0b a6 2f be 12     j%..5.v.l"u../..
    3c34:	b4 2c d6 0b c6 11 ce 14 16 0f 2f 13 77 04 d5 09     .,......../.w...
    3c44:	b3 20 b7 2a 49 17 3b 23 90 10 7f 1f b0 12 39 08     . .*I.;#......9.
    3c54:	79 0f 77 10 96 1b cd 1a b2 10 06 1c dc 2b cc 03     y.w..........+..
    3c64:	40 07 5f 21 69 12 07 0a 08 2c e1 08 31 2e d4 15     @._!i....,..1...
    3c74:	9f 1a 1a 0f 95 1f f5 17 74 1c 82 20 cf 16 d0 05     ........t.. ....
    3c84:	4c 2c 8c 1b d9 0a 1d 13 7d 13 07 02 02 19 e2 24     L,......}......$
    3c94:	2c 2e 0b 2a 6d 26 cb 2c 50 06 0b 07 89 29 12 0e     ,..*m&.,P....)..
    3ca4:	63 20 8a 2e 72 0e 0f 0a c2 14 b9 14 04 17 52 28     c ..r.........R(
    3cb4:	27 26 40 23 1d 2a 44 26 df 12 ca 1e f4 2a 8a 1f     '&@#.*D&.....*..
    3cc4:	bb 04 4d 24 8f 15 1c 10 73 26 56 0e 83 27 90 19     ..M$....s&V..'..
    3cd4:	ae 2f 26 28 2c 0e 62 21 b4 11 e0 20 d5 22 e6 14     ./&(,.b!... ."..
    3ce4:	bf 01 5b 08 5f 2b 8b 0a cd 03 82 01 e2 1b 05 0d     ..[._+..........
    3cf4:	0a 0c a1 17 77 01 ac 1e 64 25 53 07 9d 29 df 0e     ....w...d%S..)..
    3d04:	18 0a 6d 15 f7 0b 92 21 7a 1d 46 14 39 20 9d 02     ..m....!z.F.9 ..
    3d14:	5f 07 6a 26 fd 19 56 2d 03 14 76 05 db 0a c8 06     _.j&..V-..v.....
    3d24:	d2 09 73 04 d8 06 46 16 d2 2a 5b 15 01 1c fe 2d     ..s...F..*[....-
    3d34:	ca 06 85 24 c5 16 78 09 88 01 ce 12 71 13 b3 1c     ...$..x.....q...
    3d44:	16 00 01 23 d4 0a 04 08 95 13 a3 03 8b 2f fd 05     ...#........./..
    3d54:	de 12 ed 02 5f 04 a7 29 04 05 7e 1b 30 1c 00 09     ...._..)..~.0...
    3d64:	cb 0d d9 10 ac 27 85 04 a0 0e b8 2f 5a 14 90 18     .....'...../Z...
    3d74:	15 08 0f 2a 8a 26 14 2a f9 0b 12 1c 2a 24 7d 0a     ...*.&.*....*$}.
    3d84:	6b 16 7c 11 d5 02 d8 11 81 1b 32 2b a2 14 d8 1f     k.|.......2+....
    3d94:	0c 15 dd 1b 87 02 03 2a 9e 2c 86 2b 54 09 5d 26     .......*.,.+T.]&
    3da4:	10 05 f6 0d 1f 28 cf 2e f7 0a f1 27 e2 15 83 2f     .....(.....'.../
    3db4:	82 2c 8e 0c 44 11 db 16 f3 10 7b 1c 5b 20 cf 0d     .,..D.....{.[ ..
    3dc4:	09 2a 21 2c dd 0b e4 24 c4 2b e3 26 82 05 00 08     .*!,...$.+.&....
    3dd4:	64 1f 26 1a 0c 09 34 09 34 15 8a 2c 37 2c 3d 28     d.&...4.4..,7,=(
    3de4:	98 15 f1 14 9c 0e a3 1a eb 21 be 0a 81 28 f7 15     .........!...(..
    3df4:	8e 0d 9f 24 72 0c 3b 1f c0 1b 45 2e ad 07 3d 23     ...$r.;...E...=#
    3e04:	c1 28 51 25 a8 16 31 00 7a 0e 6d 1f 19 19 59 0a     .(Q%..1.z.m...Y.
    3e14:	9b 17 c5 08 c9 16 ec 1f 2f 0a cb 25 20 01 83 23     ......../..% ..#
    3e24:	9a 0d 84 02 6f 06 0d 17 46 2a c8 1f bd 07 14 2b     ....o...F*.....+
    3e34:	75 24 4b 0f 1d 28 0e 0f a9 1c b9 2c a2 21 0a 28     u$K..(.....,.!.(
    3e44:	56 0d 40 08 0d 0b ef 08 39 17 07 04 a7 0e 04 19     V.@.....9.......
    3e54:	11 06 70 08 24 05 8e 16 a4 0a 47 2b e6 26 46 08     ..p.$.....G+.&F.
    3e64:	a1 12 83 0f 81 09 c5 2f 4c 0b 66 0c c6 20 1e 2b     ......./L.f.. .+
    3e74:	ed 23 b5 03 0a 11 b6 29 c3 0f 09 13 86 24 7a 13     .#.....).....$z.
    3e84:	58 03 1d 10 44 29 90 1c 00 03 dd 10 8d 10 1f 14     X...D)..........
    3e94:	05 2e 4d 0f e8 00 4e 27 cd 16 54 0b 32 2a 39 23     ..M...N'..T.2*9#
    3ea4:	55 21 ea 13 3a 11 35 2a 18 0e 7d 0f 2a 22 5a 1d     U!..:.5*..}.*"Z.

00003eb4 <pubKeyP_12289_512>:
    3eb4:	f0 1a 8d 20 3e 1c 5a 2c 9d 14 d1 10 f6 2c 2f 22     ... >.Z,.....,/"
    3ec4:	7c 0a fe 0c 9e 21 3f 27 e8 1f 44 0a 6c 2c 1e 26     |....!?'..D.l,.&
    3ed4:	bf 04 7b 01 b2 0a 2b 01 6b 28 6e 13 4f 0c b1 09     ..{...+.k(n.O...
    3ee4:	0a 2e d2 08 f0 24 3b 0b 54 18 5c 12 78 1b 33 0e     .....$;.T.\.x.3.
    3ef4:	df 29 d7 14 c0 11 b9 12 ae 1e 28 1f 4f 22 1a 1c     .)........(.O"..
    3f04:	a9 05 aa 0e fd 09 5e 04 33 16 a5 03 6c 27 59 06     ......^.3...l'Y.
    3f14:	2b 1e 18 01 1d 01 15 2d e0 0c 31 1c f1 13 f8 1c     +......-..1.....
    3f24:	af 06 70 1d 0c 1b 5d 2d 37 18 9e 12 ee 02 b7 1a     ..p...]-7.......
    3f34:	8e 1c 78 27 dc 25 fe 25 52 16 bc 2e 3d 06 4f 20     ..x'.%.%R...=.O 
    3f44:	60 0c b7 03 8d 25 f1 1a f9 0c f5 06 34 14 26 2b     `....%......4.&+
    3f54:	26 2d e6 04 c9 0e 52 18 20 2a 1a 2f e4 10 4f 0a     &-....R. *./..O.
    3f64:	f3 27 4f 2d 61 28 d4 13 8b 21 d3 25 50 27 e9 1c     .'O-a(...!.%P'..
    3f74:	b8 28 40 2f dc 09 ce 1b e4 14 5f 19 31 09 df 11     .(@/......_.1...
    3f84:	6f 17 47 24 bc 25 2b 14 13 1d 5f 05 c2 26 27 24     o.G$.%+..._..&'$
    3f94:	e0 1e f0 29 62 17 37 2d 80 19 bf 11 99 22 a5 03     ...)b.7-....."..
    3fa4:	d5 0a d7 0e 50 0d 65 0e 58 29 5c 06 a2 00 91 13     ....P.e.X)\.....
    3fb4:	51 0f 0c 17 a3 1d 14 25 1e 0e 7f 1f fb 1f f4 2f     Q......%......./
    3fc4:	03 10 aa 03 e5 16 1a 1c 61 18 d4 18 05 0c 73 06     ........a.....s.
    3fd4:	d2 0f 3a 11 54 18 41 0f 11 0d 79 2c e0 12 64 04     ..:.T.A...y,..d.
    3fe4:	3f 28 70 25 db 08 ef 17 c7 1a 07 19 eb 2e 89 2a     ?(p%...........*
    3ff4:	62 02 3c 27 f0 28 c9 2e 46 26 57 10 05 21 33 0d     b.<'.(..F&W..!3.
    4004:	5f 19 d5 25 62 0a aa 1a ef 0e 2c 1b 79 2c 47 25     _..%b.....,.y,G%
    4014:	2e 09 d1 02 e3 2a 43 03 e1 22 e0 12 94 17 c0 28     .....*C..".....(
    4024:	e6 10 3b 0e b9 2a 05 12 e8 11 f4 28 c6 04 40 12     ..;..*.....(..@.
    4034:	21 0c f2 07 52 23 f3 11 ec 1a 18 2a e8 02 ae 0f     !...R#.....*....
    4044:	46 1a 4c 1a 5d 22 64 1d 4f 2e 6a 08 93 24 8e 04     F.L.]"d.O.j..$..
    4054:	93 08 da 2b 0b 1a 35 02 e2 2b d9 2f 27 13 b1 12     ...+..5..+./'...
    4064:	dc 0f 23 2a e5 1d 79 24 88 0a 33 1f c3 2e df 17     ..#*..y$..3.....
    4074:	a4 13 4a 0b 99 0c 9e 2a 1a 06 be 02 ee 28 d5 13     ..J....*.....(..
    4084:	06 2a 4b 22 bc 1b da 27 f7 29 7c 05 1d 03 47 22     .*K"...'.)|...G"
    4094:	e7 03 d3 24 0b 25 62 07 ea 25 ca 2e d0 20 d0 2a     ...$.%b..%... .*
    40a4:	39 1c 8c 15 dc 1a 98 06 ec 01 94 27 28 22 a3 29     9..........'(".)
    40b4:	81 11 81 2c 60 11 2b 22 0d 21 61 2f cb 16 fc 26     ...,`.+".!a/...&
    40c4:	97 0d a5 28 a9 18 66 21 64 02 97 13 69 28 c0 1f     ...(..f!d...i(..
    40d4:	22 22 da 0d b7 2e ae 0f 46 18 c9 00 78 01 42 07     ""......F...x.B.
    40e4:	6b 12 fc 0f e6 0e da 2e 27 1e 32 0a b5 0a b1 29     k.......'.2....)
    40f4:	a6 2d c8 14 8e 0c 6b 19 d4 02 01 2c 28 00 08 0f     .-....k....,(...
    4104:	17 07 7c 16 3c 15 9a 28 a4 0d 90 12 21 17 31 00     ..|.<..(....!.1.
    4114:	66 05 d0 1b 6f 01 5e 02 aa 09 c6 29 e6 2c 67 06     f...o.^....).,g.
    4124:	0b 0f 24 2d 50 2e 2d 14 26 10 78 03 bd 22 cd 02     ..$-P.-.&.x.."..
    4134:	b3 22 8b 01 fa 0c f5 05 ae 2e 6d 12 1f 11 76 24     ."........m...v$
    4144:	46 28 b3 20 e3 2e 46 09 5e 22 ae 1e 65 01 3a 03     F(. ..F.^"..e.:.
    4154:	ab 0a fe 01 a5 07 99 29 0b 0a 3c 2f 52 1a 50 08     .......)..</R.P.
    4164:	61 1a 67 25 20 2e 80 14 d3 1a 80 08 b8 00 b0 04     a.g% ...........
    4174:	93 2e 36 07 cd 16 9c 10 ed 17 83 15 aa 15 18 07     ..6.............
    4184:	55 0d a7 23 39 19 c9 0e 40 2b 66 21 39 22 cb 2a     U..#9...@+f!9".*
    4194:	84 13 5e 1a 5d 0a d8 14 e3 28 ae 09 f3 0f 2c 0b     ..^.]....(....,.
    41a4:	95 01 11 20 3c 24 0f 24 14 13 6e 0a cd 19 a4 16     ... <$.$..n.....
    41b4:	2b 1d bf 01 8a 21 e4 10 0f 11 52 24 80 02 73 26     +....!....R$..s&
    41c4:	b6 17 89 13 8b 14 01 05 7d 2a c1 13 da 10 8a 2b     ........}*.....+
    41d4:	0b 20 a4 09 0e 25 e5 0c 35 00 91 27 25 0e 2b 29     . ...%..5..'%.+)
    41e4:	d3 11 1a 1c cd 27 0a 0e 32 10 12 11 c0 0f 62 05     .....'..2.....b.
    41f4:	14 1a 81 13 3f 26 f7 17 ca 2f b9 0e e6 07 7d 13     ....?&.../....}.
    4204:	9b 02 36 15 16 16 a3 14 d8 21 e2 08 a3 1e d0 21     ..6......!.....!
    4214:	0c 28 1f 27 a1 06 0e 16 ea 06 c5 15 04 2a 07 1e     .(.'.........*..
    4224:	e9 13 e2 20 57 2f 0f 09 13 28 4b 16 eb 19 63 1d     ... W/...(K...c.
    4234:	9c 0a f4 03 8e 19 14 20 61 00 76 1a 22 1e 9e 1b     ....... a.v."...
    4244:	bc 00 53 19 3f 20 39 05 73 23 38 25 d6 2d c6 2a     ..S.? 9.s#8%.-.*
    4254:	56 2f 74 01 af 28 3e 26 f4 2c 29 28 b1 2b 84 1c     V/t..(>&.,)(.+..
    4264:	a6 1e cc 24 c1 02 9e 26 6a 2c 05 02 54 27 6a 05     ...$...&j,..T'j.
    4274:	b0 01 da 2b ed 1d d2 25 59 0f 53 1b 33 0d 62 09     ...+...%Y.S.3.b.
    4284:	c9 0a 24 29 bb 06 fc 29 8f 21 a9 22 09 0e 01 05     ..$)...).!."....
    4294:	76 0d 0e 1f 4c 15 22 28 54 27 c2 19 7d 04 db 25     v...L."(T'..}..%
    42a4:	2f 00 83 2d 68 1f 6f 1a a6 10 9b 01 98 07 c9 0e     /..-h.o.........

000042b4 <prvKeyR2_12289_512>:
    42b4:	76 02 0b 03 3b 06 2d 1c bf 2c b0 1a cf 29 2d 2e     v...;.-..,...)-.
    42c4:	7c 2f 57 2d 95 0e 18 14 d6 0d c1 08 19 23 25 19     |/W-.........#%.
    42d4:	42 27 c9 05 43 0e 15 2c 83 1f a5 1d 57 1d b8 0c     B'..C..,....W...
    42e4:	cc 1e 0f 19 2a 03 60 0c 7f 1c c5 0e b2 25 d7 07     ....*.`......%..
    42f4:	c5 15 d3 2f bb 1d ba 09 ab 1f c7 1a f3 23 ba 02     .../.........#..
    4304:	c3 26 95 0f a2 28 58 1c ad 04 02 20 19 13 7a 16     .&...(X.... ..z.
    4314:	b4 28 e0 28 e5 03 58 03 20 19 dd 2d 93 16 33 08     .(.(..X. ..-..3.
    4324:	16 1f ba 15 1f 16 e5 26 dc 08 37 0d 29 05 b8 04     .......&..7.)...
    4334:	e9 00 91 22 8f 19 d3 01 89 21 15 0a 07 28 62 29     ...".....!...(b)
    4344:	ee 00 30 0d a4 02 70 08 f8 1a 19 14 e3 05 68 05     ..0...p.......h.
    4354:	ef 26 80 25 63 21 ef 2c 9f 23 5c 1d 9f 13 35 04     .&.%c!.,.#\...5.
    4364:	2d 0d 79 13 73 04 59 02 42 23 06 12 f5 10 ff 0a     -.y.s.Y.B#......
    4374:	a7 26 f4 14 cb 03 ff 22 1e 26 c0 09 69 22 e1 1b     .&.....".&..i"..
    4384:	35 17 fa 1d 27 27 d8 15 1a 0e 52 14 a1 24 8b 19     5...''....R..$..
    4394:	aa 02 94 0e 66 22 36 02 2e 26 6d 28 2c 05 f1 1c     ....f"6..&m(,...
    43a4:	08 0d 06 01 1e 1e 64 11 99 07 33 2b 5d 01 1d 16     ......d...3+]...
    43b4:	96 18 bb 08 2c 04 ab 11 9a 05 6d 10 16 01 27 12     ....,.....m...'.
    43c4:	92 09 47 09 06 03 4c 20 1a 19 d7 18 5b 17 12 10     ..G...L ....[...
    43d4:	8b 23 9e 13 cf 0d 17 28 47 1c 37 1e 96 25 a7 2d     .#.....(G.7..%.-
    43e4:	a8 28 ef 02 42 21 f1 27 16 2c a4 2a 48 23 69 15     .(..B!.'.,.*H#i.
    43f4:	1d 07 75 19 23 1e 94 0b d0 0d 52 01 30 1e aa 22     ..u.#.....R.0.."
    4404:	57 0e 06 27 c9 27 96 05 27 22 34 23 f5 28 42 2b     W..'.'..'"4#.(B+
    4414:	01 1d 0b 01 30 05 ae 28 d7 0b 40 24 16 29 b8 0c     ....0..(..@$.)..
    4424:	8b 1f cc 1c 9e 09 c0 1c 16 24 8f 18 4d 29 90 12     .........$..M)..
    4434:	c6 0e 45 0d 0e 29 b9 16 3f 13 fc 09 05 0f 48 15     ..E..)..?.....H.
    4444:	16 0f 81 0b 5d 26 00 16 38 0b f4 14 c5 27 64 2c     ....]&..8....'d,
    4454:	3e 2a 1b 2f 12 17 5e 25 15 14 87 2c e9 1d 19 1a     >*./..^%...,....
    4464:	d7 17 d5 18 96 25 2b 12 0d 0b d1 29 54 1e 24 28     .....%+....)T.$(
    4474:	4e 12 50 12 82 18 66 24 59 12 bf 02 89 22 d0 1e     N.P...f$Y...."..
    4484:	6a 03 04 29 eb 0f 23 11 53 01 09 05 48 29 3b 0f     j..)..#.S...H);.
    4494:	e1 01 13 0a 3f 23 44 0e e2 29 f7 2f 52 2f c0 27     ....?#D..)./R/.'
    44a4:	4a 0f 8c 07 44 26 e8 15 a8 10 be 24 bf 21 6c 15     J...D&.....$.!l.
    44b4:	de 23 04 1f 85 15 04 13 9b 1a 08 18 94 21 a4 2e     .#...........!..
    44c4:	0e 18 4f 2f 9d 1a 63 28 73 05 6a 1b 1c 0f e4 0b     ..O/..c(s.j.....
    44d4:	b1 1d 86 10 ee 22 91 1b b9 03 e1 17 e3 28 ab 1a     .....".......(..
    44e4:	9f 0b b6 22 60 06 a9 0c 39 2c d5 05 2d 1d 50 1b     ..."`...9,..-.P.
    44f4:	55 2e a5 29 7a 26 f6 2d b3 16 94 1b 1e 06 c9 05     U..)z&.-........
    4504:	b2 15 60 14 b3 18 63 19 44 03 4f 0a de 11 88 08     ..`...c.D.O.....
    4514:	a3 27 9b 1c 58 23 57 2f 84 1b 97 09 98 2f df 06     .'..X#W/...../..
    4524:	a7 0f 78 0f c8 23 b1 1d c1 25 77 21 67 03 3b 17     ..x..#...%w!g.;.
    4534:	51 1f 0a 22 96 01 36 09 2b 0e ff 05 06 18 e8 2e     Q.."..6.+.......
    4544:	ee 03 47 2f 7e 0e 43 17 94 1d ed 0c 97 21 2d 0c     ..G/~.C......!-.
    4554:	4f 2e c8 26 23 20 c2 1d 36 15 bd 1e 37 16 db 0b     O..&# ..6...7...
    4564:	b8 0d b0 28 6c 00 c0 24 5b 11 59 11 ee 25 e6 17     ...(l..$[.Y..%..
    4574:	ed 02 d4 0d 3f 1a 8c 27 96 07 1d 14 45 2d 19 11     ....?..'....E-..
    4584:	aa 12 de 14 80 27 b4 1f 55 08 67 00 38 24 0f 16     .....'..U.g.8$..
    4594:	04 29 c3 0e 74 26 9a 15 1b 11 3b 2c b6 24 41 1f     .)..t&....;,.$A.
    45a4:	5a 25 fe 2c 9b 29 59 00 09 21 de 08 f0 00 6f 0f     Z%.,.)Y..!....o.
    45b4:	c2 0f 80 23 f3 0c 41 11 df 2b 0b 21 c6 1c 96 01     ...#..A..+.!....
    45c4:	13 26 93 10 2a 17 ac 12 6a 27 61 17 85 1f d6 06     .&..*...j'a.....
    45d4:	80 23 b3 01 8b 10 f9 28 30 01 59 25 93 29 51 05     .#.....(0.Y%.)Q.
    45e4:	ca 1d 7b 1a a3 2c e2 23 ac 12 fb 2f e9 2b b1 1f     ..{..,.#.../.+..
    45f4:	11 08 64 1f be 0e c9 24 ac 14 5b 0a c1 00 45 21     ..d....$..[...E!
    4604:	cd 16 cf 20 69 1f 2f 25 19 18 6d 09 37 10 9f 04     ... i./%..m.7...
    4614:	48 1b fc 1b f9 08 1d 0c e5 01 6c 02 4e 0f 86 29     H.........l.N..)
    4624:	70 1c 43 00 51 0c 1a 04 79 21 0d 0b c8 05 75 22     p.C.Q...y!....u"
    4634:	ec 12 f3 1a 7e 21 27 08 2b 29 67 2f c6 09 69 0b     ....~!'.+)g/..i.
    4644:	9d 26 3e 11 bb 12 a7 19 69 2c 9e 2f f0 1a 8e 19     .&>.....i,./....
    4654:	07 1f 78 29 3e 0e 6c 0a 42 16 2e 26 ae 2a e2 02     ..x)>.l.B..&.*..
    4664:	f0 2d 54 2c a3 26 a1 07 d7 1d 75 09 4e 22 15 0a     .-T,.&....u.N"..
    4674:	50 06 3d 1b 08 17 08 09 24 09 0c 20 34 1c 76 07     P.=.....$.. 4.v.
    4684:	59 0e 0f 1a 6c 2a ec 2a 7e 2b 73 28 a3 0e 41 06     Y...l*.*~+s(..A.
    4694:	c6 22 74 2e 28 2a 78 15 54 0c 5b 06 10 04 77 26     ."t.(*x.T.[...w&
    46a4:	56 05 e5 20 a0 1e df 25 68 22 8e 08 3c 12 da 17     V.. ...%h"..<...

000046b4 <omegainvbitrev_12289_512>:
    46b4:	01 00 c7 05 36 20 1a 14 26 10 99 19 2f 2d 19 05     ....6 ..&.../-..
    46c4:	1d 19 86 23 45 2b 6e 06 dc 21 f1 09 b0 0d 2b 22     ...#E+n..!....+"
    46d4:	ba 2a 72 13 91 16 00 0d 3d 19 62 1c ef 11 a1 19     .*r.....=.b.....
    46e4:	b8 0a be 0b 9f 0b 33 02 b5 03 41 0a b2 25 d5 12     ......3...A..%..
    46f4:	d6 02 03 12 3d 07 8c 00 d0 0a 63 06 9f 10 99 04     ....=.....c.....
    4704:	c3 26 eb 0b 20 13 93 0b e8 03 e0 10 51 00 ee 23     .&.. .......Q..#
    4714:	f6 08 26 04 e1 0d 3c 1d 81 21 3f 0c bb 0a 13 1d     ..&...<..!?.....
    4724:	2e 05 23 1c 3b 24 81 0c 16 03 bb 03 92 04 f2 26     ..#.;$.........&
    4734:	fe 14 ec 24 7f 2f 02 11 a5 26 9d 1e e0 0c 94 20     ...$./...&..... 
    4744:	cb 13 6c 27 8b 2f 55 26 7a 19 c6 2c a4 0e b9 03     ..l'./U&z..,....
    4754:	dd 09 9c 2a 00 0e 51 10 7d 13 d3 14 4b 1f 89 06     ...*..Q.}...K...
    4764:	e1 2d 62 19 ae 2e a4 09 f8 2f 03 2c 21 2e 1a 0b     .-b....../.,!...
    4774:	17 17 1a 13 5c 0f ab 0a a6 15 70 2f 7e 22 cc 21     ....\.....p/~".!
    4784:	87 10 f4 09 63 01 cb 22 7b 0e df 06 3b 14 6e 0e     ....c.."{...;.n.
    4794:	29 08 e4 13 2d 23 c0 24 58 23 28 2d d9 0c 24 28     )...-#.$X#(-..$(
    47a4:	61 29 6d 2a b3 2e 87 26 7b 16 e9 1d dd 1e 15 2b     a)m*...&{......+
    47b4:	25 2e 36 22 d8 1c 70 20 f9 29 82 08 5d 2e b7 15     %.6"..p .)..]...
    47c4:	0e 2f 39 24 62 2d b8 0b 40 0c 47 14 48 0d 5f 09     ./9$b-..@.G.H._.
    47d4:	d0 0f c9 08 44 0b 81 04 8f 23 e2 1a 4e 08 a3 29     ....D....#..N..)
    47e4:	4b 22 2d 1b d0 24 42 09 99 0b 8a 0f 7e 0a af 0c     K"-..$B.....~...
    47f4:	35 2a 1f 13 dc 0a b6 1b ac 25 2c 20 01 09 b2 13     5*.......%, ....
    4804:	ed 1e 83 27 3e 11 1f 0b c7 0c 28 20 68 29 dd 22     ...'>.....( h)."
    4814:	f1 06 82 29 2e 12 92 05 71 25 56 1b b7 1c cd 21     ...)....q%V....!
    4824:	ac 1e 03 00 b4 23 a0 00 37 13 71 00 b6 20 8b 27     .....#..7.q.. .'
    4834:	89 28 9f 2a b3 01 f1 10 b4 26 44 15 00 10 14 2e     .(.*.....&D.....
    4844:	51 23 b7 04 64 1b 71 2b 25 12 94 01 a2 27 29 04     Q#..d.q+%....').
    4854:	76 09 97 17 8b 08 06 0a 56 24 7b 18 c3 21 85 09     v.......V${..!..
    4864:	6b 03 c4 0e 47 06 70 13 bc 10 21 1c 6e 1c 17 2c     k...G.p...!.n..,
    4874:	21 02 66 1c 89 21 76 0a 2f 10 97 1d 0f 2f 00 2a     !.f..!v./..../.*
    4884:	a0 05 b3 0e fa 0b e6 2f dc 13 a1 29 15 13 08 2c     ......./...)...,
    4894:	15 04 d6 24 b1 09 6d 1c bf 19 60 0b 04 1d 9f 2e     ...$..m...`.....
    48a4:	3f 21 f9 0e fc 2c 7b 2e 2b 04 ed 13 47 2e a0 26     ?!...,{.+...G..&
    48b4:	e6 04 34 2c 3b 15 4f 05 7f 28 da 20 9e 0f f1 07     ..4,;.O..(. ....
    48c4:	7e 01 c5 2e 94 0f 2d 2e 34 18 83 21 bb 1a 26 1b     ~.....-.4..!..&.
    48d4:	c0 06 71 2e f9 17 ad 1c 3b 0e 27 15 e6 16 09 18     ..q.....;.'.....
    48e4:	38 00 82 23 ab 1b 99 15 3e 28 5b 29 14 22 73 2d     8..#....>([)."s-
    48f4:	fa 03 dc 18 11 04 ba 0d c6 15 4c 28 28 09 fe 04     ..........L((...
    4904:	3e 1b eb 0f cd 1c e4 10 0a 02 88 27 be 0c 2a 1c     >..........'..*.
    4914:	1a 04 b8 11 bc 1a ed 20 7b 0a 5b 2b ea 0e 1b 18     ....... {.[+....
    4924:	cd 0e 93 00 50 15 a0 1e 74 1d a1 15 b5 12 73 11     ....P...t.....s.
    4934:	10 12 44 18 42 23 10 0e 4d 18 ef 21 f0 0f a5 01     ..D.B#..M..!....
    4944:	5d 02 03 27 09 2e 75 10 03 19 53 1d da 15 d5 0b     ]..'..u...S.....
    4954:	8d 1f cf 03 93 22 1c 0b 51 04 73 2f 31 16 6c 22     ....."..Q.s/1.l"
    4964:	78 17 75 03 91 13 5d 28 eb 03 35 22 f1 00 3a 00     x.u...](..5"..:.
    4974:	4f 08 6a 2f 17 0b 8c 20 ef 18 c9 09 af 01 d6 29     O.j/... .......)
    4984:	9b 23 34 00 ce 0a d6 2a 08 0d a7 17 f2 16 5c 2d     .#4....*......\-
    4994:	01 08 d1 1c d8 2a c0 00 75 0d 55 1d a7 1d 40 1c     .....*..u.U...@.
    49a4:	ee 2c 9a 0d 0f 2c 5c 15 37 0c 49 10 68 0b 79 14     .,...,\.7.I.h.y.
    49b4:	89 14 07 21 1f 17 51 11 6e 15 ee 0b d3 06 33 0c     ...!..Q.n.....3.
    49c4:	c7 09 84 0b 6b 19 1e 06 40 00 b9 21 56 2d 66 26     ....k...@..!V-f&
    49d4:	43 03 b1 17 f2 0d 71 1f da 2a 4e 0c 3c 2d 33 20     C.....q..*N.<-3 
    49e4:	e3 27 a9 2b 1f 1f 5b 28 48 2e 67 2c 22 04 ef 0f     .'.+..[(H.g,"...
    49f4:	50 1b e7 17 8d 20 b1 2a b0 04 40 14 fb 09 ea 17     P.... .*..@.....
    4a04:	c7 29 aa 07 f2 13 b8 18 7d 25 a8 00 37 1f 00 23     .)......}%..7..#
    4a14:	d1 0f 90 0e 7a 2b 9b 18 b4 03 7a 04 7c 05 bc 2e     ....z+....z.|...
    4a24:	67 0b b2 0e 14 20 b0 0f 75 2d 7b 19 2e 18 da 2e     g.... ..u-{.....
    4a34:	f4 2a 81 12 a6 12 cc 1a c5 01 ed 18 5f 2e 45 21     .*.........._.E!
    4a44:	2c 1b ef 07 0d 19 18 27 65 2f cf 0a 81 0f 6a 20     ,......'e/....j 
    4a54:	0d 07 42 0b 03 08 5f 28 8f 09 03 18 c1 2d 86 20     ..B..._(.....-. 
    4a64:	c9 0d 97 22 27 2f a5 24 33 07 c8 26 ee 1f 2b 24     ..."'/.$3..&..+$
    4a74:	6f 1d bf 28 aa 01 f3 0c 94 24 a6 2e ad 0e b7 07     o..(.....$......
    4a84:	2e 2d 53 2f 64 29 c1 0b a2 25 67 16 ec 16 b2 0a     .-S/d)...%g.....
    4a94:	74 1e 82 0c 09 08 08 1b fa 1a 17 07 a3 2e 19 2a     t..............*
    4aa4:	36 17 2f 06 d1 05 c4 09 36 2a e6 18 12 2b d0 2f     6./.....6*...+./

00004ab4 <psibitrev_12289_512>:
    4ab4:	01 00 3a 2a e7 1b cb 0f e8 2a d2 02 68 16 db 1f     ..:*.....*..h...
    4ac4:	d6 0d 51 22 10 26 25 0e 93 29 bc 04 7b 0c e4 16     ..Q".&%..)..{...
    4ad4:	2c 1d 4f 0a c0 25 4c 2c ce 2d 62 24 43 24 49 25     ,.O..%L,.-b$C$I%
    4ae4:	60 16 12 1e 9f 13 c4 16 01 23 70 19 8f 1c 47 05     `........#p...G.
    4af4:	0f 09 6f 2b 46 2c eb 2c 80 23 c6 0b de 13 d3 2a     ..o+F,.,.#.....*
    4b04:	ee 12 46 25 c2 23 80 0e c5 12 20 22 db 2b 0b 27     ..F%.#.... ".+.'
    4b14:	13 0c b0 2f 21 1f 19 2c 6e 24 e1 1c 16 24 3e 09     .../!..,n$...$>.
    4b24:	68 2b 62 1f 9e 29 31 25 75 2f c4 28 fe 1d 2b 2d     h+b..)1%u/.(..+-
    4b34:	ec 04 24 11 18 12 86 19 7a 09 4e 01 94 05 a0 06     ..$.....z.N.....
    4b44:	dd 07 28 23 d9 02 a9 0c 41 0b d4 0c 1d 1c d8 27     ..(#....A......'
    4b54:	93 21 c6 1b 22 29 86 21 36 0d 9e 2e 0d 26 7a 1f     .!..").!6....&z.
    4b64:	35 0e 83 0d 91 00 5b 1a 56 25 a5 20 e7 1c ea 18     5.....[.V%. ....
    4b74:	e7 24 e0 01 fe 03 09 00 5d 26 53 01 9f 16 20 02     .$......]&S... .
    4b84:	78 29 b6 10 2e 1b 84 1c b0 1f 01 22 65 05 24 26     x)........."e.$&
    4b94:	48 2c 5d 21 3b 03 87 16 ac 09 76 00 95 08 36 1c     H,]!;.....v...6.
    4ba4:	6d 0f 21 23 64 11 5c 09 ff 1e 82 00 15 0b 03 1b     m.!#d.\.........
    4bb4:	61 09 ba 01 14 1c d6 2b 86 01 05 03 08 21 c2 0e     a......+.....!..
    4bc4:	62 01 fd 12 a1 24 42 16 94 13 50 26 2b 0b ec 2b     b....$B...P&+..+
    4bd4:	f9 03 ec 1c 60 06 25 1c 1b 00 07 24 4e 21 61 2a     ....`.%....$N!a*
    4be4:	01 06 f2 00 6a 12 d2 1f 8b 25 78 0e 9b 13 e0 2d     ....j....%x....-
    4bf4:	ea 03 93 13 e0 13 45 1f 91 1c ba 29 3d 21 96 2c     ......E....)=!.,
    4c04:	7c 26 3e 0e 86 17 ab 0b fb 25 76 27 6a 18 8b 26     |&>......%v'j..&
    4c14:	d8 2b 5f 08 6d 2e dc 1d 90 04 9d 14 4a 2b b0 0c     .+_.m.......J+..
    4c24:	ed 01 01 20 bd 1a 4d 09 10 1f 4e 2e 62 05 78 07     ... ..M...N.b.x.
    4c34:	76 08 4b 0f 90 2f ca 1c 61 2f 4d 0c fe 2f 55 11     v.K../..a/M../U.
    4c44:	34 0e 4a 13 ab 14 90 0a 6f 2a d3 1d 7f 06 10 29     4.J.....o*.....)
    4c54:	24 0d 99 06 d9 0f 3a 23 e2 24 c3 1e 7e 08 14 11     $.....:#.$..~...
    4c64:	4f 1c 00 27 d5 0f 55 0a 4b 14 25 25 e2 1c cc 05     O..'..U.K.%%....
    4c74:	52 23 83 25 77 20 68 24 bf 26 31 0b d4 14 b6 0d     R#.%w h$.&1.....
    4c84:	5e 06 b3 27 1f 15 72 0c 80 2b bd 24 38 27 31 20     ^..'..r..+.$8'1 
    4c94:	a2 26 b9 22 ba 1b c1 23 49 24 9f 02 c8 0b f3 00     .&."...#I$......
    4ca4:	4a 1a a4 01 7f 27 08 06 91 0f 29 13 cb 0d dc 01     J....'....).....
    4cb4:	31 00 ef 04 1b 17 cb 05 3d 26 30 2a d2 29 cb 18     1.......=&0*.)..
    4cc4:	e8 05 5e 01 ea 28 07 15 f9 14 f8 27 7f 23 8d 11     ..^..(.....'.#..
    4cd4:	4f 25 15 19 9a 19 5f 0a 40 24 9d 06 ae 00 d3 02     O%...._.@$......
    4ce4:	4a 28 54 21 5b 01 6d 0b 0e 23 57 2e 42 07 92 12     J(T![.m..#W.B...
    4cf4:	d6 0b 13 10 39 09 ce 28 5c 0b da 00 6a 0d 38 22     ....9..(\...j.8"
    4d04:	7b 0f 40 02 fe 17 72 26 a2 07 fe 27 bf 24 f4 28     {.@...r&...'.$.(
    4d14:	97 0f 80 20 32 25 9c 00 e9 08 f4 16 12 28 d5 14     ... 2%.......(..
    4d24:	bc 0e a2 01 14 17 3c 2e 35 15 5b 1d 80 1d 0d 05     ......<.5.[.....
    4d34:	27 01 d3 17 86 16 8c 02 51 20 ed 0f 4f 21 9a 24     '.......Q ..O!.$
    4d44:	45 01 85 2a 87 2b 4d 2c 66 17 87 04 71 21 30 20     E..*.+M,f...q!0 
    4d54:	01 0d ca 10 59 2f 84 0a 49 17 0f 1c 57 28 3a 06     ....Y/..I...W(:.
    4d64:	17 18 06 26 c1 1b 51 2b 50 05 74 0f 1a 18 b1 14     ...&..Q+P.t.....
    4d74:	12 20 df 2b 9a 03 b9 01 a6 07 e2 10 58 04 1e 08     . .+........X...
    4d84:	ce 0f c5 02 b3 23 27 05 90 10 0f 22 50 18 be 2c     .....#'...."P..,
    4d94:	9b 09 ab 02 48 0e c1 2f e3 29 96 16 7d 24 3a 26     ....H../.)..}$:&
    4da4:	ce 23 2e 29 13 24 93 1a b0 1e e2 18 fa 0e 78 1b     .#.).$........x.
    4db4:	88 1b 99 24 b8 1f ca 23 a5 1a f2 03 67 22 13 03     ...$...#....g"..
    4dc4:	c1 13 5a 12 ac 12 8c 22 41 2f 29 05 30 13 00 28     ..Z...."A/).0..(
    4dd4:	a5 02 0f 19 5a 18 f9 22 2b 05 33 25 cd 2f 66 0c     ....Z.."+.3%./f.
    4de4:	2b 06 52 2e 38 26 12 17 75 0f ea 24 97 00 b2 27     +.R.8&..u..$...'
    4df4:	c7 2f 10 2f cc 0d 16 2c a4 07 70 1c 8c 2c 89 18     ././...,..p..,..
    4e04:	95 0d d0 19 8e 00 b0 2b e5 24 6e 0d 32 2c 74 10     .......+.$n.2,t.
    4e14:	2c 24 27 1a ae 12 fe 16 8c 1f f8 01 fe 08 a4 2d     ,$'............-
    4e24:	5c 2e 11 20 12 0e b4 17 f1 21 bf 0c bd 17 f1 1d     \.. .....!......
    4e34:	8e 1e 4c 1d 60 1a 8d 12 61 11 b1 1a 6e 2f 34 21     ..L.`...a...n/4!
    4e44:	e6 17 17 21 a6 04 86 25 14 0f 45 15 49 1e e7 2b     ...!...%..E.I..+
    4e54:	d7 13 43 23 79 08 f7 2d 1d 1f 34 13 16 20 c3 14     ..C#y..-..4.. ..
    4e64:	03 2b d9 26 b5 07 3b 1a 47 22 f0 2b 25 17 07 2c     .+.&..;.G".+%..,
    4e74:	8e 02 ed 0d a6 06 c3 07 68 1a 56 14 7f 0c c9 2f     ........h.V..../
    4e84:	f8 17 1b 19 da 1a c6 21 54 13 08 18 90 01 41 29     .......!T.....A)
    4e94:	db 14 46 15 7e 0e cd 17 d4 01 6d 20 3c 01 83 2e     ..F.~.....m <...
    4ea4:	10 28 63 20 27 0f 82 07 b2 2a c6 1a cd 03 1b 2b     .(c '....*.....+

00004eb4 <pubKeyA_7681_256>:
    4eb4:	8f 11 9f 05 f0 02 00 0c a0 1a 9d 0d 23 0d 49 03     ............#.I.
    4ec4:	3e 13 f5 17 7f 0c 38 14 7f 19 48 02 db 19 89 1a     >.....8...H.....
    4ed4:	b2 1a 0b 0a 5b 16 f6 06 47 04 68 12 bb 14 60 0f     ....[...G.h...`.
    4ee4:	58 00 9d 19 84 12 20 08 29 07 15 00 93 11 66 07     X..... .).....f.
    4ef4:	67 0c 5b 0b 20 10 95 17 17 16 22 01 58 12 48 01     g.[. .....".X.H.
    4f04:	71 13 58 0e bf 15 39 18 1e 15 fa 0a 26 10 32 13     q.X...9.....&.2.
    4f14:	3a 0f bb 17 1a 0e 68 09 1a 02 0f 1d 3a 15 3c 10     :.....h.....:.<.
    4f24:	ec 12 d5 02 a6 1b 45 01 bd 00 25 05 3c 04 47 0e     ......E...%.<.G.
    4f34:	7d 15 a6 0f b9 15 76 12 14 0d 93 1b 18 0d be 00     }.....v.........
    4f44:	00 01 74 07 db 14 ec 1b ac 1d 89 12 3d 0e 4a 06     ..t.........=.J.
    4f54:	5e 04 58 0e 24 0d 35 1d 28 04 a3 0c f2 02 e2 11     ^.X.$.5.(.......
    4f64:	a1 18 48 13 98 00 81 15 d1 17 fc 0e 94 1d 8e 17     ..H.............
    4f74:	f5 1b a8 0d e3 00 49 15 5e 06 b5 0b 5d 17 6c 04     ......I.^...].l.
    4f84:	51 15 ab 0a 04 02 9f 0c 92 17 50 0b a9 07 72 17     Q.........P...r.
    4f94:	b2 08 c5 03 64 05 d2 0c 05 12 a0 14 db 06 03 14     ....d...........
    4fa4:	77 0a 68 07 e7 08 e5 16 53 01 a6 16 e1 09 ec 07     w.h.....S.......
    4fb4:	a0 17 a8 07 8a 13 c0 11 55 0b 29 0f 0c 1a e4 1b     ........U.).....
    4fc4:	4a 07 c6 02 14 0c 57 17 b4 0b f8 08 6a 13 be 01     J.....W.....j...
    4fd4:	4a 01 7f 06 7a 05 04 0f f5 04 bd 12 3d 18 f0 01     J...z.......=...
    4fe4:	00 0b a3 01 7c 16 26 09 51 09 23 16 40 12 6c 08     ....|.&.Q.#.@.l.
    4ff4:	a1 07 87 0e 43 03 f1 00 c0 09 d3 16 c9 17 71 1a     ....C.........q.
    5004:	b4 08 4c 05 e7 1c e2 07 cf 03 19 0d be 0a ed 16     ..L.............
    5014:	5f 1c 6c 0b 47 05 27 18 81 0e 6c 07 27 17 da 0c     _.l.G.'...l.'...
    5024:	f5 09 cc 12 1e 08 96 12 7b 19 f8 12 a3 04 e4 13     ........{.......
    5034:	9e 1c e2 1a 74 0e cd 0c d4 1a e1 1b f3 08 9e 04     ....t...........
    5044:	80 04 b7 0c e4 10 02 02 f4 0f 36 11 d4 13 99 0b     ..........6.....
    5054:	ca 08 c6 13 4e 13 55 1d 54 0d 91 08 66 19 04 1c     ....N.U.T...f...
    5064:	9e 14 2a 12 3f 01 53 03 c3 13 19 1d 60 1c 49 0f     ..*.?.S.....`.I.
    5074:	3f 09 8d 0f f8 12 88 05 db 18 12 1b 55 11 32 13     ?...........U.2.
    5084:	94 14 22 18 c0 17 12 14 d9 06 de 08 f6 17 da 05     ..".............
    5094:	06 1d fe 00 45 0a 1a 0b b5 17 49 16 8d 1a a5 11     ....E.....I.....
    50a4:	7a 10 b2 15 84 1b 1b 16 7d 00 e0 00 f4 18 59 14     z.......}.....Y.

000050b4 <pubKeyP_7681_256>:
    50b4:	fa 0d 10 06 75 0f 9e 0d d7 05 55 04 8f 0a ab 13     ....u.....U.....
    50c4:	e8 00 7e 16 74 0c 57 06 78 19 91 0a 99 02 f2 09     ..~.t.W.x.......
    50d4:	c5 16 84 0e 0b 11 73 17 13 01 47 0e 6b 1a 79 11     ......s...G.k.y.
    50e4:	29 12 c8 1d 2b 11 a8 14 ed 04 9f 11 57 0b 58 08     )...+.......W.X.
    50f4:	4c 0e 2f 09 d7 07 b1 02 dc 04 0e 12 94 1c 0b 00     L./.............
    5104:	7a 07 4e 10 92 19 2f 0b e6 10 b6 00 fa 1a 05 08     z.N.../.........
    5114:	55 17 63 17 60 0d d0 05 44 0a 19 00 26 14 19 1b     U.c.`...D...&...
    5124:	95 0c 1d 17 d9 06 f7 1d dd 07 81 1d 3d 10 4a 0a     ............=.J.
    5134:	38 13 24 12 7a 0d 4a 00 19 11 88 17 01 12 2d 0f     8.$.z.J.......-.
    5144:	19 01 52 14 91 18 d3 10 00 10 81 09 ff 01 db 04     ..R.............
    5154:	2d 1a b3 1c 0f 01 7a 04 c4 13 f8 19 c3 03 9e 03     -.....z.........
    5164:	3a 11 c0 1d 18 1c b4 03 9f 13 85 0c 1a 1a 86 04     :...............
    5174:	18 04 91 09 cb 07 90 0d ab 15 e0 19 68 0c 5e 18     ............h.^.
    5184:	b5 11 04 0b c5 14 b4 14 64 10 d5 0a b9 17 96 1c     ........d.......
    5194:	cd 11 3e 16 a5 06 d6 09 4b 0b dc 01 a4 18 29 10     ..>.....K.....).
    51a4:	c8 0f 5e 19 ca 1d a9 0c 85 0a 14 1b b6 15 7f 1b     ..^.............
    51b4:	90 0e 13 14 c4 07 27 11 0c 10 c5 08 e0 0d ce 0b     ......'.........
    51c4:	d8 13 c1 10 f9 06 b2 02 6e 1c ee 08 6e 09 87 12     ........n...n...
    51d4:	2b 1d 75 00 3d 15 27 18 a6 0b ac 1a 3d 03 7f 07     +.u.=.'.....=...
    51e4:	19 01 ae 12 41 0c 13 07 cf 00 c9 03 47 11 08 03     ....A.......G...
    51f4:	df 1c 86 13 77 02 c2 01 f2 02 df 06 f4 0e 2e 0a     ....w...........
    5204:	60 0b 2e 0b 85 09 04 13 54 03 e4 0b b8 01 02 08     `.......T.......
    5214:	10 1a bd 00 c2 1a f2 05 c7 10 79 11 63 16 0e 16     ..........y.c...
    5224:	bd 07 c0 11 83 16 3b 17 1f 1a 4d 12 22 09 2b 17     ......;...M.".+.
    5234:	17 02 78 07 9f 1c 5c 1d 98 06 ae 0f d3 1a 05 0f     ..x...\.........
    5244:	89 05 79 07 64 19 e5 0d e6 0b 78 03 09 17 ef 0a     ..y.d.....x.....
    5254:	48 13 96 12 a2 0c 26 11 92 11 aa 09 0c 0a fb 1d     H.....&.........
    5264:	d9 18 8e 0d 02 04 14 17 32 02 44 18 c3 1b 02 09     ........2.D.....
    5274:	87 16 da 12 87 1b 04 1c d1 19 20 17 f1 1c 4d 17     .......... ...M.
    5284:	5c 11 e8 0e be 0d 79 1d 30 05 05 12 3c 0e d5 14     \.....y.0...<...
    5294:	fa 0b bb 0c b5 0a 13 10 f0 14 7e 1a aa 07 11 09     ..........~.....
    52a4:	08 05 ee 04 f6 18 a7 05 56 17 53 1b 8b 04 21 17     ........V.S...!.

000052b4 <prvKeyR2_7681_256>:
    52b4:	a3 0f 00 11 68 00 7d 0c 93 0e 2b 0c a4 14 5d 05     ....h.}...+...].
    52c4:	2d 02 60 07 c5 0a a8 00 f4 0a 28 18 88 08 35 1d     -.`.......(...5.
    52d4:	c4 0c ce 0e 2e 17 8f 1a d2 13 57 13 0c 14 4e 12     ..........W...N.
    52e4:	ba 0a a6 1c 8a 1c fb 16 4d 10 bb 03 ee 09 32 19     ........M.....2.
    52f4:	ee 11 80 0f b8 14 a7 0c 0a 03 7b 04 99 14 7a 11     ..........{...z.
    5304:	ed 13 a7 0e 4d 1c f7 1a d0 07 2f 0f 49 17 a5 08     ....M...../.I...
    5314:	3e 1b 50 0d 61 02 a1 0b 51 0a d8 17 fc 1c 19 07     >.P.a...Q.......
    5324:	f7 0f 24 16 c7 03 63 1a 69 1c 7e 00 52 1b 7e 09     ..$...c.i.~.R.~.
    5334:	47 0a 08 01 76 15 48 1d ca 10 84 17 27 03 8c 06     G...v.H.....'...
    5344:	e1 13 b6 11 98 01 85 0e 50 07 72 1b 8e 05 b3 1c     ........P.r.....
    5354:	3b 11 ab 12 77 0e bf 03 71 06 a7 03 da 0c a8 14     ;...w...q.......
    5364:	07 01 2a 13 8f 16 b4 01 52 12 00 15 51 11 e2 07     ..*.....R...Q...
    5374:	c7 02 8c 1b 02 0b ef 14 1e 1c e4 1b 02 15 f8 0b     ................
    5384:	00 12 44 08 d6 02 b0 17 a1 00 aa 1a 29 11 e1 04     ..D.........)...
    5394:	8e 00 84 1b ca 09 cf 05 67 05 92 18 37 02 f7 06     ........g...7...
    53a4:	4f 12 f1 10 09 02 0c 0d c2 19 34 17 79 17 56 07     O.........4.y.V.
    53b4:	29 05 d0 12 f4 0a c2 1d 86 12 28 04 5b 1c d3 0d     ).........(.[...
    53c4:	7c 15 f5 18 95 02 ae 00 06 0e 8e 0a 7d 11 63 1a     |...........}.c.
    53d4:	fb 03 36 06 a0 06 22 0c ca 1d c2 02 6a 19 4e 11     ..6...".....j.N.
    53e4:	a3 0a 53 09 ce 14 73 07 73 0f d6 0a d0 11 2d 0a     ..S...s.s.....-.
    53f4:	cd 03 e7 01 8a 0f ab 17 7b 00 d7 1b 80 12 a4 07     ........{.......
    5404:	c4 0c 52 1c 27 1a 62 16 c1 12 84 17 13 0a 53 17     ..R.'.b.......S.
    5414:	b2 10 f3 18 44 0e f2 0f 2e 00 e7 0c d2 15 c2 0a     ....D...........
    5424:	65 02 be 0b e8 09 d7 0c 79 10 e8 15 80 14 ba 02     e.......y.......
    5434:	f8 1a 3c 16 a8 00 ee 13 61 02 c5 12 f5 18 0d 1a     ..<.....a.......
    5444:	63 08 d9 14 15 04 ff 09 8f 1d 66 16 56 0d 65 02     c.........f.V.e.
    5454:	e1 01 90 1d c5 07 11 1d 72 01 5e 08 97 11 cc 1b     ........r.^.....
    5464:	1e 07 7f 19 84 16 ef 17 8d 10 de 16 19 09 a2 0d     ................
    5474:	3b 01 83 06 13 14 d0 14 83 0e 8e 01 04 02 73 11     ;.............s.
    5484:	34 1c 1d 18 41 0e 5a 0d db 10 11 1d 00 0a 89 12     4...A.Z.........
    5494:	ed 18 ab 04 c7 1b b0 08 d2 13 a6 19 d8 0e c0 1a     ................
    54a4:	bf 06 ae 1d a8 10 a3 14 c3 06 38 01 86 0f 3e 0c     ..........8...>.

000054b4 <omegainvbitrev_7681_256>:
    54b4:	01 00 37 0d 85 07 44 19 ba 1b c0 06 b0 1a 0f 02     ..7...D.........
    54c4:	8e 09 4d 09 61 00 ad 15 58 0a 5a 08 21 13 ab 18     ..M.a...X.Z.!...
    54d4:	5e 1b 25 15 fb 18 ed 11 02 07 58 04 49 12 a2 14     ^.%.......X.I...
    54e4:	6d 01 cb 16 46 0e c1 0a e1 08 6e 03 ac 13 4a 01     m...F.....n...J.
    54f4:	35 14 7d 0b 79 0d 10 02 d6 0a 35 17 77 06 b9 1b     5.}.y.....5.w...
    5504:	f7 09 ae 10 d4 09 38 04 41 0b 03 1b f3 00 ca 00     ......8.A.......
    5514:	08 0c 6c 10 25 1b ff 11 b2 06 4c 1b cd 10 a5 09     ..l.%.....L.....
    5524:	9c 18 ae 16 e2 1a b7 02 9b 18 77 09 5d 13 74 07     ..........w.].t.
    5534:	b8 19 35 19 26 02 38 07 ec 07 37 06 a0 07 05 16     ..5.&.8...7.....
    5544:	e0 13 60 1c 65 04 c4 0e 63 18 88 13 53 12 c3 02     ..`.e...c...S...
    5554:	1b 0c 79 1b ff 13 fb 11 6f 17 87 05 cc 0d c1 12     ..y.....o.......
    5564:	20 1a 5f 13 14 04 81 18 1c 0b 20 12 c4 16 16 1a      ._....... .....
    5574:	c6 05 00 1d 6c 0c bc 11 87 18 34 0f fe 12 35 0c     ....l.....4...5.
    5584:	fe 13 c4 04 f4 13 a3 16 13 10 01 0c d8 08 83 04     ................
    5594:	70 03 8d 11 54 10 db 00 33 06 3b 1d f2 15 54 0b     p...T...3.;...T.
    55a4:	08 07 a0 17 65 03 35 16 51 0b 6c 1c 3f 01 fd 0e     ....e.5.Q.l.?...
    55b4:	5b 04 a2 02 30 0d 82 1b 18 0b 46 19 b1 16 09 0f     [...0.....F.....
    55c4:	17 02 06 13 6d 02 5a 0f c8 0b c8 0a f5 19 35 15     ....m.Z.......5.
    55d4:	71 00 16 17 99 09 a5 04 b2 0c a7 0c 4c 0f 98 16     q...........L...
    55e4:	8b 1d da 00 d0 0c 0c 13 b2 1c 9b 0d 49 01 1f 1b     ............I...
    55f4:	e9 1b c5 1b 0f 14 64 13 80 14 79 0c 5d 07 bd 06     ......d...y.]...
    5604:	5b 09 6f 19 ef 06 4c 17 79 06 26 18 3e 08 b1 09     [.o...L.y.&.>...
    5614:	19 03 02 08 37 16 09 17 4e 18 0e 0c 6f 0a 41 0c     ....7...N...o.A.
    5624:	e2 0f 90 18 6f 00 a9 1a 87 0b ee 15 40 11 28 1d     ....o.......@.(.
    5634:	ad 16 2f 16 33 19 dc 07 be 0b a7 1c c5 0a 95 08     ../.3...........
    5644:	be 11 02 0e 44 09 88 15 a7 07 83 18 d9 1c eb 12     ....D...........
    5654:	d8 19 07 1c be 02 9d 05 0f 19 30 0c 84 15 e3 1b     ..........0.....
    5664:	96 19 f6 19 85 10 4d 12 58 19 bf 10 5e 00 09 0c     ......M.X...^...
    5674:	8c 10 cb 14 97 12 41 01 6e 0e 48 1d 89 17 12 13     ......A.n.H.....
    5684:	64 1c fb 02 d7 0e a8 06 6c 0a 9d 02 80 13 ea 13     d.......l.......
    5694:	51 16 93 06 7e 17 ba 17 3b 0b bb 07 d7 0f 38 1d     Q...~...;.....8.
    56a4:	d3 08 73 1c 69 04 9e 07 27 10 44 06 37 09 c3 1d     ..s.i...'.D.7...

000056b4 <psibitrev_7681_256>:
    56b4:	01 00 ca 10 bd 04 7c 16 f2 1b 51 03 41 17 47 02     ......|...Q.A.G.
    56c4:	56 05 e0 0a a7 15 a9 13 54 08 a0 1d b4 14 73 14     V.......T.....s.
    56d4:	b7 1c 55 0a 93 1a 20 15 40 13 bb 0f 36 07 94 1c     ..U... .@...6...
    56e4:	5f 09 b8 0b a9 19 ff 16 14 0c 06 05 dc 08 a3 02     _...............
    56f4:	8d 16 a4 0a 8a 14 66 05 4a 1b 1f 03 53 07 65 05     ......f.J...S.e.
    5704:	5c 14 34 0d b5 02 4f 17 02 0c dc 02 95 0d f9 11     \.4...O.........
    5714:	37 1d 0e 1d fe 02 c0 12 c9 19 2d 14 53 0d 0a 14     7.........-.S...
    5724:	48 02 8a 17 cc 06 2b 13 f1 1b 88 10 84 12 cc 09     H.....+.........
    5734:	04 0f c2 1c 95 01 b0 12 cc 07 9c 1a 61 06 f9 16     ............a...
    5744:	ad 12 0f 08 c6 00 ce 17 26 1d ad 0d 74 0c 91 1a     ........&...t...
    5754:	7e 19 29 15 00 12 ee 0d 5e 07 0d 0a 3d 19 03 0a     ~.).....^...=...
    5764:	cc 11 03 0b cd 0e 7a 05 45 0c 95 11 01 01 3b 18     ......z.E.....;.
    5774:	eb 03 3d 07 e1 0b e5 12 80 05 ed 19 a2 0a e1 03     ..=.............
    5784:	40 0b 35 10 7a 18 92 06 06 0c 02 0a 88 02 e6 11     @.5.z...........
    5794:	3e 1b ae 0b 79 0a 9e 05 3d 0f 9c 19 a1 01 21 0a     >...y...=.....!.
    57a4:	fc 07 61 16 ca 17 15 16 c9 16 db 1b cc 04 49 04     ..a...........I.
    57b4:	3e 00 ca 14 bd 17 da 0d 63 16 98 19 8e 01 2e 15     >.......c.......
    57c4:	c9 00 2a 0e 46 16 c6 12 47 06 83 06 6e 17 b0 07     ..*.F...G...n...
    57d4:	17 0a 81 0a 64 1b 95 13 59 17 2a 0f 06 1b 9d 01     ....d...Y.*.....
    57e4:	ef 0a 78 06 b9 00 93 0f c0 1c 6a 0b 36 09 75 0d     ..x.......j.6.u.
    57f4:	f8 11 a3 1d 42 0d a9 04 b4 0b 7c 0d 0b 04 6b 04     ....B.....|...k.
    5804:	1e 02 7d 08 d1 11 f2 04 64 18 43 1b fa 01 29 04     ..}.....d.C...).
    5814:	16 0b 28 01 7e 05 5a 16 79 08 bd 14 ff 0f 43 0c     ..(.~.Z.y.....C.
    5824:	6c 15 3c 13 5a 01 43 12 25 16 ce 04 d2 07 54 07     l.<.Z.C.%.....T.
    5834:	d9 00 c1 0c 13 08 7a 12 58 03 92 1d 71 05 1f 0e     ......z.X...q...
    5844:	c0 11 92 13 f3 11 b3 05 f8 06 ca 07 ff 15 e8 1a     ................
    5854:	50 14 c3 15 db 05 88 17 b5 06 12 17 92 04 a6 14     P...............
    5864:	44 17 a4 16 88 11 81 09 9d 0a f2 09 3c 02 18 02     D...........<...
    5874:	e2 02 b8 1c 66 10 4f 01 f5 0a 31 11 27 1d 76 00     ....f.O...1.'.v.
    5884:	69 07 b5 0e 5a 11 4f 11 5c 19 68 14 eb 06 90 1d     i...Z.O.\.h.....
    5894:	cc 08 0c 04 39 13 39 12 a7 0e 94 1b fb 0a ea 1b     ....9.9.........
    58a4:	f8 0e 50 07 bb 04 e9 12 7f 02 d1 10 5f 1b a6 19     ..P........._...

000058b4 <__ctors_end>:
    58b4:	11 24       	eor	r1, r1
    58b6:	1f be       	out	0x3f, r1	; 63
    58b8:	cf ef       	ldi	r28, 0xFF	; 255
    58ba:	cd bf       	out	0x3d, r28	; 61
    58bc:	df e3       	ldi	r29, 0x3F	; 63
    58be:	de bf       	out	0x3e, r29	; 62
    58c0:	00 e0       	ldi	r16, 0x00	; 0
    58c2:	0c bf       	out	0x3c, r16	; 60
    58c4:	18 be       	out	0x38, r1	; 56
    58c6:	19 be       	out	0x39, r1	; 57
    58c8:	1a be       	out	0x3a, r1	; 58
    58ca:	1b be       	out	0x3b, r1	; 59

000058cc <__do_copy_data>:
    58cc:	14 e2       	ldi	r17, 0x24	; 36
    58ce:	a0 e0       	ldi	r26, 0x00	; 0
    58d0:	b0 e2       	ldi	r27, 0x20	; 32
    58d2:	ec e0       	ldi	r30, 0x0C	; 12
    58d4:	f8 ea       	ldi	r31, 0xA8	; 168
    58d6:	00 e0       	ldi	r16, 0x00	; 0
    58d8:	0b bf       	out	0x3b, r16	; 59
    58da:	02 c0       	rjmp	.+4      	; 0x58e0 <__do_copy_data+0x14>
    58dc:	07 90       	elpm	r0, Z+
    58de:	0d 92       	st	X+, r0
    58e0:	a0 33       	cpi	r26, 0x30	; 48
    58e2:	b1 07       	cpc	r27, r17
    58e4:	d9 f7       	brne	.-10     	; 0x58dc <__do_copy_data+0x10>
    58e6:	1b be       	out	0x3b, r1	; 59

000058e8 <__do_clear_bss>:
    58e8:	24 e2       	ldi	r18, 0x24	; 36
    58ea:	a0 e3       	ldi	r26, 0x30	; 48
    58ec:	b4 e2       	ldi	r27, 0x24	; 36
    58ee:	01 c0       	rjmp	.+2      	; 0x58f2 <.do_clear_bss_start>

000058f0 <.do_clear_bss_loop>:
    58f0:	1d 92       	st	X+, r1

000058f2 <.do_clear_bss_start>:
    58f2:	a8 36       	cpi	r26, 0x68	; 104
    58f4:	b2 07       	cpc	r27, r18
    58f6:	e1 f7       	brne	.-8      	; 0x58f0 <.do_clear_bss_loop>
    58f8:	0e 94 a9 44 	call	0x8952	; 0x8952 <main>
    58fc:	0c 94 04 54 	jmp	0xa808	; 0xa808 <_exit>

00005900 <__bad_interrupt>:
    5900:	0c 94 00 00 	jmp	0	; 0x0 <__vectors>

00005904 <mod7681>:
    5904:	21 e0       	ldi	r18, 0x01	; 1
    5906:	3e e1       	ldi	r19, 0x1E	; 30
    5908:	81 30       	cpi	r24, 0x01	; 1
    590a:	93 07       	cpc	r25, r19
    590c:	1c f0       	brlt	.+6      	; 0x5914 <DO_NIX>
    590e:	82 1b       	sub	r24, r18
    5910:	93 0b       	sbc	r25, r19
    5912:	03 c0       	rjmp	.+6      	; 0x591a <FIN>

00005914 <DO_NIX>:
    5914:	23 95       	inc	r18
    5916:	20 60       	ori	r18, 0x00	; 0
    5918:	2a 95       	dec	r18

0000591a <FIN>:
    591a:	08 95       	ret

0000591c <mm7681_check>:
    591c:	01 c0       	rjmp	.+2      	; 0x5920 <mm7681>
    591e:	08 95       	ret

00005920 <mm7681>:
    5920:	86 9f       	mul	r24, r22
    5922:	90 01       	movw	r18, r0
    5924:	97 9f       	mul	r25, r23
    5926:	a0 01       	movw	r20, r0
    5928:	96 9f       	mul	r25, r22
    592a:	66 27       	eor	r22, r22
    592c:	30 0d       	add	r19, r0
    592e:	41 1d       	adc	r20, r1
    5930:	56 1f       	adc	r21, r22
    5932:	87 9f       	mul	r24, r23
    5934:	30 0d       	add	r19, r0
    5936:	41 1d       	adc	r20, r1
    5938:	56 1f       	adc	r21, r22
    593a:	ba 01       	movw	r22, r20
    593c:	76 95       	lsr	r23
    593e:	67 95       	ror	r22
    5940:	ca 01       	movw	r24, r20
    5942:	a3 2f       	mov	r26, r19
    5944:	aa 0f       	add	r26, r26
    5946:	88 1f       	adc	r24, r24
    5948:	99 1f       	adc	r25, r25
    594a:	aa 0f       	add	r26, r26
    594c:	88 1f       	adc	r24, r24
    594e:	99 1f       	adc	r25, r25
    5950:	aa 0f       	add	r26, r26
    5952:	88 1f       	adc	r24, r24
    5954:	99 1f       	adc	r25, r25
    5956:	68 0f       	add	r22, r24
    5958:	79 1f       	adc	r23, r25
    595a:	69 0f       	add	r22, r25
    595c:	aa 27       	eor	r26, r26
    595e:	7a 1f       	adc	r23, r26
    5960:	be e1       	ldi	r27, 0x1E	; 30
    5962:	b6 9f       	mul	r27, r22
    5964:	26 1b       	sub	r18, r22
    5966:	37 0b       	sbc	r19, r23
    5968:	30 19       	sub	r19, r0

0000596a <CHECK_SUB>:
    596a:	b3 17       	cp	r27, r19
    596c:	18 f0       	brcs	.+6      	; 0x5974 <DO_SUB>
    596e:	29 f4       	brne	.+10     	; 0x597a <FINISHED>
    5970:	21 30       	cpi	r18, 0x01	; 1
    5972:	18 f0       	brcs	.+6      	; 0x597a <FINISHED>

00005974 <DO_SUB>:
    5974:	21 50       	subi	r18, 0x01	; 1
    5976:	3b 0b       	sbc	r19, r27
    5978:	f8 cf       	rjmp	.-16     	; 0x596a <CHECK_SUB>

0000597a <FINISHED>:
    597a:	11 24       	eor	r1, r1
    597c:	82 2f       	mov	r24, r18
    597e:	93 2f       	mov	r25, r19
    5980:	08 95       	ret

00005982 <mm12289>:
    5982:	86 9f       	mul	r24, r22
    5984:	90 01       	movw	r18, r0
    5986:	97 9f       	mul	r25, r23
    5988:	a0 01       	movw	r20, r0
    598a:	96 9f       	mul	r25, r22
    598c:	66 27       	eor	r22, r22
    598e:	30 0d       	add	r19, r0
    5990:	41 1d       	adc	r20, r1
    5992:	56 1f       	adc	r21, r22
    5994:	87 9f       	mul	r24, r23
    5996:	30 0d       	add	r19, r0
    5998:	41 1d       	adc	r20, r1
    599a:	56 1f       	adc	r21, r22
    599c:	bb 27       	eor	r27, r27
    599e:	ba 01       	movw	r22, r20
    59a0:	ca 01       	movw	r24, r20
    59a2:	a3 2f       	mov	r26, r19
    59a4:	69 0f       	add	r22, r25
    59a6:	7b 1f       	adc	r23, r27
    59a8:	aa 0f       	add	r26, r26
    59aa:	88 1f       	adc	r24, r24
    59ac:	99 1f       	adc	r25, r25
    59ae:	aa 0f       	add	r26, r26
    59b0:	88 1f       	adc	r24, r24
    59b2:	99 1f       	adc	r25, r25
    59b4:	68 0f       	add	r22, r24
    59b6:	79 1f       	adc	r23, r25
    59b8:	69 0f       	add	r22, r25
    59ba:	7b 1f       	adc	r23, r27
    59bc:	88 0f       	add	r24, r24
    59be:	99 1f       	adc	r25, r25
    59c0:	88 0f       	add	r24, r24
    59c2:	99 1f       	adc	r25, r25
    59c4:	69 0f       	add	r22, r25
    59c6:	7b 1f       	adc	r23, r27
    59c8:	88 0f       	add	r24, r24
    59ca:	99 1f       	adc	r25, r25
    59cc:	bb 1f       	adc	r27, r27
    59ce:	88 0f       	add	r24, r24
    59d0:	99 1f       	adc	r25, r25
    59d2:	bb 1f       	adc	r27, r27
    59d4:	69 0f       	add	r22, r25
    59d6:	7b 1f       	adc	r23, r27
    59d8:	b0 e3       	ldi	r27, 0x30	; 48
    59da:	b6 9f       	mul	r27, r22
    59dc:	c0 01       	movw	r24, r0
    59de:	b7 9f       	mul	r27, r23
    59e0:	90 0d       	add	r25, r0
    59e2:	aa 27       	eor	r26, r26
    59e4:	26 1b       	sub	r18, r22
    59e6:	37 0b       	sbc	r19, r23
    59e8:	4a 0b       	sbc	r20, r26
    59ea:	38 1b       	sub	r19, r24
    59ec:	49 0b       	sbc	r20, r25

000059ee <CHECK_SUB>:
    59ee:	41 30       	cpi	r20, 0x01	; 1
    59f0:	29 f0       	breq	.+10     	; 0x59fc <DO_SUB>
    59f2:	b3 17       	cp	r27, r19
    59f4:	18 f0       	brcs	.+6      	; 0x59fc <DO_SUB>
    59f6:	31 f4       	brne	.+12     	; 0x5a04 <FINISHED>
    59f8:	21 30       	cpi	r18, 0x01	; 1
    59fa:	20 f0       	brcs	.+8      	; 0x5a04 <FINISHED>

000059fc <DO_SUB>:
    59fc:	21 50       	subi	r18, 0x01	; 1
    59fe:	3b 0b       	sbc	r19, r27
    5a00:	4a 0b       	sbc	r20, r26
    5a02:	f5 cf       	rjmp	.-22     	; 0x59ee <CHECK_SUB>

00005a04 <FINISHED>:
    5a04:	11 24       	eor	r1, r1
    5a06:	82 2f       	mov	r24, r18
    5a08:	93 2f       	mov	r25, r19
    5a0a:	08 95       	ret

00005a0c <mod12289>:
    5a0c:	21 e0       	ldi	r18, 0x01	; 1
    5a0e:	30 e3       	ldi	r19, 0x30	; 48
    5a10:	81 30       	cpi	r24, 0x01	; 1
    5a12:	93 07       	cpc	r25, r19
    5a14:	1c f0       	brlt	.+6      	; 0x5a1c <DO_NIX>
    5a16:	82 1b       	sub	r24, r18
    5a18:	93 0b       	sbc	r25, r19
    5a1a:	03 c0       	rjmp	.+6      	; 0x5a22 <FIN>

00005a1c <DO_NIX>:
    5a1c:	23 95       	inc	r18
    5a1e:	20 60       	ori	r18, 0x00	; 0
    5a20:	2a 95       	dec	r18

00005a22 <FIN>:
    5a22:	08 95       	ret

00005a24 <mulRed_asm_4093>:
    5a24:	aa 24       	eor	r10, r10
    5a26:	97 9f       	mul	r25, r23
    5a28:	80 2c       	mov	r8, r0
    5a2a:	86 9f       	mul	r24, r22
    5a2c:	60 2c       	mov	r6, r0
    5a2e:	11 2d       	mov	r17, r1
    5a30:	96 9f       	mul	r25, r22
    5a32:	10 0d       	add	r17, r0
    5a34:	81 1c       	adc	r8, r1
    5a36:	87 9f       	mul	r24, r23
    5a38:	10 0d       	add	r17, r0
    5a3a:	81 1c       	adc	r8, r1
    5a3c:	91 2e       	mov	r9, r17
    5a3e:	86 94       	lsr	r8
    5a40:	97 94       	ror	r9
    5a42:	86 94       	lsr	r8
    5a44:	97 94       	ror	r9
    5a46:	86 94       	lsr	r8
    5a48:	97 94       	ror	r9
    5a4a:	86 94       	lsr	r8
    5a4c:	97 94       	ror	r9
    5a4e:	1f 70       	andi	r17, 0x0F	; 15
    5a50:	89 2d       	mov	r24, r9
    5a52:	98 2d       	mov	r25, r8
    5a54:	88 0f       	add	r24, r24
    5a56:	99 1f       	adc	r25, r25
    5a58:	89 0d       	add	r24, r9
    5a5a:	98 1d       	adc	r25, r8
    5a5c:	86 0d       	add	r24, r6
    5a5e:	91 1f       	adc	r25, r17

00005a60 <test_reduction>:
    5a60:	9f 30       	cpi	r25, 0x0F	; 15
    5a62:	38 f0       	brcs	.+14     	; 0x5a72 <end_mul>
    5a64:	09 f0       	breq	.+2      	; 0x5a68 <consider_reduction>
    5a66:	02 c0       	rjmp	.+4      	; 0x5a6c <do_reduction>

00005a68 <consider_reduction>:
    5a68:	8d 3f       	cpi	r24, 0xFD	; 253
    5a6a:	18 f0       	brcs	.+6      	; 0x5a72 <end_mul>

00005a6c <do_reduction>:
    5a6c:	8d 5f       	subi	r24, 0xFD	; 253
    5a6e:	9f 40       	sbci	r25, 0x0F	; 15
    5a70:	f7 cf       	rjmp	.-18     	; 0x5a60 <test_reduction>

00005a72 <end_mul>:
    5a72:	08 95       	ret

00005a74 <polyMul_asm_4093_256>:
    5a74:	0f 92       	push	r0
    5a76:	1f 92       	push	r1
    5a78:	6f 92       	push	r6
    5a7a:	7f 92       	push	r7
    5a7c:	8f 92       	push	r8
    5a7e:	9f 92       	push	r9
    5a80:	af 92       	push	r10
    5a82:	ef 92       	push	r14
    5a84:	ff 92       	push	r15
    5a86:	0f 93       	push	r16
    5a88:	1f 93       	push	r17
    5a8a:	2f 93       	push	r18
    5a8c:	3f 93       	push	r19
    5a8e:	af 93       	push	r26
    5a90:	bf 93       	push	r27
    5a92:	cf 93       	push	r28
    5a94:	df 93       	push	r29
    5a96:	ef 93       	push	r30
    5a98:	ff 93       	push	r31
    5a9a:	00 27       	eor	r16, r16
    5a9c:	77 24       	eor	r7, r7
    5a9e:	33 27       	eor	r19, r19
    5aa0:	dc 01       	movw	r26, r24
    5aa2:	fb 01       	movw	r30, r22
    5aa4:	7b 01       	movw	r14, r22

00005aa6 <inner_loop>:
    5aa6:	22 27       	eor	r18, r18
    5aa8:	20 0f       	add	r18, r16
    5aaa:	27 0d       	add	r18, r7
    5aac:	b0 f4       	brcc	.+44     	; 0x5ada <no_carry>
    5aae:	8d 91       	ld	r24, X+
    5ab0:	9c 91       	ld	r25, X
    5ab2:	65 91       	lpm	r22, Z+
    5ab4:	75 91       	lpm	r23, Z+
    5ab6:	0e 94 12 2d 	call	0x5a24	; 0x5a24 <mulRed_asm_4093>
    5aba:	ea 01       	movw	r28, r20
    5abc:	c2 0f       	add	r28, r18
    5abe:	d3 1f       	adc	r29, r19
    5ac0:	c2 0f       	add	r28, r18
    5ac2:	d3 1f       	adc	r29, r19
    5ac4:	69 91       	ld	r22, Y+
    5ac6:	78 81       	ld	r23, Y
    5ac8:	68 1b       	sub	r22, r24
    5aca:	79 0b       	sbc	r23, r25
    5acc:	e0 f4       	brcc	.+56     	; 0x5b06 <end>
    5ace:	3d ef       	ldi	r19, 0xFD	; 253
    5ad0:	63 0f       	add	r22, r19
    5ad2:	3f e0       	ldi	r19, 0x0F	; 15
    5ad4:	73 1f       	adc	r23, r19
    5ad6:	33 27       	eor	r19, r19
    5ad8:	16 c0       	rjmp	.+44     	; 0x5b06 <end>

00005ada <no_carry>:
    5ada:	8d 91       	ld	r24, X+
    5adc:	9c 91       	ld	r25, X
    5ade:	65 91       	lpm	r22, Z+
    5ae0:	75 91       	lpm	r23, Z+
    5ae2:	a0 df       	rcall	.-192    	; 0x5a24 <mulRed_asm_4093>
    5ae4:	ea 01       	movw	r28, r20
    5ae6:	c2 0f       	add	r28, r18
    5ae8:	d3 1f       	adc	r29, r19
    5aea:	c2 0f       	add	r28, r18
    5aec:	d3 1f       	adc	r29, r19
    5aee:	69 91       	ld	r22, Y+
    5af0:	78 81       	ld	r23, Y
    5af2:	68 0f       	add	r22, r24
    5af4:	79 1f       	adc	r23, r25

00005af6 <test_reduction3>:
    5af6:	7f 30       	cpi	r23, 0x0F	; 15
    5af8:	30 f0       	brcs	.+12     	; 0x5b06 <end>
    5afa:	09 f0       	breq	.+2      	; 0x5afe <consider_reduction3>
    5afc:	02 c0       	rjmp	.+4      	; 0x5b02 <do_reduction3>

00005afe <consider_reduction3>:
    5afe:	6d 3f       	cpi	r22, 0xFD	; 253
    5b00:	10 f0       	brcs	.+4      	; 0x5b06 <end>

00005b02 <do_reduction3>:
    5b02:	6d 5f       	subi	r22, 0xFD	; 253
    5b04:	7f 40       	sbci	r23, 0x0F	; 15

00005b06 <end>:
    5b06:	6a 93       	st	-Y, r22
    5b08:	21 96       	adiw	r28, 0x01	; 1
    5b0a:	78 83       	st	Y, r23
    5b0c:	11 97       	sbiw	r26, 0x01	; 1
    5b0e:	73 94       	inc	r7
    5b10:	51 f6       	brne	.-108    	; 0x5aa6 <inner_loop>
    5b12:	12 96       	adiw	r26, 0x02	; 2
    5b14:	f7 01       	movw	r30, r14
    5b16:	03 95       	inc	r16
    5b18:	31 f6       	brne	.-116    	; 0x5aa6 <inner_loop>
    5b1a:	ff 91       	pop	r31
    5b1c:	ef 91       	pop	r30
    5b1e:	df 91       	pop	r29
    5b20:	cf 91       	pop	r28
    5b22:	bf 91       	pop	r27
    5b24:	af 91       	pop	r26
    5b26:	3f 91       	pop	r19
    5b28:	2f 91       	pop	r18
    5b2a:	1f 91       	pop	r17
    5b2c:	0f 91       	pop	r16
    5b2e:	ff 90       	pop	r15
    5b30:	ef 90       	pop	r14
    5b32:	af 90       	pop	r10
    5b34:	9f 90       	pop	r9
    5b36:	8f 90       	pop	r8
    5b38:	7f 90       	pop	r7
    5b3a:	6f 90       	pop	r6
    5b3c:	1f 90       	pop	r1
    5b3e:	0f 90       	pop	r0
    5b40:	08 95       	ret

00005b42 <polyMul_asm_4093_192>:
    5b42:	0f 92       	push	r0
    5b44:	1f 92       	push	r1
    5b46:	2f 92       	push	r2
    5b48:	6f 92       	push	r6
    5b4a:	7f 92       	push	r7
    5b4c:	8f 92       	push	r8
    5b4e:	9f 92       	push	r9
    5b50:	af 92       	push	r10
    5b52:	ef 92       	push	r14
    5b54:	ff 92       	push	r15
    5b56:	0f 93       	push	r16
    5b58:	1f 93       	push	r17
    5b5a:	2f 93       	push	r18
    5b5c:	3f 93       	push	r19
    5b5e:	af 93       	push	r26
    5b60:	bf 93       	push	r27
    5b62:	cf 93       	push	r28
    5b64:	df 93       	push	r29
    5b66:	ef 93       	push	r30
    5b68:	ff 93       	push	r31
    5b6a:	30 ec       	ldi	r19, 0xC0	; 192
    5b6c:	23 2e       	mov	r2, r19
    5b6e:	00 27       	eor	r16, r16
    5b70:	77 24       	eor	r7, r7
    5b72:	33 27       	eor	r19, r19
    5b74:	dc 01       	movw	r26, r24
    5b76:	fb 01       	movw	r30, r22
    5b78:	7b 01       	movw	r14, r22

00005b7a <inner_loop_192>:
    5b7a:	22 27       	eor	r18, r18
    5b7c:	20 0f       	add	r18, r16
    5b7e:	27 0d       	add	r18, r7
    5b80:	c8 f0       	brcs	.+50     	; 0x5bb4 <greater_equal_192>
    5b82:	22 15       	cp	r18, r2
    5b84:	b8 f4       	brcc	.+46     	; 0x5bb4 <greater_equal_192>
    5b86:	8d 91       	ld	r24, X+
    5b88:	9c 91       	ld	r25, X
    5b8a:	65 91       	lpm	r22, Z+
    5b8c:	75 91       	lpm	r23, Z+
    5b8e:	4a df       	rcall	.-364    	; 0x5a24 <mulRed_asm_4093>
    5b90:	ea 01       	movw	r28, r20
    5b92:	c2 0f       	add	r28, r18
    5b94:	d3 1f       	adc	r29, r19
    5b96:	c2 0f       	add	r28, r18
    5b98:	d3 1f       	adc	r29, r19
    5b9a:	69 91       	ld	r22, Y+
    5b9c:	78 81       	ld	r23, Y
    5b9e:	68 0f       	add	r22, r24
    5ba0:	79 1f       	adc	r23, r25

00005ba2 <test_reduction3_192>:
    5ba2:	7f 30       	cpi	r23, 0x0F	; 15
    5ba4:	e8 f0       	brcs	.+58     	; 0x5be0 <end_192>
    5ba6:	09 f0       	breq	.+2      	; 0x5baa <consider_reduction3_192>
    5ba8:	02 c0       	rjmp	.+4      	; 0x5bae <do_reduction3_192>

00005baa <consider_reduction3_192>:
    5baa:	6d 3f       	cpi	r22, 0xFD	; 253
    5bac:	c8 f0       	brcs	.+50     	; 0x5be0 <end_192>

00005bae <do_reduction3_192>:
    5bae:	6d 5f       	subi	r22, 0xFD	; 253
    5bb0:	7f 40       	sbci	r23, 0x0F	; 15
    5bb2:	16 c0       	rjmp	.+44     	; 0x5be0 <end_192>

00005bb4 <greater_equal_192>:
    5bb4:	22 19       	sub	r18, r2
    5bb6:	8d 91       	ld	r24, X+
    5bb8:	9c 91       	ld	r25, X
    5bba:	65 91       	lpm	r22, Z+
    5bbc:	75 91       	lpm	r23, Z+
    5bbe:	0e 94 12 2d 	call	0x5a24	; 0x5a24 <mulRed_asm_4093>
    5bc2:	ea 01       	movw	r28, r20
    5bc4:	c2 0f       	add	r28, r18
    5bc6:	d3 1f       	adc	r29, r19
    5bc8:	c2 0f       	add	r28, r18
    5bca:	d3 1f       	adc	r29, r19
    5bcc:	69 91       	ld	r22, Y+
    5bce:	78 81       	ld	r23, Y
    5bd0:	68 1b       	sub	r22, r24
    5bd2:	79 0b       	sbc	r23, r25
    5bd4:	28 f4       	brcc	.+10     	; 0x5be0 <end_192>
    5bd6:	3d ef       	ldi	r19, 0xFD	; 253
    5bd8:	63 0f       	add	r22, r19
    5bda:	3f e0       	ldi	r19, 0x0F	; 15
    5bdc:	73 1f       	adc	r23, r19
    5bde:	33 27       	eor	r19, r19

00005be0 <end_192>:
    5be0:	6a 93       	st	-Y, r22
    5be2:	21 96       	adiw	r28, 0x01	; 1
    5be4:	78 83       	st	Y, r23
    5be6:	11 97       	sbiw	r26, 0x01	; 1
    5be8:	73 94       	inc	r7
    5bea:	72 14       	cp	r7, r2
    5bec:	31 f6       	brne	.-116    	; 0x5b7a <inner_loop_192>
    5bee:	77 24       	eor	r7, r7
    5bf0:	12 96       	adiw	r26, 0x02	; 2
    5bf2:	f7 01       	movw	r30, r14
    5bf4:	03 95       	inc	r16
    5bf6:	02 15       	cp	r16, r2
    5bf8:	01 f6       	brne	.-128    	; 0x5b7a <inner_loop_192>
    5bfa:	ff 91       	pop	r31
    5bfc:	ef 91       	pop	r30
    5bfe:	df 91       	pop	r29
    5c00:	cf 91       	pop	r28
    5c02:	bf 91       	pop	r27
    5c04:	af 91       	pop	r26
    5c06:	3f 91       	pop	r19
    5c08:	2f 91       	pop	r18
    5c0a:	1f 91       	pop	r17
    5c0c:	0f 91       	pop	r16
    5c0e:	ff 90       	pop	r15
    5c10:	ef 90       	pop	r14
    5c12:	af 90       	pop	r10
    5c14:	9f 90       	pop	r9
    5c16:	8f 90       	pop	r8
    5c18:	7f 90       	pop	r7
    5c1a:	6f 90       	pop	r6
    5c1c:	2f 90       	pop	r2
    5c1e:	1f 90       	pop	r1
    5c20:	0f 90       	pop	r0
    5c22:	08 95       	ret

00005c24 <polyMul_asm_4093_320>:
    5c24:	0f 92       	push	r0
    5c26:	1f 92       	push	r1
    5c28:	2f 92       	push	r2
    5c2a:	3f 92       	push	r3
    5c2c:	4f 92       	push	r4
    5c2e:	6f 92       	push	r6
    5c30:	8f 92       	push	r8
    5c32:	9f 92       	push	r9
    5c34:	af 92       	push	r10
    5c36:	bf 92       	push	r11
    5c38:	cf 92       	push	r12
    5c3a:	ef 92       	push	r14
    5c3c:	ff 92       	push	r15
    5c3e:	0f 93       	push	r16
    5c40:	1f 93       	push	r17
    5c42:	2f 93       	push	r18
    5c44:	3f 93       	push	r19
    5c46:	af 93       	push	r26
    5c48:	bf 93       	push	r27
    5c4a:	cf 93       	push	r28
    5c4c:	df 93       	push	r29
    5c4e:	ef 93       	push	r30
    5c50:	ff 93       	push	r31
    5c52:	30 e4       	ldi	r19, 0x40	; 64
    5c54:	23 2e       	mov	r2, r19
    5c56:	31 e0       	ldi	r19, 0x01	; 1
    5c58:	33 2e       	mov	r3, r19
    5c5a:	bb 24       	eor	r11, r11
    5c5c:	cc 24       	eor	r12, r12
    5c5e:	44 24       	eor	r4, r4
    5c60:	33 27       	eor	r19, r19
    5c62:	dc 01       	movw	r26, r24
    5c64:	fb 01       	movw	r30, r22
    5c66:	7b 01       	movw	r14, r22

00005c68 <inner_loop_320>:
    5c68:	00 27       	eor	r16, r16
    5c6a:	22 27       	eor	r18, r18
    5c6c:	0b 0d       	add	r16, r11
    5c6e:	2c 1d       	adc	r18, r12
    5c70:	04 0d       	add	r16, r4
    5c72:	30 f9       	bld	r19, 0
    5c74:	23 1f       	adc	r18, r19
    5c76:	23 15       	cp	r18, r3
    5c78:	d8 f0       	brcs	.+54     	; 0x5cb0 <smaller_320>
    5c7a:	11 f4       	brne	.+4      	; 0x5c80 <greater_equal_320>
    5c7c:	02 15       	cp	r16, r2
    5c7e:	c0 f0       	brcs	.+48     	; 0x5cb0 <smaller_320>

00005c80 <greater_equal_320>:
    5c80:	02 19       	sub	r16, r2
    5c82:	23 09       	sbc	r18, r3
    5c84:	8d 91       	ld	r24, X+
    5c86:	9c 91       	ld	r25, X
    5c88:	65 91       	lpm	r22, Z+
    5c8a:	75 91       	lpm	r23, Z+
    5c8c:	0e 94 12 2d 	call	0x5a24	; 0x5a24 <mulRed_asm_4093>
    5c90:	ea 01       	movw	r28, r20
    5c92:	c0 0f       	add	r28, r16
    5c94:	d2 1f       	adc	r29, r18
    5c96:	c0 0f       	add	r28, r16
    5c98:	d2 1f       	adc	r29, r18
    5c9a:	69 91       	ld	r22, Y+
    5c9c:	78 81       	ld	r23, Y
    5c9e:	68 1b       	sub	r22, r24
    5ca0:	79 0b       	sbc	r23, r25
    5ca2:	e0 f4       	brcc	.+56     	; 0x5cdc <end_320>
    5ca4:	3d ef       	ldi	r19, 0xFD	; 253
    5ca6:	63 0f       	add	r22, r19
    5ca8:	3f e0       	ldi	r19, 0x0F	; 15
    5caa:	73 1f       	adc	r23, r19
    5cac:	33 27       	eor	r19, r19
    5cae:	16 c0       	rjmp	.+44     	; 0x5cdc <end_320>

00005cb0 <smaller_320>:
    5cb0:	8d 91       	ld	r24, X+
    5cb2:	9c 91       	ld	r25, X
    5cb4:	65 91       	lpm	r22, Z+
    5cb6:	75 91       	lpm	r23, Z+
    5cb8:	b5 de       	rcall	.-662    	; 0x5a24 <mulRed_asm_4093>
    5cba:	ea 01       	movw	r28, r20
    5cbc:	c0 0f       	add	r28, r16
    5cbe:	d2 1f       	adc	r29, r18
    5cc0:	c0 0f       	add	r28, r16
    5cc2:	d2 1f       	adc	r29, r18
    5cc4:	69 91       	ld	r22, Y+
    5cc6:	78 81       	ld	r23, Y
    5cc8:	68 0f       	add	r22, r24
    5cca:	79 1f       	adc	r23, r25

00005ccc <test_reduction3_320>:
    5ccc:	7f 30       	cpi	r23, 0x0F	; 15
    5cce:	30 f0       	brcs	.+12     	; 0x5cdc <end_320>
    5cd0:	09 f0       	breq	.+2      	; 0x5cd4 <consider_reduction3_320>
    5cd2:	02 c0       	rjmp	.+4      	; 0x5cd8 <do_reduction3_320>

00005cd4 <consider_reduction3_320>:
    5cd4:	6d 3f       	cpi	r22, 0xFD	; 253
    5cd6:	10 f0       	brcs	.+4      	; 0x5cdc <end_320>

00005cd8 <do_reduction3_320>:
    5cd8:	6d 5f       	subi	r22, 0xFD	; 253
    5cda:	7f 40       	sbci	r23, 0x0F	; 15

00005cdc <end_320>:
    5cdc:	6a 93       	st	-Y, r22
    5cde:	21 96       	adiw	r28, 0x01	; 1
    5ce0:	78 83       	st	Y, r23
    5ce2:	11 97       	sbiw	r26, 0x01	; 1
    5ce4:	43 94       	inc	r4
    5ce6:	09 f4       	brne	.+2      	; 0x5cea <skip_set_t>
    5ce8:	68 94       	set

00005cea <skip_set_t>:
    5cea:	16 f4       	brtc	.+4      	; 0x5cf0 <jmp_inner_loop_320>
    5cec:	42 14       	cp	r4, r2
    5cee:	09 f0       	breq	.+2      	; 0x5cf2 <skip_jmp_inner_loop_320>

00005cf0 <jmp_inner_loop_320>:
    5cf0:	bb cf       	rjmp	.-138    	; 0x5c68 <inner_loop_320>

00005cf2 <skip_jmp_inner_loop_320>:
    5cf2:	44 24       	eor	r4, r4
    5cf4:	e8 94       	clt
    5cf6:	12 96       	adiw	r26, 0x02	; 2
    5cf8:	f7 01       	movw	r30, r14
    5cfa:	b3 94       	inc	r11
    5cfc:	09 f4       	brne	.+2      	; 0x5d00 <skip_inc_outercnt_h>
    5cfe:	c3 94       	inc	r12

00005d00 <skip_inc_outercnt_h>:
    5d00:	c3 14       	cp	r12, r3
    5d02:	10 f0       	brcs	.+4      	; 0x5d08 <jmp_outer_loop_320>
    5d04:	b2 14       	cp	r11, r2
    5d06:	09 f0       	breq	.+2      	; 0x5d0a <skip_jmp_outer_loop_320>

00005d08 <jmp_outer_loop_320>:
    5d08:	af cf       	rjmp	.-162    	; 0x5c68 <inner_loop_320>

00005d0a <skip_jmp_outer_loop_320>:
    5d0a:	ff 91       	pop	r31
    5d0c:	ef 91       	pop	r30
    5d0e:	df 91       	pop	r29
    5d10:	cf 91       	pop	r28
    5d12:	bf 91       	pop	r27
    5d14:	af 91       	pop	r26
    5d16:	3f 91       	pop	r19
    5d18:	2f 91       	pop	r18
    5d1a:	1f 91       	pop	r17
    5d1c:	0f 91       	pop	r16
    5d1e:	ff 90       	pop	r15
    5d20:	ef 90       	pop	r14
    5d22:	cf 90       	pop	r12
    5d24:	bf 90       	pop	r11
    5d26:	af 90       	pop	r10
    5d28:	9f 90       	pop	r9
    5d2a:	8f 90       	pop	r8
    5d2c:	6f 90       	pop	r6
    5d2e:	4f 90       	pop	r4
    5d30:	3f 90       	pop	r3
    5d32:	2f 90       	pop	r2
    5d34:	1f 90       	pop	r1
    5d36:	0f 90       	pop	r0
    5d38:	08 95       	ret

00005d3a <call_mulRed_asm_4093>:
    5d3a:	48 2f       	mov	r20, r24
    5d3c:	46 03       	mulsu	r20, r22
    5d3e:	20 2d       	mov	r18, r0
    5d40:	31 2d       	mov	r19, r1
    5d42:	44 27       	eor	r20, r20
    5d44:	11 20       	and	r1, r1
    5d46:	0a f4       	brpl	.+2      	; 0x5d4a <skip>
    5d48:	4a 95       	dec	r20

00005d4a <skip>:
    5d4a:	68 2f       	mov	r22, r24
    5d4c:	67 03       	mulsu	r22, r23
    5d4e:	30 0d       	add	r19, r0
    5d50:	41 1d       	adc	r20, r1
    5d52:	63 2f       	mov	r22, r19
    5d54:	45 95       	asr	r20
    5d56:	67 95       	ror	r22
    5d58:	45 95       	asr	r20
    5d5a:	67 95       	ror	r22
    5d5c:	45 95       	asr	r20
    5d5e:	67 95       	ror	r22
    5d60:	45 95       	asr	r20
    5d62:	67 95       	ror	r22
    5d64:	3f 70       	andi	r19, 0x0F	; 15
    5d66:	86 2f       	mov	r24, r22
    5d68:	94 2f       	mov	r25, r20
    5d6a:	88 0f       	add	r24, r24
    5d6c:	99 1f       	adc	r25, r25
    5d6e:	86 0f       	add	r24, r22
    5d70:	94 1f       	adc	r25, r20
    5d72:	82 0f       	add	r24, r18
    5d74:	93 1f       	adc	r25, r19
    5d76:	11 24       	eor	r1, r1
    5d78:	08 95       	ret

00005d7a <call_mulRed_asm_4096>:
    5d7a:	87 02       	muls	r24, r23
    5d7c:	30 2d       	mov	r19, r0
    5d7e:	78 2f       	mov	r23, r24
    5d80:	76 03       	mulsu	r23, r22
    5d82:	20 2d       	mov	r18, r0
    5d84:	31 0d       	add	r19, r1
    5d86:	82 2f       	mov	r24, r18
    5d88:	93 2f       	mov	r25, r19
    5d8a:	9f 70       	andi	r25, 0x0F	; 15
    5d8c:	11 24       	eor	r1, r1
    5d8e:	08 95       	ret

00005d90 <startRAM>:
    5d90:	af 93       	push	r26
    5d92:	bf 93       	push	r27
    5d94:	0f 93       	push	r16
    5d96:	ad b7       	in	r26, 0x3d	; 61
    5d98:	be b7       	in	r27, 0x3e	; 62
    5d9a:	07 ee       	ldi	r16, 0xE7	; 231

00005d9c <RAMSTARTLOOP>:
    5d9c:	b9 17       	cp	r27, r25
    5d9e:	11 f4       	brne	.+4      	; 0x5da4 <DO_START_LOOP>
    5da0:	a8 17       	cp	r26, r24
    5da2:	19 f0       	breq	.+6      	; 0x5daa <END>

00005da4 <DO_START_LOOP>:
    5da4:	0c 93       	st	X, r16
    5da6:	11 97       	sbiw	r26, 0x01	; 1
    5da8:	f9 cf       	rjmp	.-14     	; 0x5d9c <RAMSTARTLOOP>

00005daa <END>:
    5daa:	8d b7       	in	r24, 0x3d	; 61
    5dac:	9e b7       	in	r25, 0x3e	; 62
    5dae:	0f 91       	pop	r16
    5db0:	bf 91       	pop	r27
    5db2:	af 91       	pop	r26
    5db4:	08 95       	ret

00005db6 <endRAM>:
    5db6:	af 93       	push	r26
    5db8:	bf 93       	push	r27
    5dba:	0f 93       	push	r16
    5dbc:	1f 93       	push	r17
    5dbe:	2f 93       	push	r18
    5dc0:	ad b7       	in	r26, 0x3d	; 61
    5dc2:	be b7       	in	r27, 0x3e	; 62
    5dc4:	07 ee       	ldi	r16, 0xE7	; 231
    5dc6:	20 e0       	ldi	r18, 0x00	; 0

00005dc8 <RAMENDLOOP>:
    5dc8:	b7 32       	cpi	r27, 0x27	; 39
    5dca:	11 f4       	brne	.+4      	; 0x5dd0 <DO_END_LOOP>
    5dcc:	a0 30       	cpi	r26, 0x00	; 0
    5dce:	51 f0       	breq	.+20     	; 0x5de4 <END_E>

00005dd0 <DO_END_LOOP>:
    5dd0:	1c 91       	ld	r17, X
    5dd2:	11 97       	sbiw	r26, 0x01	; 1
    5dd4:	17 3e       	cpi	r17, 0xE7	; 231
    5dd6:	21 f4       	brne	.+8      	; 0x5de0 <NO_HIT>
    5dd8:	23 95       	inc	r18
    5dda:	20 31       	cpi	r18, 0x10	; 16
    5ddc:	19 f0       	breq	.+6      	; 0x5de4 <END_E>
    5dde:	f4 cf       	rjmp	.-24     	; 0x5dc8 <RAMENDLOOP>

00005de0 <NO_HIT>:
    5de0:	20 e0       	ldi	r18, 0x00	; 0
    5de2:	f2 cf       	rjmp	.-28     	; 0x5dc8 <RAMENDLOOP>

00005de4 <END_E>:
    5de4:	8a 2f       	mov	r24, r26
    5de6:	9b 2f       	mov	r25, r27
    5de8:	1f 97       	sbiw	r26, 0x0f	; 15
    5dea:	2f 91       	pop	r18
    5dec:	1f 91       	pop	r17
    5dee:	0f 91       	pop	r16
    5df0:	bf 91       	pop	r27
    5df2:	af 91       	pop	r26
    5df4:	08 95       	ret

00005df6 <mm24578>:
    5df6:	86 9f       	mul	r24, r22
    5df8:	90 01       	movw	r18, r0
    5dfa:	97 9f       	mul	r25, r23
    5dfc:	40 2d       	mov	r20, r0
    5dfe:	51 2d       	mov	r21, r1
    5e00:	96 9f       	mul	r25, r22
    5e02:	66 27       	eor	r22, r22
    5e04:	30 0d       	add	r19, r0
    5e06:	41 1d       	adc	r20, r1
    5e08:	56 1f       	adc	r21, r22
    5e0a:	87 9f       	mul	r24, r23
    5e0c:	30 0d       	add	r19, r0
    5e0e:	41 1d       	adc	r20, r1
    5e10:	56 1f       	adc	r21, r22
    5e12:	60 e0       	ldi	r22, 0x00	; 0
    5e14:	70 e0       	ldi	r23, 0x00	; 0
    5e16:	81 e0       	ldi	r24, 0x01	; 1
    5e18:	90 e3       	ldi	r25, 0x30	; 48
    5e1a:	26 17       	cp	r18, r22
    5e1c:	37 07       	cpc	r19, r23
    5e1e:	48 07       	cpc	r20, r24
    5e20:	59 07       	cpc	r21, r25
    5e22:	24 f0       	brlt	.+8      	; 0x5e2c <NOT_GREATER_U04_DUMMY>
    5e24:	37 1b       	sub	r19, r23
    5e26:	48 0b       	sbc	r20, r24
    5e28:	59 0b       	sbc	r21, r25
    5e2a:	04 c0       	rjmp	.+8      	; 0x5e34 <NOT_GREATER_U04>

00005e2c <NOT_GREATER_U04_DUMMY>:
    5e2c:	33 95       	inc	r19
    5e2e:	33 95       	inc	r19
    5e30:	3a 95       	dec	r19
    5e32:	3a 95       	dec	r19

00005e34 <NOT_GREATER_U04>:
    5e34:	96 95       	lsr	r25
    5e36:	87 95       	ror	r24
    5e38:	77 95       	ror	r23
    5e3a:	26 17       	cp	r18, r22
    5e3c:	37 07       	cpc	r19, r23
    5e3e:	48 07       	cpc	r20, r24
    5e40:	59 07       	cpc	r21, r25
    5e42:	24 f0       	brlt	.+8      	; 0x5e4c <NOT_GREATER_U03_DUMMY>
    5e44:	37 1b       	sub	r19, r23
    5e46:	48 0b       	sbc	r20, r24
    5e48:	59 0b       	sbc	r21, r25
    5e4a:	04 c0       	rjmp	.+8      	; 0x5e54 <NOT_GREATER_U03>

00005e4c <NOT_GREATER_U03_DUMMY>:
    5e4c:	33 95       	inc	r19
    5e4e:	33 95       	inc	r19
    5e50:	3a 95       	dec	r19
    5e52:	3a 95       	dec	r19

00005e54 <NOT_GREATER_U03>:
    5e54:	96 95       	lsr	r25
    5e56:	87 95       	ror	r24
    5e58:	77 95       	ror	r23
    5e5a:	26 17       	cp	r18, r22
    5e5c:	37 07       	cpc	r19, r23
    5e5e:	48 07       	cpc	r20, r24
    5e60:	59 07       	cpc	r21, r25
    5e62:	24 f0       	brlt	.+8      	; 0x5e6c <NOT_GREATER_U02_DUMMY>
    5e64:	37 1b       	sub	r19, r23
    5e66:	48 0b       	sbc	r20, r24
    5e68:	59 0b       	sbc	r21, r25
    5e6a:	04 c0       	rjmp	.+8      	; 0x5e74 <NOT_GREATER_U02>

00005e6c <NOT_GREATER_U02_DUMMY>:
    5e6c:	33 95       	inc	r19
    5e6e:	33 95       	inc	r19
    5e70:	3a 95       	dec	r19
    5e72:	3a 95       	dec	r19

00005e74 <NOT_GREATER_U02>:
    5e74:	96 95       	lsr	r25
    5e76:	87 95       	ror	r24
    5e78:	77 95       	ror	r23
    5e7a:	26 17       	cp	r18, r22
    5e7c:	37 07       	cpc	r19, r23
    5e7e:	48 07       	cpc	r20, r24
    5e80:	59 07       	cpc	r21, r25
    5e82:	24 f0       	brlt	.+8      	; 0x5e8c <NOT_GREATER_U01_DUMMY>
    5e84:	37 1b       	sub	r19, r23
    5e86:	48 0b       	sbc	r20, r24
    5e88:	59 0b       	sbc	r21, r25
    5e8a:	04 c0       	rjmp	.+8      	; 0x5e94 <NOT_GREATER_U01>

00005e8c <NOT_GREATER_U01_DUMMY>:
    5e8c:	33 95       	inc	r19
    5e8e:	33 95       	inc	r19
    5e90:	3a 95       	dec	r19
    5e92:	3a 95       	dec	r19

00005e94 <NOT_GREATER_U01>:
    5e94:	96 95       	lsr	r25
    5e96:	87 95       	ror	r24
    5e98:	77 95       	ror	r23
    5e9a:	26 17       	cp	r18, r22
    5e9c:	37 07       	cpc	r19, r23
    5e9e:	48 07       	cpc	r20, r24
    5ea0:	59 07       	cpc	r21, r25
    5ea2:	24 f0       	brlt	.+8      	; 0x5eac <NOT_GREATER_U0_DUMMY>
    5ea4:	37 1b       	sub	r19, r23
    5ea6:	48 0b       	sbc	r20, r24
    5ea8:	59 0b       	sbc	r21, r25
    5eaa:	04 c0       	rjmp	.+8      	; 0x5eb4 <NOT_GREATER_U0>

00005eac <NOT_GREATER_U0_DUMMY>:
    5eac:	33 95       	inc	r19
    5eae:	33 95       	inc	r19
    5eb0:	3a 95       	dec	r19
    5eb2:	3a 95       	dec	r19

00005eb4 <NOT_GREATER_U0>:
    5eb4:	96 95       	lsr	r25
    5eb6:	87 95       	ror	r24
    5eb8:	77 95       	ror	r23
    5eba:	26 17       	cp	r18, r22
    5ebc:	37 07       	cpc	r19, r23
    5ebe:	48 07       	cpc	r20, r24
    5ec0:	59 07       	cpc	r21, r25
    5ec2:	24 f0       	brlt	.+8      	; 0x5ecc <NOT_GREATER_U1_DUMMY>
    5ec4:	37 1b       	sub	r19, r23
    5ec6:	48 0b       	sbc	r20, r24
    5ec8:	59 0b       	sbc	r21, r25
    5eca:	04 c0       	rjmp	.+8      	; 0x5ed4 <NOT_GREATER_U1>

00005ecc <NOT_GREATER_U1_DUMMY>:
    5ecc:	33 95       	inc	r19
    5ece:	33 95       	inc	r19
    5ed0:	3a 95       	dec	r19
    5ed2:	3a 95       	dec	r19

00005ed4 <NOT_GREATER_U1>:
    5ed4:	96 95       	lsr	r25
    5ed6:	87 95       	ror	r24
    5ed8:	77 95       	ror	r23
    5eda:	26 17       	cp	r18, r22
    5edc:	37 07       	cpc	r19, r23
    5ede:	48 07       	cpc	r20, r24
    5ee0:	59 07       	cpc	r21, r25
    5ee2:	24 f0       	brlt	.+8      	; 0x5eec <NOT_GREATER_U2_DUMMY>
    5ee4:	37 1b       	sub	r19, r23
    5ee6:	48 0b       	sbc	r20, r24
    5ee8:	59 0b       	sbc	r21, r25
    5eea:	04 c0       	rjmp	.+8      	; 0x5ef4 <NOT_GREATER_U2>

00005eec <NOT_GREATER_U2_DUMMY>:
    5eec:	33 95       	inc	r19
    5eee:	33 95       	inc	r19
    5ef0:	3a 95       	dec	r19
    5ef2:	3a 95       	dec	r19

00005ef4 <NOT_GREATER_U2>:
    5ef4:	96 95       	lsr	r25
    5ef6:	87 95       	ror	r24
    5ef8:	77 95       	ror	r23
    5efa:	26 17       	cp	r18, r22
    5efc:	37 07       	cpc	r19, r23
    5efe:	48 07       	cpc	r20, r24
    5f00:	59 07       	cpc	r21, r25
    5f02:	24 f0       	brlt	.+8      	; 0x5f0c <NOT_GREATER_U3_DUMMY>
    5f04:	37 1b       	sub	r19, r23
    5f06:	48 0b       	sbc	r20, r24
    5f08:	59 0b       	sbc	r21, r25
    5f0a:	04 c0       	rjmp	.+8      	; 0x5f14 <NOT_GREATER_U3>

00005f0c <NOT_GREATER_U3_DUMMY>:
    5f0c:	33 95       	inc	r19
    5f0e:	33 95       	inc	r19
    5f10:	3a 95       	dec	r19
    5f12:	3a 95       	dec	r19

00005f14 <NOT_GREATER_U3>:
    5f14:	96 95       	lsr	r25
    5f16:	87 95       	ror	r24
    5f18:	77 95       	ror	r23
    5f1a:	f8 e0       	ldi	r31, 0x08	; 8

00005f1c <DO_WORK_X0>:
    5f1c:	26 17       	cp	r18, r22
    5f1e:	37 07       	cpc	r19, r23
    5f20:	48 07       	cpc	r20, r24
    5f22:	24 f0       	brlt	.+8      	; 0x5f2c <NOT_GREATER_X0_DUMMY>
    5f24:	26 1b       	sub	r18, r22
    5f26:	37 0b       	sbc	r19, r23
    5f28:	48 0b       	sbc	r20, r24
    5f2a:	04 c0       	rjmp	.+8      	; 0x5f34 <NOT_GREATER_X0>

00005f2c <NOT_GREATER_X0_DUMMY>:
    5f2c:	33 95       	inc	r19
    5f2e:	33 95       	inc	r19
    5f30:	3a 95       	dec	r19
    5f32:	3a 95       	dec	r19

00005f34 <NOT_GREATER_X0>:
    5f34:	86 95       	lsr	r24
    5f36:	77 95       	ror	r23
    5f38:	67 95       	ror	r22
    5f3a:	fa 95       	dec	r31
    5f3c:	09 f0       	breq	.+2      	; 0x5f40 <FINISHED>
    5f3e:	ee cf       	rjmp	.-36     	; 0x5f1c <DO_WORK_X0>

00005f40 <FINISHED>:
    5f40:	11 24       	eor	r1, r1
    5f42:	82 2f       	mov	r24, r18
    5f44:	93 2f       	mov	r25, r19
    5f46:	08 95       	ret

00005f48 <avr_trng_init>:
    5f48:	10 92 00 06 	sts	0x0600, r1	; 0x800600 <__TEXT_REGION_LENGTH__+0x700600>
    5f4c:	e0 e0       	ldi	r30, 0x00	; 0
    5f4e:	f2 e0       	ldi	r31, 0x02	; 2
    5f50:	80 81       	ld	r24, Z
    5f52:	81 60       	ori	r24, 0x01	; 1
    5f54:	80 83       	st	Z, r24
    5f56:	11 82       	std	Z+1, r1	; 0x01
    5f58:	82 e0       	ldi	r24, 0x02	; 2
    5f5a:	82 83       	std	Z+2, r24	; 0x02
    5f5c:	81 e0       	ldi	r24, 0x01	; 1
    5f5e:	84 83       	std	Z+4, r24	; 0x04
    5f60:	89 e1       	ldi	r24, 0x19	; 25
    5f62:	80 a3       	std	Z+32, r24	; 0x20
    5f64:	80 e2       	ldi	r24, 0x20	; 32
    5f66:	81 a3       	std	Z+33, r24	; 0x21
    5f68:	08 95       	ret

00005f6a <next_block_ptr>:
    5f6a:	bc 01       	movw	r22, r24
    5f6c:	40 e4       	ldi	r20, 0x40	; 64
    5f6e:	54 e2       	ldi	r21, 0x24	; 36
    5f70:	80 e3       	ldi	r24, 0x30	; 48
    5f72:	94 e2       	ldi	r25, 0x24	; 36
    5f74:	0e 94 ca 2f 	call	0x5f94	; 0x5f94 <AES_encrypt>
    5f78:	e0 e3       	ldi	r30, 0x30	; 48
    5f7a:	f4 e2       	ldi	r31, 0x24	; 36
    5f7c:	80 81       	ld	r24, Z
    5f7e:	91 81       	ldd	r25, Z+1	; 0x01
    5f80:	a2 81       	ldd	r26, Z+2	; 0x02
    5f82:	b3 81       	ldd	r27, Z+3	; 0x03
    5f84:	01 96       	adiw	r24, 0x01	; 1
    5f86:	a1 1d       	adc	r26, r1
    5f88:	b1 1d       	adc	r27, r1
    5f8a:	80 83       	st	Z, r24
    5f8c:	91 83       	std	Z+1, r25	; 0x01
    5f8e:	a2 83       	std	Z+2, r26	; 0x02
    5f90:	b3 83       	std	Z+3, r27	; 0x03
    5f92:	08 95       	ret

00005f94 <AES_encrypt>:
    5f94:	9c 01       	movw	r18, r24
    5f96:	cb 01       	movw	r24, r22
    5f98:	ba 01       	movw	r22, r20
    5f9a:	40 5f       	subi	r20, 0xF0	; 240
    5f9c:	5f 4f       	sbci	r21, 0xFF	; 255
    5f9e:	fb 01       	movw	r30, r22
    5fa0:	6f 5f       	subi	r22, 0xFF	; 255
    5fa2:	7f 4f       	sbci	r23, 0xFF	; 255
    5fa4:	e0 81       	ld	r30, Z
    5fa6:	e0 93 c3 00 	sts	0x00C3, r30	; 0x8000c3 <__TEXT_REGION_LENGTH__+0x7000c3>
    5faa:	46 17       	cp	r20, r22
    5fac:	57 07       	cpc	r21, r23
    5fae:	b9 f7       	brne	.-18     	; 0x5f9e <AES_encrypt+0xa>
    5fb0:	a9 01       	movw	r20, r18
    5fb2:	40 5f       	subi	r20, 0xF0	; 240
    5fb4:	5f 4f       	sbci	r21, 0xFF	; 255
    5fb6:	f9 01       	movw	r30, r18
    5fb8:	2f 5f       	subi	r18, 0xFF	; 255
    5fba:	3f 4f       	sbci	r19, 0xFF	; 255
    5fbc:	60 81       	ld	r22, Z
    5fbe:	60 93 c2 00 	sts	0x00C2, r22	; 0x8000c2 <__TEXT_REGION_LENGTH__+0x7000c2>
    5fc2:	42 17       	cp	r20, r18
    5fc4:	53 07       	cpc	r21, r19
    5fc6:	b9 f7       	brne	.-18     	; 0x5fb6 <AES_encrypt+0x22>
    5fc8:	20 91 c0 00 	lds	r18, 0x00C0	; 0x8000c0 <__TEXT_REGION_LENGTH__+0x7000c0>
    5fcc:	2f 76       	andi	r18, 0x6F	; 111
    5fce:	20 68       	ori	r18, 0x80	; 128
    5fd0:	20 93 c0 00 	sts	0x00C0, r18	; 0x8000c0 <__TEXT_REGION_LENGTH__+0x7000c0>
    5fd4:	20 91 c1 00 	lds	r18, 0x00C1	; 0x8000c1 <__TEXT_REGION_LENGTH__+0x7000c1>
    5fd8:	21 78       	andi	r18, 0x81	; 129
    5fda:	e1 f3       	breq	.-8      	; 0x5fd4 <AES_encrypt+0x40>
    5fdc:	20 91 c1 00 	lds	r18, 0x00C1	; 0x8000c1 <__TEXT_REGION_LENGTH__+0x7000c1>
    5fe0:	27 fd       	sbrc	r18, 7
    5fe2:	0d c0       	rjmp	.+26     	; 0x5ffe <AES_encrypt+0x6a>
    5fe4:	9c 01       	movw	r18, r24
    5fe6:	20 5f       	subi	r18, 0xF0	; 240
    5fe8:	3f 4f       	sbci	r19, 0xFF	; 255
    5fea:	fc 01       	movw	r30, r24
    5fec:	01 96       	adiw	r24, 0x01	; 1
    5fee:	40 91 c2 00 	lds	r20, 0x00C2	; 0x8000c2 <__TEXT_REGION_LENGTH__+0x7000c2>
    5ff2:	40 83       	st	Z, r20
    5ff4:	28 17       	cp	r18, r24
    5ff6:	39 07       	cpc	r19, r25
    5ff8:	c1 f7       	brne	.-16     	; 0x5fea <AES_encrypt+0x56>
    5ffa:	81 e0       	ldi	r24, 0x01	; 1
    5ffc:	08 95       	ret
    5ffe:	80 e0       	ldi	r24, 0x00	; 0
    6000:	08 95       	ret

00006002 <sample_gauss>:
    6002:	af 92       	push	r10
    6004:	bf 92       	push	r11
    6006:	df 92       	push	r13
    6008:	ef 92       	push	r14
    600a:	ff 92       	push	r15
    600c:	0f 93       	push	r16
    600e:	1f 93       	push	r17
    6010:	cf 93       	push	r28
    6012:	df 93       	push	r29
    6014:	78 2f       	mov	r23, r24
    6016:	5a 01       	movw	r10, r20
    6018:	a9 01       	movw	r20, r18
    601a:	d8 01       	movw	r26, r16
    601c:	1c 92       	st	X, r1
    601e:	80 e0       	ldi	r24, 0x00	; 0
    6020:	87 17       	cp	r24, r23
    6022:	88 f5       	brcc	.+98     	; 0x6086 <sample_gauss+0x84>
    6024:	8a 01       	movw	r16, r20
    6026:	30 e0       	ldi	r19, 0x00	; 0
    6028:	20 e0       	ldi	r18, 0x00	; 0
    602a:	90 e0       	ldi	r25, 0x00	; 0
    602c:	75 01       	movw	r14, r10
    602e:	68 9f       	mul	r22, r24
    6030:	e0 0c       	add	r14, r0
    6032:	f1 1c       	adc	r15, r1
    6034:	11 24       	eor	r1, r1
    6036:	22 c0       	rjmp	.+68     	; 0x607c <sample_gauss+0x7a>
    6038:	f7 01       	movw	r30, r14
    603a:	e2 0f       	add	r30, r18
    603c:	f3 1f       	adc	r31, r19
    603e:	e4 91       	lpm	r30, Z
    6040:	9d 15       	cp	r25, r13
    6042:	08 f4       	brcc	.+2      	; 0x6046 <sample_gauss+0x44>
    6044:	92 2f       	mov	r25, r18
    6046:	e8 01       	movw	r28, r16
    6048:	f9 91       	ld	r31, Y+
    604a:	8e 01       	movw	r16, r28
    604c:	fe 17       	cp	r31, r30
    604e:	90 f4       	brcc	.+36     	; 0x6074 <sample_gauss+0x72>
    6050:	9f 5f       	subi	r25, 0xFF	; 255
    6052:	9c 93       	st	X, r25
    6054:	24 0f       	add	r18, r20
    6056:	35 1f       	adc	r19, r21
    6058:	f9 01       	movw	r30, r18
    605a:	91 81       	ldd	r25, Z+1	; 0x01
    605c:	97 ff       	sbrs	r25, 7
    605e:	81 95       	neg	r24
    6060:	df 91       	pop	r29
    6062:	cf 91       	pop	r28
    6064:	1f 91       	pop	r17
    6066:	0f 91       	pop	r16
    6068:	ff 90       	pop	r15
    606a:	ef 90       	pop	r14
    606c:	df 90       	pop	r13
    606e:	bf 90       	pop	r11
    6070:	af 90       	pop	r10
    6072:	08 95       	ret
    6074:	2f 5f       	subi	r18, 0xFF	; 255
    6076:	3f 4f       	sbci	r19, 0xFF	; 255
    6078:	ef 17       	cp	r30, r31
    607a:	18 f0       	brcs	.+6      	; 0x6082 <sample_gauss+0x80>
    607c:	d2 2e       	mov	r13, r18
    607e:	26 17       	cp	r18, r22
    6080:	d8 f2       	brcs	.-74     	; 0x6038 <sample_gauss+0x36>
    6082:	8f 5f       	subi	r24, 0xFF	; 255
    6084:	cd cf       	rjmp	.-102    	; 0x6020 <sample_gauss+0x1e>
    6086:	80 e0       	ldi	r24, 0x00	; 0
    6088:	eb cf       	rjmp	.-42     	; 0x6060 <sample_gauss+0x5e>

0000608a <get_gauss_poly_4093>:
    608a:	7f 92       	push	r7
    608c:	8f 92       	push	r8
    608e:	9f 92       	push	r9
    6090:	af 92       	push	r10
    6092:	bf 92       	push	r11
    6094:	cf 92       	push	r12
    6096:	df 92       	push	r13
    6098:	ef 92       	push	r14
    609a:	ff 92       	push	r15
    609c:	0f 93       	push	r16
    609e:	1f 93       	push	r17
    60a0:	cf 93       	push	r28
    60a2:	df 93       	push	r29
    60a4:	cd b7       	in	r28, 0x3d	; 61
    60a6:	de b7       	in	r29, 0x3e	; 62
    60a8:	e1 97       	sbiw	r28, 0x31	; 49
    60aa:	cd bf       	out	0x3d, r28	; 61
    60ac:	de bf       	out	0x3e, r29	; 62
    60ae:	4b 01       	movw	r8, r22
    60b0:	6a 01       	movw	r12, r20
    60b2:	19 aa       	std	Y+49, r1	; 0x31
    60b4:	7c 01       	movw	r14, r24
    60b6:	b1 2c       	mov	r11, r1
    60b8:	a1 2c       	mov	r10, r1
    60ba:	8e ef       	ldi	r24, 0xFE	; 254
    60bc:	78 2e       	mov	r7, r24
    60be:	ac 14       	cp	r10, r12
    60c0:	bd 04       	cpc	r11, r13
    60c2:	89 f4       	brne	.+34     	; 0x60e6 <get_gauss_poly_4093+0x5c>
    60c4:	e1 96       	adiw	r28, 0x31	; 49
    60c6:	cd bf       	out	0x3d, r28	; 61
    60c8:	de bf       	out	0x3e, r29	; 62
    60ca:	df 91       	pop	r29
    60cc:	cf 91       	pop	r28
    60ce:	1f 91       	pop	r17
    60d0:	0f 91       	pop	r16
    60d2:	ff 90       	pop	r15
    60d4:	ef 90       	pop	r14
    60d6:	df 90       	pop	r13
    60d8:	cf 90       	pop	r12
    60da:	bf 90       	pop	r11
    60dc:	af 90       	pop	r10
    60de:	9f 90       	pop	r9
    60e0:	8f 90       	pop	r8
    60e2:	7f 90       	pop	r7
    60e4:	08 95       	ret
    60e6:	23 e2       	ldi	r18, 0x23	; 35
    60e8:	27 15       	cp	r18, r7
    60ea:	68 f4       	brcc	.+26     	; 0x6106 <get_gauss_poly_4093+0x7c>
    60ec:	ce 01       	movw	r24, r28
    60ee:	01 96       	adiw	r24, 0x01	; 1
    60f0:	0e 94 b5 2f 	call	0x5f6a	; 0x5f6a <next_block_ptr>
    60f4:	ce 01       	movw	r24, r28
    60f6:	41 96       	adiw	r24, 0x11	; 17
    60f8:	0e 94 b5 2f 	call	0x5f6a	; 0x5f6a <next_block_ptr>
    60fc:	ce 01       	movw	r24, r28
    60fe:	81 96       	adiw	r24, 0x21	; 33
    6100:	0e 94 b5 2f 	call	0x5f6a	; 0x5f6a <next_block_ptr>
    6104:	71 2c       	mov	r7, r1
    6106:	21 e0       	ldi	r18, 0x01	; 1
    6108:	30 e0       	ldi	r19, 0x00	; 0
    610a:	2c 0f       	add	r18, r28
    610c:	3d 1f       	adc	r19, r29
    610e:	27 0d       	add	r18, r7
    6110:	31 1d       	adc	r19, r1
    6112:	8e 01       	movw	r16, r28
    6114:	0f 5c       	subi	r16, 0xCF	; 207
    6116:	1f 4f       	sbci	r17, 0xFF	; 255
    6118:	48 ef       	ldi	r20, 0xF8	; 248
    611a:	51 e0       	ldi	r21, 0x01	; 1
    611c:	6c e0       	ldi	r22, 0x0C	; 12
    611e:	85 e2       	ldi	r24, 0x25	; 37
    6120:	0e 94 01 30 	call	0x6002	; 0x6002 <sample_gauss>
    6124:	28 2f       	mov	r18, r24
    6126:	89 a9       	ldd	r24, Y+49	; 0x31
    6128:	78 0e       	add	r7, r24
    612a:	82 2f       	mov	r24, r18
    612c:	02 2e       	mov	r0, r18
    612e:	00 0c       	add	r0, r0
    6130:	99 0b       	sbc	r25, r25
    6132:	27 ff       	sbrs	r18, 7
    6134:	02 c0       	rjmp	.+4      	; 0x613a <get_gauss_poly_4093+0xb0>
    6136:	83 50       	subi	r24, 0x03	; 3
    6138:	90 4f       	sbci	r25, 0xF0	; 240
    613a:	e1 e0       	ldi	r30, 0x01	; 1
    613c:	8e 16       	cp	r8, r30
    613e:	91 04       	cpc	r9, r1
    6140:	49 f4       	brne	.+18     	; 0x6154 <get_gauss_poly_4093+0xca>
    6142:	f7 01       	movw	r30, r14
    6144:	20 81       	ld	r18, Z
    6146:	31 81       	ldd	r19, Z+1	; 0x01
    6148:	82 0f       	add	r24, r18
    614a:	93 1f       	adc	r25, r19
    614c:	8e 3f       	cpi	r24, 0xFE	; 254
    614e:	ff e0       	ldi	r31, 0x0F	; 15
    6150:	9f 07       	cpc	r25, r31
    6152:	50 f4       	brcc	.+20     	; 0x6168 <get_gauss_poly_4093+0xde>
    6154:	f7 01       	movw	r30, r14
    6156:	80 83       	st	Z, r24
    6158:	91 83       	std	Z+1, r25	; 0x01
    615a:	ff ef       	ldi	r31, 0xFF	; 255
    615c:	af 1a       	sub	r10, r31
    615e:	bf 0a       	sbc	r11, r31
    6160:	22 e0       	ldi	r18, 0x02	; 2
    6162:	e2 0e       	add	r14, r18
    6164:	f1 1c       	adc	r15, r1
    6166:	ab cf       	rjmp	.-170    	; 0x60be <get_gauss_poly_4093+0x34>
    6168:	8d 5f       	subi	r24, 0xFD	; 253
    616a:	9f 40       	sbci	r25, 0x0F	; 15
    616c:	f3 cf       	rjmp	.-26     	; 0x6154 <get_gauss_poly_4093+0xca>

0000616e <get_gauss_poly_4093_posneg>:
    616e:	7f 92       	push	r7
    6170:	8f 92       	push	r8
    6172:	9f 92       	push	r9
    6174:	af 92       	push	r10
    6176:	bf 92       	push	r11
    6178:	cf 92       	push	r12
    617a:	df 92       	push	r13
    617c:	ef 92       	push	r14
    617e:	ff 92       	push	r15
    6180:	0f 93       	push	r16
    6182:	1f 93       	push	r17
    6184:	cf 93       	push	r28
    6186:	df 93       	push	r29
    6188:	cd b7       	in	r28, 0x3d	; 61
    618a:	de b7       	in	r29, 0x3e	; 62
    618c:	e1 97       	sbiw	r28, 0x31	; 49
    618e:	cd bf       	out	0x3d, r28	; 61
    6190:	de bf       	out	0x3e, r29	; 62
    6192:	4b 01       	movw	r8, r22
    6194:	6a 01       	movw	r12, r20
    6196:	19 aa       	std	Y+49, r1	; 0x31
    6198:	7c 01       	movw	r14, r24
    619a:	b1 2c       	mov	r11, r1
    619c:	a1 2c       	mov	r10, r1
    619e:	8e ef       	ldi	r24, 0xFE	; 254
    61a0:	78 2e       	mov	r7, r24
    61a2:	ac 14       	cp	r10, r12
    61a4:	bd 04       	cpc	r11, r13
    61a6:	89 f4       	brne	.+34     	; 0x61ca <get_gauss_poly_4093_posneg+0x5c>
    61a8:	e1 96       	adiw	r28, 0x31	; 49
    61aa:	cd bf       	out	0x3d, r28	; 61
    61ac:	de bf       	out	0x3e, r29	; 62
    61ae:	df 91       	pop	r29
    61b0:	cf 91       	pop	r28
    61b2:	1f 91       	pop	r17
    61b4:	0f 91       	pop	r16
    61b6:	ff 90       	pop	r15
    61b8:	ef 90       	pop	r14
    61ba:	df 90       	pop	r13
    61bc:	cf 90       	pop	r12
    61be:	bf 90       	pop	r11
    61c0:	af 90       	pop	r10
    61c2:	9f 90       	pop	r9
    61c4:	8f 90       	pop	r8
    61c6:	7f 90       	pop	r7
    61c8:	08 95       	ret
    61ca:	23 e2       	ldi	r18, 0x23	; 35
    61cc:	27 15       	cp	r18, r7
    61ce:	68 f4       	brcc	.+26     	; 0x61ea <get_gauss_poly_4093_posneg+0x7c>
    61d0:	ce 01       	movw	r24, r28
    61d2:	01 96       	adiw	r24, 0x01	; 1
    61d4:	0e 94 b5 2f 	call	0x5f6a	; 0x5f6a <next_block_ptr>
    61d8:	ce 01       	movw	r24, r28
    61da:	41 96       	adiw	r24, 0x11	; 17
    61dc:	0e 94 b5 2f 	call	0x5f6a	; 0x5f6a <next_block_ptr>
    61e0:	ce 01       	movw	r24, r28
    61e2:	81 96       	adiw	r24, 0x21	; 33
    61e4:	0e 94 b5 2f 	call	0x5f6a	; 0x5f6a <next_block_ptr>
    61e8:	71 2c       	mov	r7, r1
    61ea:	21 e0       	ldi	r18, 0x01	; 1
    61ec:	30 e0       	ldi	r19, 0x00	; 0
    61ee:	2c 0f       	add	r18, r28
    61f0:	3d 1f       	adc	r19, r29
    61f2:	27 0d       	add	r18, r7
    61f4:	31 1d       	adc	r19, r1
    61f6:	8e 01       	movw	r16, r28
    61f8:	0f 5c       	subi	r16, 0xCF	; 207
    61fa:	1f 4f       	sbci	r17, 0xFF	; 255
    61fc:	48 ef       	ldi	r20, 0xF8	; 248
    61fe:	51 e0       	ldi	r21, 0x01	; 1
    6200:	6c e0       	ldi	r22, 0x0C	; 12
    6202:	85 e2       	ldi	r24, 0x25	; 37
    6204:	0e 94 01 30 	call	0x6002	; 0x6002 <sample_gauss>
    6208:	99 a9       	ldd	r25, Y+49	; 0x31
    620a:	79 0e       	add	r7, r25
    620c:	08 2e       	mov	r0, r24
    620e:	00 0c       	add	r0, r0
    6210:	99 0b       	sbc	r25, r25
    6212:	e1 e0       	ldi	r30, 0x01	; 1
    6214:	8e 16       	cp	r8, r30
    6216:	91 04       	cpc	r9, r1
    6218:	49 f4       	brne	.+18     	; 0x622c <get_gauss_poly_4093_posneg+0xbe>
    621a:	f7 01       	movw	r30, r14
    621c:	20 81       	ld	r18, Z
    621e:	31 81       	ldd	r19, Z+1	; 0x01
    6220:	82 0f       	add	r24, r18
    6222:	93 1f       	adc	r25, r19
    6224:	8e 3f       	cpi	r24, 0xFE	; 254
    6226:	ff e0       	ldi	r31, 0x0F	; 15
    6228:	9f 07       	cpc	r25, r31
    622a:	50 f4       	brcc	.+20     	; 0x6240 <get_gauss_poly_4093_posneg+0xd2>
    622c:	f7 01       	movw	r30, r14
    622e:	80 83       	st	Z, r24
    6230:	91 83       	std	Z+1, r25	; 0x01
    6232:	ff ef       	ldi	r31, 0xFF	; 255
    6234:	af 1a       	sub	r10, r31
    6236:	bf 0a       	sbc	r11, r31
    6238:	22 e0       	ldi	r18, 0x02	; 2
    623a:	e2 0e       	add	r14, r18
    623c:	f1 1c       	adc	r15, r1
    623e:	b1 cf       	rjmp	.-158    	; 0x61a2 <get_gauss_poly_4093_posneg+0x34>
    6240:	8d 5f       	subi	r24, 0xFD	; 253
    6242:	9f 40       	sbci	r25, 0x0F	; 15
    6244:	f3 cf       	rjmp	.-26     	; 0x622c <get_gauss_poly_4093_posneg+0xbe>

00006246 <get_gauss_poly_4096>:
    6246:	7f 92       	push	r7
    6248:	8f 92       	push	r8
    624a:	9f 92       	push	r9
    624c:	af 92       	push	r10
    624e:	bf 92       	push	r11
    6250:	cf 92       	push	r12
    6252:	df 92       	push	r13
    6254:	ef 92       	push	r14
    6256:	ff 92       	push	r15
    6258:	0f 93       	push	r16
    625a:	1f 93       	push	r17
    625c:	cf 93       	push	r28
    625e:	df 93       	push	r29
    6260:	cd b7       	in	r28, 0x3d	; 61
    6262:	de b7       	in	r29, 0x3e	; 62
    6264:	e1 97       	sbiw	r28, 0x31	; 49
    6266:	cd bf       	out	0x3d, r28	; 61
    6268:	de bf       	out	0x3e, r29	; 62
    626a:	4b 01       	movw	r8, r22
    626c:	6a 01       	movw	r12, r20
    626e:	19 aa       	std	Y+49, r1	; 0x31
    6270:	7c 01       	movw	r14, r24
    6272:	b1 2c       	mov	r11, r1
    6274:	a1 2c       	mov	r10, r1
    6276:	8e ef       	ldi	r24, 0xFE	; 254
    6278:	78 2e       	mov	r7, r24
    627a:	ac 14       	cp	r10, r12
    627c:	bd 04       	cpc	r11, r13
    627e:	89 f4       	brne	.+34     	; 0x62a2 <get_gauss_poly_4096+0x5c>
    6280:	e1 96       	adiw	r28, 0x31	; 49
    6282:	cd bf       	out	0x3d, r28	; 61
    6284:	de bf       	out	0x3e, r29	; 62
    6286:	df 91       	pop	r29
    6288:	cf 91       	pop	r28
    628a:	1f 91       	pop	r17
    628c:	0f 91       	pop	r16
    628e:	ff 90       	pop	r15
    6290:	ef 90       	pop	r14
    6292:	df 90       	pop	r13
    6294:	cf 90       	pop	r12
    6296:	bf 90       	pop	r11
    6298:	af 90       	pop	r10
    629a:	9f 90       	pop	r9
    629c:	8f 90       	pop	r8
    629e:	7f 90       	pop	r7
    62a0:	08 95       	ret
    62a2:	23 e2       	ldi	r18, 0x23	; 35
    62a4:	27 15       	cp	r18, r7
    62a6:	68 f4       	brcc	.+26     	; 0x62c2 <get_gauss_poly_4096+0x7c>
    62a8:	ce 01       	movw	r24, r28
    62aa:	01 96       	adiw	r24, 0x01	; 1
    62ac:	0e 94 b5 2f 	call	0x5f6a	; 0x5f6a <next_block_ptr>
    62b0:	ce 01       	movw	r24, r28
    62b2:	41 96       	adiw	r24, 0x11	; 17
    62b4:	0e 94 b5 2f 	call	0x5f6a	; 0x5f6a <next_block_ptr>
    62b8:	ce 01       	movw	r24, r28
    62ba:	81 96       	adiw	r24, 0x21	; 33
    62bc:	0e 94 b5 2f 	call	0x5f6a	; 0x5f6a <next_block_ptr>
    62c0:	71 2c       	mov	r7, r1
    62c2:	21 e0       	ldi	r18, 0x01	; 1
    62c4:	30 e0       	ldi	r19, 0x00	; 0
    62c6:	2c 0f       	add	r18, r28
    62c8:	3d 1f       	adc	r19, r29
    62ca:	27 0d       	add	r18, r7
    62cc:	31 1d       	adc	r19, r1
    62ce:	8e 01       	movw	r16, r28
    62d0:	0f 5c       	subi	r16, 0xCF	; 207
    62d2:	1f 4f       	sbci	r17, 0xFF	; 255
    62d4:	44 eb       	ldi	r20, 0xB4	; 180
    62d6:	53 e0       	ldi	r21, 0x03	; 3
    62d8:	6c e0       	ldi	r22, 0x0C	; 12
    62da:	85 e2       	ldi	r24, 0x25	; 37
    62dc:	0e 94 01 30 	call	0x6002	; 0x6002 <sample_gauss>
    62e0:	28 2f       	mov	r18, r24
    62e2:	89 a9       	ldd	r24, Y+49	; 0x31
    62e4:	78 0e       	add	r7, r24
    62e6:	82 2f       	mov	r24, r18
    62e8:	02 2e       	mov	r0, r18
    62ea:	00 0c       	add	r0, r0
    62ec:	99 0b       	sbc	r25, r25
    62ee:	27 fd       	sbrc	r18, 7
    62f0:	90 5f       	subi	r25, 0xF0	; 240
    62f2:	e1 e0       	ldi	r30, 0x01	; 1
    62f4:	8e 16       	cp	r8, r30
    62f6:	91 04       	cpc	r9, r1
    62f8:	79 f4       	brne	.+30     	; 0x6318 <get_gauss_poly_4096+0xd2>
    62fa:	f7 01       	movw	r30, r14
    62fc:	20 81       	ld	r18, Z
    62fe:	31 81       	ldd	r19, Z+1	; 0x01
    6300:	82 0f       	add	r24, r18
    6302:	93 1f       	adc	r25, r19
    6304:	9f 70       	andi	r25, 0x0F	; 15
    6306:	80 83       	st	Z, r24
    6308:	91 83       	std	Z+1, r25	; 0x01
    630a:	ff ef       	ldi	r31, 0xFF	; 255
    630c:	af 1a       	sub	r10, r31
    630e:	bf 0a       	sbc	r11, r31
    6310:	22 e0       	ldi	r18, 0x02	; 2
    6312:	e2 0e       	add	r14, r18
    6314:	f1 1c       	adc	r15, r1
    6316:	b1 cf       	rjmp	.-158    	; 0x627a <get_gauss_poly_4096+0x34>
    6318:	f7 01       	movw	r30, r14
    631a:	f5 cf       	rjmp	.-22     	; 0x6306 <get_gauss_poly_4096+0xc0>

0000631c <get_gauss_poly_4096_posneg>:
    631c:	7f 92       	push	r7
    631e:	8f 92       	push	r8
    6320:	9f 92       	push	r9
    6322:	af 92       	push	r10
    6324:	bf 92       	push	r11
    6326:	cf 92       	push	r12
    6328:	df 92       	push	r13
    632a:	ef 92       	push	r14
    632c:	ff 92       	push	r15
    632e:	0f 93       	push	r16
    6330:	1f 93       	push	r17
    6332:	cf 93       	push	r28
    6334:	df 93       	push	r29
    6336:	cd b7       	in	r28, 0x3d	; 61
    6338:	de b7       	in	r29, 0x3e	; 62
    633a:	e1 97       	sbiw	r28, 0x31	; 49
    633c:	cd bf       	out	0x3d, r28	; 61
    633e:	de bf       	out	0x3e, r29	; 62
    6340:	4b 01       	movw	r8, r22
    6342:	6a 01       	movw	r12, r20
    6344:	19 aa       	std	Y+49, r1	; 0x31
    6346:	7c 01       	movw	r14, r24
    6348:	b1 2c       	mov	r11, r1
    634a:	a1 2c       	mov	r10, r1
    634c:	8e ef       	ldi	r24, 0xFE	; 254
    634e:	78 2e       	mov	r7, r24
    6350:	ac 14       	cp	r10, r12
    6352:	bd 04       	cpc	r11, r13
    6354:	89 f4       	brne	.+34     	; 0x6378 <get_gauss_poly_4096_posneg+0x5c>
    6356:	e1 96       	adiw	r28, 0x31	; 49
    6358:	cd bf       	out	0x3d, r28	; 61
    635a:	de bf       	out	0x3e, r29	; 62
    635c:	df 91       	pop	r29
    635e:	cf 91       	pop	r28
    6360:	1f 91       	pop	r17
    6362:	0f 91       	pop	r16
    6364:	ff 90       	pop	r15
    6366:	ef 90       	pop	r14
    6368:	df 90       	pop	r13
    636a:	cf 90       	pop	r12
    636c:	bf 90       	pop	r11
    636e:	af 90       	pop	r10
    6370:	9f 90       	pop	r9
    6372:	8f 90       	pop	r8
    6374:	7f 90       	pop	r7
    6376:	08 95       	ret
    6378:	23 e2       	ldi	r18, 0x23	; 35
    637a:	27 15       	cp	r18, r7
    637c:	68 f4       	brcc	.+26     	; 0x6398 <get_gauss_poly_4096_posneg+0x7c>
    637e:	ce 01       	movw	r24, r28
    6380:	01 96       	adiw	r24, 0x01	; 1
    6382:	0e 94 b5 2f 	call	0x5f6a	; 0x5f6a <next_block_ptr>
    6386:	ce 01       	movw	r24, r28
    6388:	41 96       	adiw	r24, 0x11	; 17
    638a:	0e 94 b5 2f 	call	0x5f6a	; 0x5f6a <next_block_ptr>
    638e:	ce 01       	movw	r24, r28
    6390:	81 96       	adiw	r24, 0x21	; 33
    6392:	0e 94 b5 2f 	call	0x5f6a	; 0x5f6a <next_block_ptr>
    6396:	71 2c       	mov	r7, r1
    6398:	21 e0       	ldi	r18, 0x01	; 1
    639a:	30 e0       	ldi	r19, 0x00	; 0
    639c:	2c 0f       	add	r18, r28
    639e:	3d 1f       	adc	r19, r29
    63a0:	27 0d       	add	r18, r7
    63a2:	31 1d       	adc	r19, r1
    63a4:	8e 01       	movw	r16, r28
    63a6:	0f 5c       	subi	r16, 0xCF	; 207
    63a8:	1f 4f       	sbci	r17, 0xFF	; 255
    63aa:	44 eb       	ldi	r20, 0xB4	; 180
    63ac:	53 e0       	ldi	r21, 0x03	; 3
    63ae:	6c e0       	ldi	r22, 0x0C	; 12
    63b0:	85 e2       	ldi	r24, 0x25	; 37
    63b2:	0e 94 01 30 	call	0x6002	; 0x6002 <sample_gauss>
    63b6:	99 a9       	ldd	r25, Y+49	; 0x31
    63b8:	79 0e       	add	r7, r25
    63ba:	08 2e       	mov	r0, r24
    63bc:	00 0c       	add	r0, r0
    63be:	99 0b       	sbc	r25, r25
    63c0:	e1 e0       	ldi	r30, 0x01	; 1
    63c2:	8e 16       	cp	r8, r30
    63c4:	91 04       	cpc	r9, r1
    63c6:	91 f4       	brne	.+36     	; 0x63ec <get_gauss_poly_4096_posneg+0xd0>
    63c8:	f7 01       	movw	r30, r14
    63ca:	20 81       	ld	r18, Z
    63cc:	31 81       	ldd	r19, Z+1	; 0x01
    63ce:	82 0f       	add	r24, r18
    63d0:	93 1f       	adc	r25, r19
    63d2:	91 95       	neg	r25
    63d4:	81 95       	neg	r24
    63d6:	91 09       	sbc	r25, r1
    63d8:	9f 70       	andi	r25, 0x0F	; 15
    63da:	80 83       	st	Z, r24
    63dc:	91 83       	std	Z+1, r25	; 0x01
    63de:	ff ef       	ldi	r31, 0xFF	; 255
    63e0:	af 1a       	sub	r10, r31
    63e2:	bf 0a       	sbc	r11, r31
    63e4:	22 e0       	ldi	r18, 0x02	; 2
    63e6:	e2 0e       	add	r14, r18
    63e8:	f1 1c       	adc	r15, r1
    63ea:	b2 cf       	rjmp	.-156    	; 0x6350 <get_gauss_poly_4096_posneg+0x34>
    63ec:	f7 01       	movw	r30, r14
    63ee:	f5 cf       	rjmp	.-22     	; 0x63da <get_gauss_poly_4096_posneg+0xbe>

000063f0 <set_max_recursion_stages>:
    63f0:	80 93 06 20 	sts	0x2006, r24	; 0x802006 <max_recursion_stages>
    63f4:	08 95       	ret

000063f6 <reduce>:
    63f6:	0f 93       	push	r16
    63f8:	1f 93       	push	r17
    63fa:	cf 93       	push	r28
    63fc:	df 93       	push	r29
    63fe:	8b 01       	movw	r16, r22
    6400:	ba 01       	movw	r22, r20
    6402:	fc 01       	movw	r30, r24
    6404:	ea 01       	movw	r28, r20
    6406:	cc 0f       	add	r28, r28
    6408:	dd 1f       	adc	r29, r29
    640a:	c8 0f       	add	r28, r24
    640c:	d9 1f       	adc	r29, r25
    640e:	50 e0       	ldi	r21, 0x00	; 0
    6410:	40 e0       	ldi	r20, 0x00	; 0
    6412:	46 17       	cp	r20, r22
    6414:	57 07       	cpc	r21, r23
    6416:	29 f4       	brne	.+10     	; 0x6422 <reduce+0x2c>
    6418:	df 91       	pop	r29
    641a:	cf 91       	pop	r28
    641c:	1f 91       	pop	r17
    641e:	0f 91       	pop	r16
    6420:	08 95       	ret
    6422:	81 91       	ld	r24, Z+
    6424:	91 91       	ld	r25, Z+
    6426:	29 91       	ld	r18, Y+
    6428:	39 91       	ld	r19, Y+
    642a:	82 1b       	sub	r24, r18
    642c:	93 0b       	sbc	r25, r19
    642e:	9a 01       	movw	r18, r20
    6430:	22 0f       	add	r18, r18
    6432:	33 1f       	adc	r19, r19
    6434:	20 0f       	add	r18, r16
    6436:	31 1f       	adc	r19, r17
    6438:	97 fd       	sbrc	r25, 7
    643a:	06 c0       	rjmp	.+12     	; 0x6448 <reduce+0x52>
    643c:	d9 01       	movw	r26, r18
    643e:	8d 93       	st	X+, r24
    6440:	9c 93       	st	X, r25
    6442:	4f 5f       	subi	r20, 0xFF	; 255
    6444:	5f 4f       	sbci	r21, 0xFF	; 255
    6446:	e5 cf       	rjmp	.-54     	; 0x6412 <reduce+0x1c>
    6448:	83 50       	subi	r24, 0x03	; 3
    644a:	90 4f       	sbci	r25, 0xF0	; 240
    644c:	f7 cf       	rjmp	.-18     	; 0x643c <reduce+0x46>

0000644e <karatsuba_recursive>:
    644e:	2f 92       	push	r2
    6450:	3f 92       	push	r3
    6452:	4f 92       	push	r4
    6454:	5f 92       	push	r5
    6456:	6f 92       	push	r6
    6458:	7f 92       	push	r7
    645a:	8f 92       	push	r8
    645c:	9f 92       	push	r9
    645e:	af 92       	push	r10
    6460:	bf 92       	push	r11
    6462:	cf 92       	push	r12
    6464:	df 92       	push	r13
    6466:	ef 92       	push	r14
    6468:	ff 92       	push	r15
    646a:	0f 93       	push	r16
    646c:	1f 93       	push	r17
    646e:	cf 93       	push	r28
    6470:	df 93       	push	r29
    6472:	cd b7       	in	r28, 0x3d	; 61
    6474:	de b7       	in	r29, 0x3e	; 62
    6476:	28 97       	sbiw	r28, 0x08	; 8
    6478:	cd bf       	out	0x3d, r28	; 61
    647a:	de bf       	out	0x3e, r29	; 62
    647c:	2c 01       	movw	r4, r24
    647e:	3b 01       	movw	r6, r22
    6480:	7a 01       	movw	r14, r20
    6482:	59 01       	movw	r10, r18
    6484:	10 2f       	mov	r17, r16
    6486:	8d b7       	in	r24, 0x3d	; 61
    6488:	9e b7       	in	r25, 0x3e	; 62
    648a:	8f 83       	std	Y+7, r24	; 0x07
    648c:	98 87       	std	Y+8, r25	; 0x08
    648e:	19 01       	movw	r2, r18
    6490:	22 0c       	add	r2, r2
    6492:	33 1c       	adc	r3, r3
    6494:	ed b7       	in	r30, 0x3d	; 61
    6496:	fe b7       	in	r31, 0x3e	; 62
    6498:	e2 19       	sub	r30, r2
    649a:	f3 09       	sbc	r31, r3
    649c:	ed bf       	out	0x3d, r30	; 61
    649e:	fe bf       	out	0x3e, r31	; 62
    64a0:	8d b7       	in	r24, 0x3d	; 61
    64a2:	9e b7       	in	r25, 0x3e	; 62
    64a4:	01 96       	adiw	r24, 0x01	; 1
    64a6:	4c 01       	movw	r8, r24
    64a8:	f9 01       	movw	r30, r18
    64aa:	e1 70       	andi	r30, 0x01	; 1
    64ac:	ff 27       	eor	r31, r31
    64ae:	ed 83       	std	Y+5, r30	; 0x05
    64b0:	fe 83       	std	Y+6, r31	; 0x06
    64b2:	20 fd       	sbrc	r18, 0
    64b4:	84 c0       	rjmp	.+264    	; 0x65be <karatsuba_recursive+0x170>
    64b6:	80 91 06 20 	lds	r24, 0x2006	; 0x802006 <max_recursion_stages>
    64ba:	80 17       	cp	r24, r16
    64bc:	09 f4       	brne	.+2      	; 0x64c0 <karatsuba_recursive+0x72>
    64be:	7f c0       	rjmp	.+254    	; 0x65be <karatsuba_recursive+0x170>
    64c0:	69 01       	movw	r12, r18
    64c2:	d6 94       	lsr	r13
    64c4:	c7 94       	ror	r12
    64c6:	60 e0       	ldi	r22, 0x00	; 0
    64c8:	86 2f       	mov	r24, r22
    64ca:	90 e0       	ldi	r25, 0x00	; 0
    64cc:	8c 15       	cp	r24, r12
    64ce:	9d 05       	cpc	r25, r13
    64d0:	08 f4       	brcc	.+2      	; 0x64d4 <karatsuba_recursive+0x86>
    64d2:	b9 c0       	rjmp	.+370    	; 0x6646 <karatsuba_recursive+0x1f8>
    64d4:	1f 5f       	subi	r17, 0xFF	; 255
    64d6:	c6 01       	movw	r24, r12
    64d8:	88 0f       	add	r24, r24
    64da:	99 1f       	adc	r25, r25
    64dc:	89 83       	std	Y+1, r24	; 0x01
    64de:	9a 83       	std	Y+2, r25	; 0x02
    64e0:	bc 01       	movw	r22, r24
    64e2:	68 0d       	add	r22, r8
    64e4:	79 1d       	adc	r23, r9
    64e6:	01 2f       	mov	r16, r17
    64e8:	96 01       	movw	r18, r12
    64ea:	a7 01       	movw	r20, r14
    64ec:	c4 01       	movw	r24, r8
    64ee:	0e 94 27 32 	call	0x644e	; 0x644e <karatsuba_recursive>
    64f2:	69 81       	ldd	r22, Y+1	; 0x01
    64f4:	7a 81       	ldd	r23, Y+2	; 0x02
    64f6:	66 0d       	add	r22, r6
    64f8:	77 1d       	adc	r23, r7
    64fa:	96 01       	movw	r18, r12
    64fc:	a7 01       	movw	r20, r14
    64fe:	42 0d       	add	r20, r2
    6500:	53 1d       	adc	r21, r3
    6502:	89 81       	ldd	r24, Y+1	; 0x01
    6504:	9a 81       	ldd	r25, Y+2	; 0x02
    6506:	84 0d       	add	r24, r4
    6508:	95 1d       	adc	r25, r5
    650a:	0e 94 27 32 	call	0x644e	; 0x644e <karatsuba_recursive>
    650e:	eb 82       	std	Y+3, r14	; 0x03
    6510:	fc 82       	std	Y+4, r15	; 0x04
    6512:	f7 01       	movw	r30, r14
    6514:	30 e0       	ldi	r19, 0x00	; 0
    6516:	20 e0       	ldi	r18, 0x00	; 0
    6518:	2a 15       	cp	r18, r10
    651a:	3b 05       	cpc	r19, r11
    651c:	09 f0       	breq	.+2      	; 0x6520 <karatsuba_recursive+0xd2>
    651e:	cd c0       	rjmp	.+410    	; 0x66ba <karatsuba_recursive+0x26c>
    6520:	01 2f       	mov	r16, r17
    6522:	96 01       	movw	r18, r12
    6524:	a4 01       	movw	r20, r8
    6526:	b3 01       	movw	r22, r6
    6528:	c2 01       	movw	r24, r4
    652a:	0e 94 27 32 	call	0x644e	; 0x644e <karatsuba_recursive>
    652e:	b4 01       	movw	r22, r8
    6530:	d4 01       	movw	r26, r8
    6532:	f7 01       	movw	r30, r14
    6534:	30 e0       	ldi	r19, 0x00	; 0
    6536:	20 e0       	ldi	r18, 0x00	; 0
    6538:	2a 15       	cp	r18, r10
    653a:	3b 05       	cpc	r19, r11
    653c:	09 f0       	breq	.+2      	; 0x6540 <karatsuba_recursive+0xf2>
    653e:	d1 c0       	rjmp	.+418    	; 0x66e2 <karatsuba_recursive+0x294>
    6540:	f6 01       	movw	r30, r12
    6542:	ee 0f       	add	r30, r30
    6544:	ff 1f       	adc	r31, r31
    6546:	ee 0f       	add	r30, r30
    6548:	ff 1f       	adc	r31, r31
    654a:	ee 0d       	add	r30, r14
    654c:	ff 1d       	adc	r31, r15
    654e:	96 01       	movw	r18, r12
    6550:	2a 15       	cp	r18, r10
    6552:	3b 05       	cpc	r19, r11
    6554:	08 f4       	brcc	.+2      	; 0x6558 <karatsuba_recursive+0x10a>
    6556:	d6 c0       	rjmp	.+428    	; 0x6704 <karatsuba_recursive+0x2b6>
    6558:	a9 81       	ldd	r26, Y+1	; 0x01
    655a:	ba 81       	ldd	r27, Y+2	; 0x02
    655c:	ae 0d       	add	r26, r14
    655e:	bf 1d       	adc	r27, r15
    6560:	cd 01       	movw	r24, r26
    6562:	30 e0       	ldi	r19, 0x00	; 0
    6564:	20 e0       	ldi	r18, 0x00	; 0
    6566:	2c 15       	cp	r18, r12
    6568:	3d 05       	cpc	r19, r13
    656a:	09 f0       	breq	.+2      	; 0x656e <karatsuba_recursive+0x120>
    656c:	e3 c0       	rjmp	.+454    	; 0x6734 <karatsuba_recursive+0x2e6>
    656e:	ed 81       	ldd	r30, Y+5	; 0x05
    6570:	fe 81       	ldd	r31, Y+6	; 0x06
    6572:	ec 15       	cp	r30, r12
    6574:	fd 05       	cpc	r31, r13
    6576:	09 f0       	breq	.+2      	; 0x657a <karatsuba_recursive+0x12c>
    6578:	e8 c0       	rjmp	.+464    	; 0x674a <karatsuba_recursive+0x2fc>
    657a:	ca 14       	cp	r12, r10
    657c:	db 04       	cpc	r13, r11
    657e:	08 f4       	brcc	.+2      	; 0x6582 <karatsuba_recursive+0x134>
    6580:	f4 c0       	rjmp	.+488    	; 0x676a <karatsuba_recursive+0x31c>
    6582:	8f 81       	ldd	r24, Y+7	; 0x07
    6584:	98 85       	ldd	r25, Y+8	; 0x08
    6586:	8d bf       	out	0x3d, r24	; 61
    6588:	9e bf       	out	0x3e, r25	; 62
    658a:	ef 81       	ldd	r30, Y+7	; 0x07
    658c:	f8 85       	ldd	r31, Y+8	; 0x08
    658e:	ed bf       	out	0x3d, r30	; 61
    6590:	fe bf       	out	0x3e, r31	; 62
    6592:	28 96       	adiw	r28, 0x08	; 8
    6594:	cd bf       	out	0x3d, r28	; 61
    6596:	de bf       	out	0x3e, r29	; 62
    6598:	df 91       	pop	r29
    659a:	cf 91       	pop	r28
    659c:	1f 91       	pop	r17
    659e:	0f 91       	pop	r16
    65a0:	ff 90       	pop	r15
    65a2:	ef 90       	pop	r14
    65a4:	df 90       	pop	r13
    65a6:	cf 90       	pop	r12
    65a8:	bf 90       	pop	r11
    65aa:	af 90       	pop	r10
    65ac:	9f 90       	pop	r9
    65ae:	8f 90       	pop	r8
    65b0:	7f 90       	pop	r7
    65b2:	6f 90       	pop	r6
    65b4:	5f 90       	pop	r5
    65b6:	4f 90       	pop	r4
    65b8:	3f 90       	pop	r3
    65ba:	2f 90       	pop	r2
    65bc:	08 95       	ret
    65be:	f7 01       	movw	r30, r14
    65c0:	90 e0       	ldi	r25, 0x00	; 0
    65c2:	80 e0       	ldi	r24, 0x00	; 0
    65c4:	82 15       	cp	r24, r2
    65c6:	93 05       	cpc	r25, r3
    65c8:	79 f4       	brne	.+30     	; 0x65e8 <karatsuba_recursive+0x19a>
    65ca:	12 01       	movw	r2, r4
    65cc:	91 2c       	mov	r9, r1
    65ce:	81 2c       	mov	r8, r1
    65d0:	8a 14       	cp	r8, r10
    65d2:	9b 04       	cpc	r9, r11
    65d4:	b1 f2       	breq	.-84     	; 0x6582 <karatsuba_recursive+0x134>
    65d6:	64 01       	movw	r12, r8
    65d8:	cc 0c       	add	r12, r12
    65da:	dd 1c       	adc	r13, r13
    65dc:	ce 0c       	add	r12, r14
    65de:	df 1c       	adc	r13, r15
    65e0:	83 01       	movw	r16, r6
    65e2:	51 2c       	mov	r5, r1
    65e4:	41 2c       	mov	r4, r1
    65e6:	20 c0       	rjmp	.+64     	; 0x6628 <karatsuba_recursive+0x1da>
    65e8:	11 92       	st	Z+, r1
    65ea:	11 92       	st	Z+, r1
    65ec:	01 96       	adiw	r24, 0x01	; 1
    65ee:	ea cf       	rjmp	.-44     	; 0x65c4 <karatsuba_recursive+0x176>
    65f0:	f8 01       	movw	r30, r16
    65f2:	61 91       	ld	r22, Z+
    65f4:	71 91       	ld	r23, Z+
    65f6:	8f 01       	movw	r16, r30
    65f8:	f1 01       	movw	r30, r2
    65fa:	80 81       	ld	r24, Z
    65fc:	0e 94 9d 2e 	call	0x5d3a	; 0x5d3a <call_mulRed_asm_4093>
    6600:	f6 01       	movw	r30, r12
    6602:	20 81       	ld	r18, Z
    6604:	31 81       	ldd	r19, Z+1	; 0x01
    6606:	82 0f       	add	r24, r18
    6608:	93 1f       	adc	r25, r19
    660a:	8d 3f       	cpi	r24, 0xFD	; 253
    660c:	ff e0       	ldi	r31, 0x0F	; 15
    660e:	9f 07       	cpc	r25, r31
    6610:	ac f0       	brlt	.+42     	; 0x663c <karatsuba_recursive+0x1ee>
    6612:	8d 5f       	subi	r24, 0xFD	; 253
    6614:	9f 40       	sbci	r25, 0x0F	; 15
    6616:	f6 01       	movw	r30, r12
    6618:	80 83       	st	Z, r24
    661a:	91 83       	std	Z+1, r25	; 0x01
    661c:	ff ef       	ldi	r31, 0xFF	; 255
    661e:	4f 1a       	sub	r4, r31
    6620:	5f 0a       	sbc	r5, r31
    6622:	22 e0       	ldi	r18, 0x02	; 2
    6624:	c2 0e       	add	r12, r18
    6626:	d1 1c       	adc	r13, r1
    6628:	4a 14       	cp	r4, r10
    662a:	5b 04       	cpc	r5, r11
    662c:	09 f7       	brne	.-62     	; 0x65f0 <karatsuba_recursive+0x1a2>
    662e:	4f ef       	ldi	r20, 0xFF	; 255
    6630:	84 1a       	sub	r8, r20
    6632:	94 0a       	sbc	r9, r20
    6634:	72 e0       	ldi	r23, 0x02	; 2
    6636:	27 0e       	add	r2, r23
    6638:	31 1c       	adc	r3, r1
    663a:	ca cf       	rjmp	.-108    	; 0x65d0 <karatsuba_recursive+0x182>
    663c:	97 ff       	sbrs	r25, 7
    663e:	eb cf       	rjmp	.-42     	; 0x6616 <karatsuba_recursive+0x1c8>
    6640:	83 50       	subi	r24, 0x03	; 3
    6642:	90 4f       	sbci	r25, 0xF0	; 240
    6644:	e8 cf       	rjmp	.-48     	; 0x6616 <karatsuba_recursive+0x1c8>
    6646:	ac 01       	movw	r20, r24
    6648:	44 0f       	add	r20, r20
    664a:	55 1f       	adc	r21, r21
    664c:	8c 0d       	add	r24, r12
    664e:	9d 1d       	adc	r25, r13
    6650:	88 0f       	add	r24, r24
    6652:	99 1f       	adc	r25, r25
    6654:	f2 01       	movw	r30, r4
    6656:	e4 0f       	add	r30, r20
    6658:	f5 1f       	adc	r31, r21
    665a:	d2 01       	movw	r26, r4
    665c:	a8 0f       	add	r26, r24
    665e:	b9 1f       	adc	r27, r25
    6660:	01 90       	ld	r0, Z+
    6662:	f0 81       	ld	r31, Z
    6664:	e0 2d       	mov	r30, r0
    6666:	2d 91       	ld	r18, X+
    6668:	3c 91       	ld	r19, X
    666a:	2e 0f       	add	r18, r30
    666c:	3f 1f       	adc	r19, r31
    666e:	f4 01       	movw	r30, r8
    6670:	e4 0f       	add	r30, r20
    6672:	f5 1f       	adc	r31, r21
    6674:	2d 3f       	cpi	r18, 0xFD	; 253
    6676:	7f e0       	ldi	r23, 0x0F	; 15
    6678:	37 07       	cpc	r19, r23
    667a:	cc f4       	brge	.+50     	; 0x66ae <karatsuba_recursive+0x260>
    667c:	20 83       	st	Z, r18
    667e:	31 83       	std	Z+1, r19	; 0x01
    6680:	46 0d       	add	r20, r6
    6682:	57 1d       	adc	r21, r7
    6684:	fa 01       	movw	r30, r20
    6686:	20 81       	ld	r18, Z
    6688:	31 81       	ldd	r19, Z+1	; 0x01
    668a:	f3 01       	movw	r30, r6
    668c:	e8 0f       	add	r30, r24
    668e:	f9 1f       	adc	r31, r25
    6690:	40 81       	ld	r20, Z
    6692:	51 81       	ldd	r21, Z+1	; 0x01
    6694:	24 0f       	add	r18, r20
    6696:	35 1f       	adc	r19, r21
    6698:	88 0d       	add	r24, r8
    669a:	99 1d       	adc	r25, r9
    669c:	2d 3f       	cpi	r18, 0xFD	; 253
    669e:	ff e0       	ldi	r31, 0x0F	; 15
    66a0:	3f 07       	cpc	r19, r31
    66a2:	44 f4       	brge	.+16     	; 0x66b4 <karatsuba_recursive+0x266>
    66a4:	fc 01       	movw	r30, r24
    66a6:	20 83       	st	Z, r18
    66a8:	31 83       	std	Z+1, r19	; 0x01
    66aa:	6f 5f       	subi	r22, 0xFF	; 255
    66ac:	0d cf       	rjmp	.-486    	; 0x64c8 <karatsuba_recursive+0x7a>
    66ae:	2d 5f       	subi	r18, 0xFD	; 253
    66b0:	3f 40       	sbci	r19, 0x0F	; 15
    66b2:	e4 cf       	rjmp	.-56     	; 0x667c <karatsuba_recursive+0x22e>
    66b4:	2d 5f       	subi	r18, 0xFD	; 253
    66b6:	3f 40       	sbci	r19, 0x0F	; 15
    66b8:	f5 cf       	rjmp	.-22     	; 0x66a4 <karatsuba_recursive+0x256>
    66ba:	80 81       	ld	r24, Z
    66bc:	91 81       	ldd	r25, Z+1	; 0x01
    66be:	df 01       	movw	r26, r30
    66c0:	a2 0d       	add	r26, r2
    66c2:	b3 1d       	adc	r27, r3
    66c4:	4d 91       	ld	r20, X+
    66c6:	5c 91       	ld	r21, X
    66c8:	84 1b       	sub	r24, r20
    66ca:	95 0b       	sbc	r25, r21
    66cc:	97 fd       	sbrc	r25, 7
    66ce:	06 c0       	rjmp	.+12     	; 0x66dc <karatsuba_recursive+0x28e>
    66d0:	80 83       	st	Z, r24
    66d2:	91 83       	std	Z+1, r25	; 0x01
    66d4:	2f 5f       	subi	r18, 0xFF	; 255
    66d6:	3f 4f       	sbci	r19, 0xFF	; 255
    66d8:	32 96       	adiw	r30, 0x02	; 2
    66da:	1e cf       	rjmp	.-452    	; 0x6518 <karatsuba_recursive+0xca>
    66dc:	83 50       	subi	r24, 0x03	; 3
    66de:	90 4f       	sbci	r25, 0xF0	; 240
    66e0:	f7 cf       	rjmp	.-18     	; 0x66d0 <karatsuba_recursive+0x282>
    66e2:	4d 91       	ld	r20, X+
    66e4:	5d 91       	ld	r21, X+
    66e6:	80 81       	ld	r24, Z
    66e8:	91 81       	ldd	r25, Z+1	; 0x01
    66ea:	84 1b       	sub	r24, r20
    66ec:	95 0b       	sbc	r25, r21
    66ee:	97 fd       	sbrc	r25, 7
    66f0:	06 c0       	rjmp	.+12     	; 0x66fe <karatsuba_recursive+0x2b0>
    66f2:	80 83       	st	Z, r24
    66f4:	91 83       	std	Z+1, r25	; 0x01
    66f6:	2f 5f       	subi	r18, 0xFF	; 255
    66f8:	3f 4f       	sbci	r19, 0xFF	; 255
    66fa:	32 96       	adiw	r30, 0x02	; 2
    66fc:	1d cf       	rjmp	.-454    	; 0x6538 <karatsuba_recursive+0xea>
    66fe:	83 50       	subi	r24, 0x03	; 3
    6700:	90 4f       	sbci	r25, 0xF0	; 240
    6702:	f7 cf       	rjmp	.-18     	; 0x66f2 <karatsuba_recursive+0x2a4>
    6704:	d9 01       	movw	r26, r18
    6706:	aa 0f       	add	r26, r26
    6708:	bb 1f       	adc	r27, r27
    670a:	ae 0d       	add	r26, r14
    670c:	bf 1d       	adc	r27, r15
    670e:	8d 91       	ld	r24, X+
    6710:	9c 91       	ld	r25, X
    6712:	40 81       	ld	r20, Z
    6714:	51 81       	ldd	r21, Z+1	; 0x01
    6716:	84 0f       	add	r24, r20
    6718:	95 1f       	adc	r25, r21
    671a:	8d 3f       	cpi	r24, 0xFD	; 253
    671c:	4f e0       	ldi	r20, 0x0F	; 15
    671e:	94 07       	cpc	r25, r20
    6720:	34 f4       	brge	.+12     	; 0x672e <karatsuba_recursive+0x2e0>
    6722:	80 83       	st	Z, r24
    6724:	91 83       	std	Z+1, r25	; 0x01
    6726:	2f 5f       	subi	r18, 0xFF	; 255
    6728:	3f 4f       	sbci	r19, 0xFF	; 255
    672a:	32 96       	adiw	r30, 0x02	; 2
    672c:	11 cf       	rjmp	.-478    	; 0x6550 <karatsuba_recursive+0x102>
    672e:	8d 5f       	subi	r24, 0xFD	; 253
    6730:	9f 40       	sbci	r25, 0x0F	; 15
    6732:	f7 cf       	rjmp	.-18     	; 0x6722 <karatsuba_recursive+0x2d4>
    6734:	f7 01       	movw	r30, r14
    6736:	41 91       	ld	r20, Z+
    6738:	51 91       	ld	r21, Z+
    673a:	7f 01       	movw	r14, r30
    673c:	fc 01       	movw	r30, r24
    673e:	41 93       	st	Z+, r20
    6740:	51 93       	st	Z+, r21
    6742:	cf 01       	movw	r24, r30
    6744:	2f 5f       	subi	r18, 0xFF	; 255
    6746:	3f 4f       	sbci	r19, 0xFF	; 255
    6748:	0e cf       	rjmp	.-484    	; 0x6566 <karatsuba_recursive+0x118>
    674a:	fb 01       	movw	r30, r22
    674c:	81 91       	ld	r24, Z+
    674e:	91 91       	ld	r25, Z+
    6750:	bf 01       	movw	r22, r30
    6752:	eb 81       	ldd	r30, Y+3	; 0x03
    6754:	fc 81       	ldd	r31, Y+4	; 0x04
    6756:	81 93       	st	Z+, r24
    6758:	91 93       	st	Z+, r25
    675a:	eb 83       	std	Y+3, r30	; 0x03
    675c:	fc 83       	std	Y+4, r31	; 0x04
    675e:	8d 81       	ldd	r24, Y+5	; 0x05
    6760:	9e 81       	ldd	r25, Y+6	; 0x06
    6762:	01 96       	adiw	r24, 0x01	; 1
    6764:	8d 83       	std	Y+5, r24	; 0x05
    6766:	9e 83       	std	Y+6, r25	; 0x06
    6768:	02 cf       	rjmp	.-508    	; 0x656e <karatsuba_recursive+0x120>
    676a:	f6 01       	movw	r30, r12
    676c:	ee 0f       	add	r30, r30
    676e:	ff 1f       	adc	r31, r31
    6770:	e8 0d       	add	r30, r8
    6772:	f9 1d       	adc	r31, r9
    6774:	80 81       	ld	r24, Z
    6776:	91 81       	ldd	r25, Z+1	; 0x01
    6778:	2d 91       	ld	r18, X+
    677a:	3c 91       	ld	r19, X
    677c:	11 97       	sbiw	r26, 0x01	; 1
    677e:	82 0f       	add	r24, r18
    6780:	93 1f       	adc	r25, r19
    6782:	8d 3f       	cpi	r24, 0xFD	; 253
    6784:	ff e0       	ldi	r31, 0x0F	; 15
    6786:	9f 07       	cpc	r25, r31
    6788:	44 f4       	brge	.+16     	; 0x679a <karatsuba_recursive+0x34c>
    678a:	8d 93       	st	X+, r24
    678c:	9c 93       	st	X, r25
    678e:	11 97       	sbiw	r26, 0x01	; 1
    6790:	2f ef       	ldi	r18, 0xFF	; 255
    6792:	c2 1a       	sub	r12, r18
    6794:	d2 0a       	sbc	r13, r18
    6796:	12 96       	adiw	r26, 0x02	; 2
    6798:	f0 ce       	rjmp	.-544    	; 0x657a <karatsuba_recursive+0x12c>
    679a:	8d 5f       	subi	r24, 0xFD	; 253
    679c:	9f 40       	sbci	r25, 0x0F	; 15
    679e:	f5 cf       	rjmp	.-22     	; 0x678a <karatsuba_recursive+0x33c>

000067a0 <karatsuba_4093_192>:
    67a0:	bf 92       	push	r11
    67a2:	cf 92       	push	r12
    67a4:	df 92       	push	r13
    67a6:	ef 92       	push	r14
    67a8:	ff 92       	push	r15
    67aa:	0f 93       	push	r16
    67ac:	1f 93       	push	r17
    67ae:	cf 93       	push	r28
    67b0:	df 93       	push	r29
    67b2:	cd b7       	in	r28, 0x3d	; 61
    67b4:	de b7       	in	r29, 0x3e	; 62
    67b6:	c0 58       	subi	r28, 0x80	; 128
    67b8:	d4 40       	sbci	r29, 0x04	; 4
    67ba:	cd bf       	out	0x3d, r28	; 61
    67bc:	de bf       	out	0x3e, r29	; 62
    67be:	6b 01       	movw	r12, r22
    67c0:	f4 2e       	mov	r15, r20
    67c2:	15 2f       	mov	r17, r21
    67c4:	a9 01       	movw	r20, r18
    67c6:	de 01       	movw	r26, r28
    67c8:	af 5f       	subi	r26, 0xFF	; 255
    67ca:	bc 4f       	sbci	r27, 0xFC	; 252
    67cc:	30 e0       	ldi	r19, 0x00	; 0
    67ce:	20 e0       	ldi	r18, 0x00	; 0
    67d0:	ba 2e       	mov	r11, r26
    67d2:	eb 2e       	mov	r14, r27
    67d4:	f6 01       	movw	r30, r12
    67d6:	e2 0f       	add	r30, r18
    67d8:	f3 1f       	adc	r31, r19
    67da:	65 91       	lpm	r22, Z+
    67dc:	74 91       	lpm	r23, Z
    67de:	6d 93       	st	X+, r22
    67e0:	7d 93       	st	X+, r23
    67e2:	2e 5f       	subi	r18, 0xFE	; 254
    67e4:	3f 4f       	sbci	r19, 0xFF	; 255
    67e6:	20 38       	cpi	r18, 0x80	; 128
    67e8:	61 e0       	ldi	r22, 0x01	; 1
    67ea:	36 07       	cpc	r19, r22
    67ec:	99 f7       	brne	.-26     	; 0x67d4 <karatsuba_4093_192+0x34>
    67ee:	00 e0       	ldi	r16, 0x00	; 0
    67f0:	20 ec       	ldi	r18, 0xC0	; 192
    67f2:	30 e0       	ldi	r19, 0x00	; 0
    67f4:	45 2b       	or	r20, r21
    67f6:	e9 f4       	brne	.+58     	; 0x6832 <karatsuba_4093_192+0x92>
    67f8:	ae 01       	movw	r20, r28
    67fa:	4f 5f       	subi	r20, 0xFF	; 255
    67fc:	5f 4f       	sbci	r21, 0xFF	; 255
    67fe:	6b 2d       	mov	r22, r11
    6800:	7e 2d       	mov	r23, r14
    6802:	0e 94 27 32 	call	0x644e	; 0x644e <karatsuba_recursive>
    6806:	40 ec       	ldi	r20, 0xC0	; 192
    6808:	50 e0       	ldi	r21, 0x00	; 0
    680a:	6f 2d       	mov	r22, r15
    680c:	71 2f       	mov	r23, r17
    680e:	ce 01       	movw	r24, r28
    6810:	01 96       	adiw	r24, 0x01	; 1
    6812:	0e 94 fb 31 	call	0x63f6	; 0x63f6 <reduce>
    6816:	c0 58       	subi	r28, 0x80	; 128
    6818:	db 4f       	sbci	r29, 0xFB	; 251
    681a:	cd bf       	out	0x3d, r28	; 61
    681c:	de bf       	out	0x3e, r29	; 62
    681e:	df 91       	pop	r29
    6820:	cf 91       	pop	r28
    6822:	1f 91       	pop	r17
    6824:	0f 91       	pop	r16
    6826:	ff 90       	pop	r15
    6828:	ef 90       	pop	r14
    682a:	df 90       	pop	r13
    682c:	cf 90       	pop	r12
    682e:	bf 90       	pop	r11
    6830:	08 95       	ret
    6832:	ae 01       	movw	r20, r28
    6834:	4f 5f       	subi	r20, 0xFF	; 255
    6836:	5f 4f       	sbci	r21, 0xFF	; 255
    6838:	bc 01       	movw	r22, r24
    683a:	8b 2d       	mov	r24, r11
    683c:	9e 2d       	mov	r25, r14
    683e:	e1 cf       	rjmp	.-62     	; 0x6802 <karatsuba_4093_192+0x62>

00006840 <karatsuba_4093_256>:
    6840:	bf 92       	push	r11
    6842:	cf 92       	push	r12
    6844:	df 92       	push	r13
    6846:	ef 92       	push	r14
    6848:	ff 92       	push	r15
    684a:	0f 93       	push	r16
    684c:	1f 93       	push	r17
    684e:	cf 93       	push	r28
    6850:	df 93       	push	r29
    6852:	cd b7       	in	r28, 0x3d	; 61
    6854:	de b7       	in	r29, 0x3e	; 62
    6856:	d6 50       	subi	r29, 0x06	; 6
    6858:	cd bf       	out	0x3d, r28	; 61
    685a:	de bf       	out	0x3e, r29	; 62
    685c:	6b 01       	movw	r12, r22
    685e:	f4 2e       	mov	r15, r20
    6860:	15 2f       	mov	r17, r21
    6862:	a9 01       	movw	r20, r18
    6864:	de 01       	movw	r26, r28
    6866:	af 5f       	subi	r26, 0xFF	; 255
    6868:	bb 4f       	sbci	r27, 0xFB	; 251
    686a:	30 e0       	ldi	r19, 0x00	; 0
    686c:	20 e0       	ldi	r18, 0x00	; 0
    686e:	ba 2e       	mov	r11, r26
    6870:	eb 2e       	mov	r14, r27
    6872:	f6 01       	movw	r30, r12
    6874:	e2 0f       	add	r30, r18
    6876:	f3 1f       	adc	r31, r19
    6878:	65 91       	lpm	r22, Z+
    687a:	74 91       	lpm	r23, Z
    687c:	6d 93       	st	X+, r22
    687e:	7d 93       	st	X+, r23
    6880:	2e 5f       	subi	r18, 0xFE	; 254
    6882:	3f 4f       	sbci	r19, 0xFF	; 255
    6884:	21 15       	cp	r18, r1
    6886:	62 e0       	ldi	r22, 0x02	; 2
    6888:	36 07       	cpc	r19, r22
    688a:	99 f7       	brne	.-26     	; 0x6872 <karatsuba_4093_256+0x32>
    688c:	00 e0       	ldi	r16, 0x00	; 0
    688e:	20 e0       	ldi	r18, 0x00	; 0
    6890:	31 e0       	ldi	r19, 0x01	; 1
    6892:	45 2b       	or	r20, r21
    6894:	e1 f4       	brne	.+56     	; 0x68ce <karatsuba_4093_256+0x8e>
    6896:	ae 01       	movw	r20, r28
    6898:	4f 5f       	subi	r20, 0xFF	; 255
    689a:	5f 4f       	sbci	r21, 0xFF	; 255
    689c:	6b 2d       	mov	r22, r11
    689e:	7e 2d       	mov	r23, r14
    68a0:	0e 94 27 32 	call	0x644e	; 0x644e <karatsuba_recursive>
    68a4:	40 e0       	ldi	r20, 0x00	; 0
    68a6:	51 e0       	ldi	r21, 0x01	; 1
    68a8:	6f 2d       	mov	r22, r15
    68aa:	71 2f       	mov	r23, r17
    68ac:	ce 01       	movw	r24, r28
    68ae:	01 96       	adiw	r24, 0x01	; 1
    68b0:	0e 94 fb 31 	call	0x63f6	; 0x63f6 <reduce>
    68b4:	da 5f       	subi	r29, 0xFA	; 250
    68b6:	cd bf       	out	0x3d, r28	; 61
    68b8:	de bf       	out	0x3e, r29	; 62
    68ba:	df 91       	pop	r29
    68bc:	cf 91       	pop	r28
    68be:	1f 91       	pop	r17
    68c0:	0f 91       	pop	r16
    68c2:	ff 90       	pop	r15
    68c4:	ef 90       	pop	r14
    68c6:	df 90       	pop	r13
    68c8:	cf 90       	pop	r12
    68ca:	bf 90       	pop	r11
    68cc:	08 95       	ret
    68ce:	ae 01       	movw	r20, r28
    68d0:	4f 5f       	subi	r20, 0xFF	; 255
    68d2:	5f 4f       	sbci	r21, 0xFF	; 255
    68d4:	bc 01       	movw	r22, r24
    68d6:	8b 2d       	mov	r24, r11
    68d8:	9e 2d       	mov	r25, r14
    68da:	e2 cf       	rjmp	.-60     	; 0x68a0 <karatsuba_4093_256+0x60>

000068dc <karatsuba_4093_320>:
    68dc:	bf 92       	push	r11
    68de:	cf 92       	push	r12
    68e0:	df 92       	push	r13
    68e2:	ef 92       	push	r14
    68e4:	ff 92       	push	r15
    68e6:	0f 93       	push	r16
    68e8:	1f 93       	push	r17
    68ea:	cf 93       	push	r28
    68ec:	df 93       	push	r29
    68ee:	cd b7       	in	r28, 0x3d	; 61
    68f0:	de b7       	in	r29, 0x3e	; 62
    68f2:	c0 58       	subi	r28, 0x80	; 128
    68f4:	d7 40       	sbci	r29, 0x07	; 7
    68f6:	cd bf       	out	0x3d, r28	; 61
    68f8:	de bf       	out	0x3e, r29	; 62
    68fa:	6b 01       	movw	r12, r22
    68fc:	f4 2e       	mov	r15, r20
    68fe:	15 2f       	mov	r17, r21
    6900:	a9 01       	movw	r20, r18
    6902:	de 01       	movw	r26, r28
    6904:	af 5f       	subi	r26, 0xFF	; 255
    6906:	ba 4f       	sbci	r27, 0xFA	; 250
    6908:	30 e0       	ldi	r19, 0x00	; 0
    690a:	20 e0       	ldi	r18, 0x00	; 0
    690c:	ba 2e       	mov	r11, r26
    690e:	eb 2e       	mov	r14, r27
    6910:	f6 01       	movw	r30, r12
    6912:	e2 0f       	add	r30, r18
    6914:	f3 1f       	adc	r31, r19
    6916:	65 91       	lpm	r22, Z+
    6918:	74 91       	lpm	r23, Z
    691a:	6d 93       	st	X+, r22
    691c:	7d 93       	st	X+, r23
    691e:	2e 5f       	subi	r18, 0xFE	; 254
    6920:	3f 4f       	sbci	r19, 0xFF	; 255
    6922:	20 38       	cpi	r18, 0x80	; 128
    6924:	62 e0       	ldi	r22, 0x02	; 2
    6926:	36 07       	cpc	r19, r22
    6928:	99 f7       	brne	.-26     	; 0x6910 <karatsuba_4093_320+0x34>
    692a:	00 e0       	ldi	r16, 0x00	; 0
    692c:	20 e4       	ldi	r18, 0x40	; 64
    692e:	31 e0       	ldi	r19, 0x01	; 1
    6930:	45 2b       	or	r20, r21
    6932:	e9 f4       	brne	.+58     	; 0x696e <karatsuba_4093_320+0x92>
    6934:	ae 01       	movw	r20, r28
    6936:	4f 5f       	subi	r20, 0xFF	; 255
    6938:	5f 4f       	sbci	r21, 0xFF	; 255
    693a:	6b 2d       	mov	r22, r11
    693c:	7e 2d       	mov	r23, r14
    693e:	0e 94 27 32 	call	0x644e	; 0x644e <karatsuba_recursive>
    6942:	40 e4       	ldi	r20, 0x40	; 64
    6944:	51 e0       	ldi	r21, 0x01	; 1
    6946:	6f 2d       	mov	r22, r15
    6948:	71 2f       	mov	r23, r17
    694a:	ce 01       	movw	r24, r28
    694c:	01 96       	adiw	r24, 0x01	; 1
    694e:	0e 94 fb 31 	call	0x63f6	; 0x63f6 <reduce>
    6952:	c0 58       	subi	r28, 0x80	; 128
    6954:	d8 4f       	sbci	r29, 0xF8	; 248
    6956:	cd bf       	out	0x3d, r28	; 61
    6958:	de bf       	out	0x3e, r29	; 62
    695a:	df 91       	pop	r29
    695c:	cf 91       	pop	r28
    695e:	1f 91       	pop	r17
    6960:	0f 91       	pop	r16
    6962:	ff 90       	pop	r15
    6964:	ef 90       	pop	r14
    6966:	df 90       	pop	r13
    6968:	cf 90       	pop	r12
    696a:	bf 90       	pop	r11
    696c:	08 95       	ret
    696e:	ae 01       	movw	r20, r28
    6970:	4f 5f       	subi	r20, 0xFF	; 255
    6972:	5f 4f       	sbci	r21, 0xFF	; 255
    6974:	bc 01       	movw	r22, r24
    6976:	8b 2d       	mov	r24, r11
    6978:	9e 2d       	mov	r25, r14
    697a:	e1 cf       	rjmp	.-62     	; 0x693e <karatsuba_4093_320+0x62>

0000697c <add_encode_ksuba_4093>:
    697c:	cf 93       	push	r28
    697e:	df 93       	push	r29
    6980:	dc 01       	movw	r26, r24
    6982:	fb 01       	movw	r30, r22
    6984:	90 e0       	ldi	r25, 0x00	; 0
    6986:	80 e0       	ldi	r24, 0x00	; 0
    6988:	41 50       	subi	r20, 0x01	; 1
    698a:	51 09       	sbc	r21, r1
    698c:	ec 01       	movw	r28, r24
    698e:	23 e0       	ldi	r18, 0x03	; 3
    6990:	d6 95       	lsr	r29
    6992:	c7 95       	ror	r28
    6994:	2a 95       	dec	r18
    6996:	e1 f7       	brne	.-8      	; 0x6990 <add_encode_ksuba_4093+0x14>
    6998:	ca 0f       	add	r28, r26
    699a:	db 1f       	adc	r29, r27
    699c:	28 81       	ld	r18, Y
    699e:	30 e0       	ldi	r19, 0x00	; 0
    69a0:	bc 01       	movw	r22, r24
    69a2:	67 70       	andi	r22, 0x07	; 7
    69a4:	77 27       	eor	r23, r23
    69a6:	02 c0       	rjmp	.+4      	; 0x69ac <add_encode_ksuba_4093+0x30>
    69a8:	35 95       	asr	r19
    69aa:	27 95       	ror	r18
    69ac:	6a 95       	dec	r22
    69ae:	e2 f7       	brpl	.-8      	; 0x69a8 <add_encode_ksuba_4093+0x2c>
    69b0:	20 ff       	sbrs	r18, 0
    69b2:	0b c0       	rjmp	.+22     	; 0x69ca <add_encode_ksuba_4093+0x4e>
    69b4:	20 81       	ld	r18, Z
    69b6:	31 81       	ldd	r19, Z+1	; 0x01
    69b8:	b9 01       	movw	r22, r18
    69ba:	62 50       	subi	r22, 0x02	; 2
    69bc:	78 4f       	sbci	r23, 0xF8	; 248
    69be:	6e 3f       	cpi	r22, 0xFE	; 254
    69c0:	cf e0       	ldi	r28, 0x0F	; 15
    69c2:	7c 07       	cpc	r23, r28
    69c4:	40 f4       	brcc	.+16     	; 0x69d6 <add_encode_ksuba_4093+0x5a>
    69c6:	60 83       	st	Z, r22
    69c8:	71 83       	std	Z+1, r23	; 0x01
    69ca:	32 96       	adiw	r30, 0x02	; 2
    69cc:	48 17       	cp	r20, r24
    69ce:	59 07       	cpc	r21, r25
    69d0:	39 f0       	breq	.+14     	; 0x69e0 <add_encode_ksuba_4093+0x64>
    69d2:	01 96       	adiw	r24, 0x01	; 1
    69d4:	db cf       	rjmp	.-74     	; 0x698c <add_encode_ksuba_4093+0x10>
    69d6:	2f 5f       	subi	r18, 0xFF	; 255
    69d8:	37 40       	sbci	r19, 0x07	; 7
    69da:	20 83       	st	Z, r18
    69dc:	31 83       	std	Z+1, r19	; 0x01
    69de:	f5 cf       	rjmp	.-22     	; 0x69ca <add_encode_ksuba_4093+0x4e>
    69e0:	df 91       	pop	r29
    69e2:	cf 91       	pop	r28
    69e4:	08 95       	ret

000069e6 <encrypt_ksuba_4093>:
    69e6:	6f 92       	push	r6
    69e8:	7f 92       	push	r7
    69ea:	8f 92       	push	r8
    69ec:	9f 92       	push	r9
    69ee:	af 92       	push	r10
    69f0:	bf 92       	push	r11
    69f2:	cf 92       	push	r12
    69f4:	df 92       	push	r13
    69f6:	ef 92       	push	r14
    69f8:	ff 92       	push	r15
    69fa:	0f 93       	push	r16
    69fc:	1f 93       	push	r17
    69fe:	cf 93       	push	r28
    6a00:	df 93       	push	r29
    6a02:	3c 01       	movw	r6, r24
    6a04:	d6 2f       	mov	r29, r22
    6a06:	c7 2f       	mov	r28, r23
    6a08:	5a 01       	movw	r10, r20
    6a0a:	49 01       	movw	r8, r18
    6a0c:	67 01       	movw	r12, r14
    6a0e:	a7 01       	movw	r20, r14
    6a10:	70 e0       	ldi	r23, 0x00	; 0
    6a12:	60 e0       	ldi	r22, 0x00	; 0
    6a14:	8d 2f       	mov	r24, r29
    6a16:	9c 2f       	mov	r25, r28
    6a18:	0e 94 b7 30 	call	0x616e	; 0x616e <get_gauss_poly_4093_posneg>
    6a1c:	80 ec       	ldi	r24, 0xC0	; 192
    6a1e:	e8 16       	cp	r14, r24
    6a20:	f1 04       	cpc	r15, r1
    6a22:	89 f5       	brne	.+98     	; 0x6a86 <encrypt_ksuba_4093+0xa0>
    6a24:	30 e0       	ldi	r19, 0x00	; 0
    6a26:	20 e0       	ldi	r18, 0x00	; 0
    6a28:	a5 01       	movw	r20, r10
    6a2a:	b8 01       	movw	r22, r16
    6a2c:	8d 2f       	mov	r24, r29
    6a2e:	9c 2f       	mov	r25, r28
    6a30:	0e 94 d0 33 	call	0x67a0	; 0x67a0 <karatsuba_4093_192>
    6a34:	30 e0       	ldi	r19, 0x00	; 0
    6a36:	20 e0       	ldi	r18, 0x00	; 0
    6a38:	4d 2f       	mov	r20, r29
    6a3a:	5c 2f       	mov	r21, r28
    6a3c:	b4 01       	movw	r22, r8
    6a3e:	8d 2f       	mov	r24, r29
    6a40:	9c 2f       	mov	r25, r28
    6a42:	0e 94 d0 33 	call	0x67a0	; 0x67a0 <karatsuba_4093_192>
    6a46:	a6 01       	movw	r20, r12
    6a48:	61 e0       	ldi	r22, 0x01	; 1
    6a4a:	70 e0       	ldi	r23, 0x00	; 0
    6a4c:	8d 2f       	mov	r24, r29
    6a4e:	9c 2f       	mov	r25, r28
    6a50:	0e 94 45 30 	call	0x608a	; 0x608a <get_gauss_poly_4093>
    6a54:	a6 01       	movw	r20, r12
    6a56:	61 e0       	ldi	r22, 0x01	; 1
    6a58:	70 e0       	ldi	r23, 0x00	; 0
    6a5a:	c5 01       	movw	r24, r10
    6a5c:	0e 94 45 30 	call	0x608a	; 0x608a <get_gauss_poly_4093>
    6a60:	a6 01       	movw	r20, r12
    6a62:	b5 01       	movw	r22, r10
    6a64:	c3 01       	movw	r24, r6
    6a66:	df 91       	pop	r29
    6a68:	cf 91       	pop	r28
    6a6a:	1f 91       	pop	r17
    6a6c:	0f 91       	pop	r16
    6a6e:	ff 90       	pop	r15
    6a70:	ef 90       	pop	r14
    6a72:	df 90       	pop	r13
    6a74:	cf 90       	pop	r12
    6a76:	bf 90       	pop	r11
    6a78:	af 90       	pop	r10
    6a7a:	9f 90       	pop	r9
    6a7c:	8f 90       	pop	r8
    6a7e:	7f 90       	pop	r7
    6a80:	6f 90       	pop	r6
    6a82:	0c 94 be 34 	jmp	0x697c	; 0x697c <add_encode_ksuba_4093>
    6a86:	e1 14       	cp	r14, r1
    6a88:	81 e0       	ldi	r24, 0x01	; 1
    6a8a:	f8 06       	cpc	r15, r24
    6a8c:	b9 f0       	breq	.+46     	; 0x6abc <encrypt_ksuba_4093+0xd6>
    6a8e:	80 e4       	ldi	r24, 0x40	; 64
    6a90:	e8 16       	cp	r14, r24
    6a92:	81 e0       	ldi	r24, 0x01	; 1
    6a94:	f8 06       	cpc	r15, r24
    6a96:	b9 f6       	brne	.-82     	; 0x6a46 <encrypt_ksuba_4093+0x60>
    6a98:	30 e0       	ldi	r19, 0x00	; 0
    6a9a:	20 e0       	ldi	r18, 0x00	; 0
    6a9c:	a5 01       	movw	r20, r10
    6a9e:	b8 01       	movw	r22, r16
    6aa0:	8d 2f       	mov	r24, r29
    6aa2:	9c 2f       	mov	r25, r28
    6aa4:	0e 94 6e 34 	call	0x68dc	; 0x68dc <karatsuba_4093_320>
    6aa8:	30 e0       	ldi	r19, 0x00	; 0
    6aaa:	20 e0       	ldi	r18, 0x00	; 0
    6aac:	4d 2f       	mov	r20, r29
    6aae:	5c 2f       	mov	r21, r28
    6ab0:	b4 01       	movw	r22, r8
    6ab2:	8d 2f       	mov	r24, r29
    6ab4:	9c 2f       	mov	r25, r28
    6ab6:	0e 94 6e 34 	call	0x68dc	; 0x68dc <karatsuba_4093_320>
    6aba:	c5 cf       	rjmp	.-118    	; 0x6a46 <encrypt_ksuba_4093+0x60>
    6abc:	30 e0       	ldi	r19, 0x00	; 0
    6abe:	20 e0       	ldi	r18, 0x00	; 0
    6ac0:	a5 01       	movw	r20, r10
    6ac2:	b8 01       	movw	r22, r16
    6ac4:	8d 2f       	mov	r24, r29
    6ac6:	9c 2f       	mov	r25, r28
    6ac8:	0e 94 20 34 	call	0x6840	; 0x6840 <karatsuba_4093_256>
    6acc:	30 e0       	ldi	r19, 0x00	; 0
    6ace:	20 e0       	ldi	r18, 0x00	; 0
    6ad0:	4d 2f       	mov	r20, r29
    6ad2:	5c 2f       	mov	r21, r28
    6ad4:	b4 01       	movw	r22, r8
    6ad6:	8d 2f       	mov	r24, r29
    6ad8:	9c 2f       	mov	r25, r28
    6ada:	0e 94 20 34 	call	0x6840	; 0x6840 <karatsuba_4093_256>
    6ade:	b3 cf       	rjmp	.-154    	; 0x6a46 <encrypt_ksuba_4093+0x60>

00006ae0 <decode_ksuba_4093>:
    6ae0:	0f 93       	push	r16
    6ae2:	1f 93       	push	r17
    6ae4:	cf 93       	push	r28
    6ae6:	df 93       	push	r29
    6ae8:	9b 01       	movw	r18, r22
    6aea:	fc 01       	movw	r30, r24
    6aec:	90 e0       	ldi	r25, 0x00	; 0
    6aee:	80 e0       	ldi	r24, 0x00	; 0
    6af0:	c1 e0       	ldi	r28, 0x01	; 1
    6af2:	d0 e0       	ldi	r29, 0x00	; 0
    6af4:	41 50       	subi	r20, 0x01	; 1
    6af6:	51 09       	sbc	r21, r1
    6af8:	61 91       	ld	r22, Z+
    6afa:	71 91       	ld	r23, Z+
    6afc:	6f 5f       	subi	r22, 0xFF	; 255
    6afe:	73 40       	sbci	r23, 0x03	; 3
    6b00:	6e 3f       	cpi	r22, 0xFE	; 254
    6b02:	77 40       	sbci	r23, 0x07	; 7
    6b04:	98 f4       	brcc	.+38     	; 0x6b2c <decode_ksuba_4093+0x4c>
    6b06:	dc 01       	movw	r26, r24
    6b08:	63 e0       	ldi	r22, 0x03	; 3
    6b0a:	b6 95       	lsr	r27
    6b0c:	a7 95       	ror	r26
    6b0e:	6a 95       	dec	r22
    6b10:	e1 f7       	brne	.-8      	; 0x6b0a <decode_ksuba_4093+0x2a>
    6b12:	a2 0f       	add	r26, r18
    6b14:	b3 1f       	adc	r27, r19
    6b16:	bc 01       	movw	r22, r24
    6b18:	67 70       	andi	r22, 0x07	; 7
    6b1a:	77 27       	eor	r23, r23
    6b1c:	8e 01       	movw	r16, r28
    6b1e:	01 c0       	rjmp	.+2      	; 0x6b22 <decode_ksuba_4093+0x42>
    6b20:	00 0f       	add	r16, r16
    6b22:	6a 95       	dec	r22
    6b24:	ea f7       	brpl	.-6      	; 0x6b20 <decode_ksuba_4093+0x40>
    6b26:	6c 91       	ld	r22, X
    6b28:	60 2b       	or	r22, r16
    6b2a:	6c 93       	st	X, r22
    6b2c:	48 17       	cp	r20, r24
    6b2e:	59 07       	cpc	r21, r25
    6b30:	11 f0       	breq	.+4      	; 0x6b36 <decode_ksuba_4093+0x56>
    6b32:	01 96       	adiw	r24, 0x01	; 1
    6b34:	e1 cf       	rjmp	.-62     	; 0x6af8 <decode_ksuba_4093+0x18>
    6b36:	df 91       	pop	r29
    6b38:	cf 91       	pop	r28
    6b3a:	1f 91       	pop	r17
    6b3c:	0f 91       	pop	r16
    6b3e:	08 95       	ret

00006b40 <decrypt_ksuba_4093>:
    6b40:	af 92       	push	r10
    6b42:	bf 92       	push	r11
    6b44:	cf 92       	push	r12
    6b46:	df 92       	push	r13
    6b48:	ef 92       	push	r14
    6b4a:	ff 92       	push	r15
    6b4c:	0f 93       	push	r16
    6b4e:	1f 93       	push	r17
    6b50:	cf 93       	push	r28
    6b52:	df 93       	push	r29
    6b54:	6c 01       	movw	r12, r24
    6b56:	d6 2f       	mov	r29, r22
    6b58:	c7 2f       	mov	r28, r23
    6b5a:	5a 01       	movw	r10, r20
    6b5c:	b9 01       	movw	r22, r18
    6b5e:	78 01       	movw	r14, r16
    6b60:	00 3c       	cpi	r16, 0xC0	; 192
    6b62:	11 05       	cpc	r17, r1
    6b64:	f9 f4       	brne	.+62     	; 0x6ba4 <decrypt_ksuba_4093+0x64>
    6b66:	21 e0       	ldi	r18, 0x01	; 1
    6b68:	30 e0       	ldi	r19, 0x00	; 0
    6b6a:	4d 2f       	mov	r20, r29
    6b6c:	5c 2f       	mov	r21, r28
    6b6e:	8d 2f       	mov	r24, r29
    6b70:	9c 2f       	mov	r25, r28
    6b72:	0e 94 d0 33 	call	0x67a0	; 0x67a0 <karatsuba_4093_192>
    6b76:	ed 2f       	mov	r30, r29
    6b78:	fc 2f       	mov	r31, r28
    6b7a:	d5 01       	movw	r26, r10
    6b7c:	50 e0       	ldi	r21, 0x00	; 0
    6b7e:	40 e0       	ldi	r20, 0x00	; 0
    6b80:	4e 15       	cp	r20, r14
    6b82:	5f 05       	cpc	r21, r15
    6b84:	41 f5       	brne	.+80     	; 0x6bd6 <decrypt_ksuba_4093+0x96>
    6b86:	b6 01       	movw	r22, r12
    6b88:	8d 2f       	mov	r24, r29
    6b8a:	9c 2f       	mov	r25, r28
    6b8c:	df 91       	pop	r29
    6b8e:	cf 91       	pop	r28
    6b90:	1f 91       	pop	r17
    6b92:	0f 91       	pop	r16
    6b94:	ff 90       	pop	r15
    6b96:	ef 90       	pop	r14
    6b98:	df 90       	pop	r13
    6b9a:	cf 90       	pop	r12
    6b9c:	bf 90       	pop	r11
    6b9e:	af 90       	pop	r10
    6ba0:	0c 94 70 35 	jmp	0x6ae0	; 0x6ae0 <decode_ksuba_4093>
    6ba4:	01 15       	cp	r16, r1
    6ba6:	81 e0       	ldi	r24, 0x01	; 1
    6ba8:	18 07       	cpc	r17, r24
    6baa:	61 f0       	breq	.+24     	; 0x6bc4 <decrypt_ksuba_4093+0x84>
    6bac:	00 34       	cpi	r16, 0x40	; 64
    6bae:	11 40       	sbci	r17, 0x01	; 1
    6bb0:	11 f7       	brne	.-60     	; 0x6b76 <decrypt_ksuba_4093+0x36>
    6bb2:	21 e0       	ldi	r18, 0x01	; 1
    6bb4:	30 e0       	ldi	r19, 0x00	; 0
    6bb6:	4d 2f       	mov	r20, r29
    6bb8:	5c 2f       	mov	r21, r28
    6bba:	8d 2f       	mov	r24, r29
    6bbc:	9c 2f       	mov	r25, r28
    6bbe:	0e 94 6e 34 	call	0x68dc	; 0x68dc <karatsuba_4093_320>
    6bc2:	d9 cf       	rjmp	.-78     	; 0x6b76 <decrypt_ksuba_4093+0x36>
    6bc4:	21 e0       	ldi	r18, 0x01	; 1
    6bc6:	30 e0       	ldi	r19, 0x00	; 0
    6bc8:	4d 2f       	mov	r20, r29
    6bca:	5c 2f       	mov	r21, r28
    6bcc:	8d 2f       	mov	r24, r29
    6bce:	9c 2f       	mov	r25, r28
    6bd0:	0e 94 20 34 	call	0x6840	; 0x6840 <karatsuba_4093_256>
    6bd4:	d0 cf       	rjmp	.-96     	; 0x6b76 <decrypt_ksuba_4093+0x36>
    6bd6:	2d 91       	ld	r18, X+
    6bd8:	3d 91       	ld	r19, X+
    6bda:	80 81       	ld	r24, Z
    6bdc:	91 81       	ldd	r25, Z+1	; 0x01
    6bde:	28 0f       	add	r18, r24
    6be0:	39 1f       	adc	r19, r25
    6be2:	2e 3f       	cpi	r18, 0xFE	; 254
    6be4:	8f e0       	ldi	r24, 0x0F	; 15
    6be6:	38 07       	cpc	r19, r24
    6be8:	10 f0       	brcs	.+4      	; 0x6bee <decrypt_ksuba_4093+0xae>
    6bea:	2d 5f       	subi	r18, 0xFD	; 253
    6bec:	3f 40       	sbci	r19, 0x0F	; 15
    6bee:	20 83       	st	Z, r18
    6bf0:	31 83       	std	Z+1, r19	; 0x01
    6bf2:	4f 5f       	subi	r20, 0xFF	; 255
    6bf4:	5f 4f       	sbci	r21, 0xFF	; 255
    6bf6:	32 96       	adiw	r30, 0x02	; 2
    6bf8:	c3 cf       	rjmp	.-122    	; 0x6b80 <decrypt_ksuba_4093+0x40>

00006bfa <set_max_recursion_stages4096>:
    6bfa:	80 93 07 20 	sts	0x2007, r24	; 0x802007 <max_recursion_stages4096>
    6bfe:	08 95       	ret

00006c00 <reduce4096>:
    6c00:	0f 93       	push	r16
    6c02:	1f 93       	push	r17
    6c04:	cf 93       	push	r28
    6c06:	df 93       	push	r29
    6c08:	8b 01       	movw	r16, r22
    6c0a:	ba 01       	movw	r22, r20
    6c0c:	fc 01       	movw	r30, r24
    6c0e:	ea 01       	movw	r28, r20
    6c10:	cc 0f       	add	r28, r28
    6c12:	dd 1f       	adc	r29, r29
    6c14:	c8 0f       	add	r28, r24
    6c16:	d9 1f       	adc	r29, r25
    6c18:	50 e0       	ldi	r21, 0x00	; 0
    6c1a:	40 e0       	ldi	r20, 0x00	; 0
    6c1c:	46 17       	cp	r20, r22
    6c1e:	57 07       	cpc	r21, r23
    6c20:	29 f4       	brne	.+10     	; 0x6c2c <reduce4096+0x2c>
    6c22:	df 91       	pop	r29
    6c24:	cf 91       	pop	r28
    6c26:	1f 91       	pop	r17
    6c28:	0f 91       	pop	r16
    6c2a:	08 95       	ret
    6c2c:	81 91       	ld	r24, Z+
    6c2e:	91 91       	ld	r25, Z+
    6c30:	29 91       	ld	r18, Y+
    6c32:	39 91       	ld	r19, Y+
    6c34:	82 1b       	sub	r24, r18
    6c36:	93 0b       	sbc	r25, r19
    6c38:	9a 01       	movw	r18, r20
    6c3a:	22 0f       	add	r18, r18
    6c3c:	33 1f       	adc	r19, r19
    6c3e:	20 0f       	add	r18, r16
    6c40:	31 1f       	adc	r19, r17
    6c42:	97 fd       	sbrc	r25, 7
    6c44:	06 c0       	rjmp	.+12     	; 0x6c52 <reduce4096+0x52>
    6c46:	d9 01       	movw	r26, r18
    6c48:	8d 93       	st	X+, r24
    6c4a:	9c 93       	st	X, r25
    6c4c:	4f 5f       	subi	r20, 0xFF	; 255
    6c4e:	5f 4f       	sbci	r21, 0xFF	; 255
    6c50:	e5 cf       	rjmp	.-54     	; 0x6c1c <reduce4096+0x1c>
    6c52:	90 5f       	subi	r25, 0xF0	; 240
    6c54:	f8 cf       	rjmp	.-16     	; 0x6c46 <reduce4096+0x46>

00006c56 <karatsuba_recursive4096>:
    6c56:	2f 92       	push	r2
    6c58:	3f 92       	push	r3
    6c5a:	4f 92       	push	r4
    6c5c:	5f 92       	push	r5
    6c5e:	6f 92       	push	r6
    6c60:	7f 92       	push	r7
    6c62:	8f 92       	push	r8
    6c64:	9f 92       	push	r9
    6c66:	af 92       	push	r10
    6c68:	bf 92       	push	r11
    6c6a:	cf 92       	push	r12
    6c6c:	df 92       	push	r13
    6c6e:	ef 92       	push	r14
    6c70:	ff 92       	push	r15
    6c72:	0f 93       	push	r16
    6c74:	1f 93       	push	r17
    6c76:	cf 93       	push	r28
    6c78:	df 93       	push	r29
    6c7a:	cd b7       	in	r28, 0x3d	; 61
    6c7c:	de b7       	in	r29, 0x3e	; 62
    6c7e:	28 97       	sbiw	r28, 0x08	; 8
    6c80:	cd bf       	out	0x3d, r28	; 61
    6c82:	de bf       	out	0x3e, r29	; 62
    6c84:	2c 01       	movw	r4, r24
    6c86:	3b 01       	movw	r6, r22
    6c88:	7a 01       	movw	r14, r20
    6c8a:	59 01       	movw	r10, r18
    6c8c:	10 2f       	mov	r17, r16
    6c8e:	4d b7       	in	r20, 0x3d	; 61
    6c90:	5e b7       	in	r21, 0x3e	; 62
    6c92:	4f 83       	std	Y+7, r20	; 0x07
    6c94:	58 87       	std	Y+8, r21	; 0x08
    6c96:	19 01       	movw	r2, r18
    6c98:	22 0c       	add	r2, r2
    6c9a:	33 1c       	adc	r3, r3
    6c9c:	8d b7       	in	r24, 0x3d	; 61
    6c9e:	9e b7       	in	r25, 0x3e	; 62
    6ca0:	82 19       	sub	r24, r2
    6ca2:	93 09       	sbc	r25, r3
    6ca4:	8d bf       	out	0x3d, r24	; 61
    6ca6:	9e bf       	out	0x3e, r25	; 62
    6ca8:	ad b7       	in	r26, 0x3d	; 61
    6caa:	be b7       	in	r27, 0x3e	; 62
    6cac:	11 96       	adiw	r26, 0x01	; 1
    6cae:	4d 01       	movw	r8, r26
    6cb0:	f9 01       	movw	r30, r18
    6cb2:	e1 70       	andi	r30, 0x01	; 1
    6cb4:	ff 27       	eor	r31, r31
    6cb6:	ed 83       	std	Y+5, r30	; 0x05
    6cb8:	fe 83       	std	Y+6, r31	; 0x06
    6cba:	20 fd       	sbrc	r18, 0
    6cbc:	84 c0       	rjmp	.+264    	; 0x6dc6 <karatsuba_recursive4096+0x170>
    6cbe:	80 91 07 20 	lds	r24, 0x2007	; 0x802007 <max_recursion_stages4096>
    6cc2:	80 17       	cp	r24, r16
    6cc4:	09 f4       	brne	.+2      	; 0x6cc8 <karatsuba_recursive4096+0x72>
    6cc6:	7f c0       	rjmp	.+254    	; 0x6dc6 <karatsuba_recursive4096+0x170>
    6cc8:	69 01       	movw	r12, r18
    6cca:	d6 94       	lsr	r13
    6ccc:	c7 94       	ror	r12
    6cce:	00 e0       	ldi	r16, 0x00	; 0
    6cd0:	80 2f       	mov	r24, r16
    6cd2:	90 e0       	ldi	r25, 0x00	; 0
    6cd4:	8c 15       	cp	r24, r12
    6cd6:	9d 05       	cpc	r25, r13
    6cd8:	08 f4       	brcc	.+2      	; 0x6cdc <karatsuba_recursive4096+0x86>
    6cda:	ae c0       	rjmp	.+348    	; 0x6e38 <karatsuba_recursive4096+0x1e2>
    6cdc:	1f 5f       	subi	r17, 0xFF	; 255
    6cde:	f6 01       	movw	r30, r12
    6ce0:	ee 0f       	add	r30, r30
    6ce2:	ff 1f       	adc	r31, r31
    6ce4:	e9 83       	std	Y+1, r30	; 0x01
    6ce6:	fa 83       	std	Y+2, r31	; 0x02
    6ce8:	bf 01       	movw	r22, r30
    6cea:	68 0d       	add	r22, r8
    6cec:	79 1d       	adc	r23, r9
    6cee:	01 2f       	mov	r16, r17
    6cf0:	96 01       	movw	r18, r12
    6cf2:	a7 01       	movw	r20, r14
    6cf4:	c4 01       	movw	r24, r8
    6cf6:	0e 94 2b 36 	call	0x6c56	; 0x6c56 <karatsuba_recursive4096>
    6cfa:	69 81       	ldd	r22, Y+1	; 0x01
    6cfc:	7a 81       	ldd	r23, Y+2	; 0x02
    6cfe:	66 0d       	add	r22, r6
    6d00:	77 1d       	adc	r23, r7
    6d02:	96 01       	movw	r18, r12
    6d04:	a7 01       	movw	r20, r14
    6d06:	42 0d       	add	r20, r2
    6d08:	53 1d       	adc	r21, r3
    6d0a:	89 81       	ldd	r24, Y+1	; 0x01
    6d0c:	9a 81       	ldd	r25, Y+2	; 0x02
    6d0e:	84 0d       	add	r24, r4
    6d10:	95 1d       	adc	r25, r5
    6d12:	0e 94 2b 36 	call	0x6c56	; 0x6c56 <karatsuba_recursive4096>
    6d16:	eb 82       	std	Y+3, r14	; 0x03
    6d18:	fc 82       	std	Y+4, r15	; 0x04
    6d1a:	f7 01       	movw	r30, r14
    6d1c:	30 e0       	ldi	r19, 0x00	; 0
    6d1e:	20 e0       	ldi	r18, 0x00	; 0
    6d20:	2a 15       	cp	r18, r10
    6d22:	3b 05       	cpc	r19, r11
    6d24:	09 f0       	breq	.+2      	; 0x6d28 <karatsuba_recursive4096+0xd2>
    6d26:	ba c0       	rjmp	.+372    	; 0x6e9c <karatsuba_recursive4096+0x246>
    6d28:	01 2f       	mov	r16, r17
    6d2a:	96 01       	movw	r18, r12
    6d2c:	a4 01       	movw	r20, r8
    6d2e:	b3 01       	movw	r22, r6
    6d30:	c2 01       	movw	r24, r4
    6d32:	0e 94 2b 36 	call	0x6c56	; 0x6c56 <karatsuba_recursive4096>
    6d36:	b4 01       	movw	r22, r8
    6d38:	d4 01       	movw	r26, r8
    6d3a:	f7 01       	movw	r30, r14
    6d3c:	30 e0       	ldi	r19, 0x00	; 0
    6d3e:	20 e0       	ldi	r18, 0x00	; 0
    6d40:	2a 15       	cp	r18, r10
    6d42:	3b 05       	cpc	r19, r11
    6d44:	09 f0       	breq	.+2      	; 0x6d48 <karatsuba_recursive4096+0xf2>
    6d46:	bd c0       	rjmp	.+378    	; 0x6ec2 <karatsuba_recursive4096+0x26c>
    6d48:	f6 01       	movw	r30, r12
    6d4a:	ee 0f       	add	r30, r30
    6d4c:	ff 1f       	adc	r31, r31
    6d4e:	ee 0f       	add	r30, r30
    6d50:	ff 1f       	adc	r31, r31
    6d52:	ee 0d       	add	r30, r14
    6d54:	ff 1d       	adc	r31, r15
    6d56:	c6 01       	movw	r24, r12
    6d58:	8a 15       	cp	r24, r10
    6d5a:	9b 05       	cpc	r25, r11
    6d5c:	08 f4       	brcc	.+2      	; 0x6d60 <karatsuba_recursive4096+0x10a>
    6d5e:	c1 c0       	rjmp	.+386    	; 0x6ee2 <karatsuba_recursive4096+0x28c>
    6d60:	a9 81       	ldd	r26, Y+1	; 0x01
    6d62:	ba 81       	ldd	r27, Y+2	; 0x02
    6d64:	ae 0d       	add	r26, r14
    6d66:	bf 1d       	adc	r27, r15
    6d68:	cd 01       	movw	r24, r26
    6d6a:	30 e0       	ldi	r19, 0x00	; 0
    6d6c:	20 e0       	ldi	r18, 0x00	; 0
    6d6e:	2c 15       	cp	r18, r12
    6d70:	3d 05       	cpc	r19, r13
    6d72:	09 f0       	breq	.+2      	; 0x6d76 <karatsuba_recursive4096+0x120>
    6d74:	ca c0       	rjmp	.+404    	; 0x6f0a <karatsuba_recursive4096+0x2b4>
    6d76:	8d 81       	ldd	r24, Y+5	; 0x05
    6d78:	9e 81       	ldd	r25, Y+6	; 0x06
    6d7a:	8c 15       	cp	r24, r12
    6d7c:	9d 05       	cpc	r25, r13
    6d7e:	09 f0       	breq	.+2      	; 0x6d82 <karatsuba_recursive4096+0x12c>
    6d80:	cf c0       	rjmp	.+414    	; 0x6f20 <karatsuba_recursive4096+0x2ca>
    6d82:	ca 14       	cp	r12, r10
    6d84:	db 04       	cpc	r13, r11
    6d86:	08 f4       	brcc	.+2      	; 0x6d8a <karatsuba_recursive4096+0x134>
    6d88:	dc c0       	rjmp	.+440    	; 0x6f42 <karatsuba_recursive4096+0x2ec>
    6d8a:	4f 81       	ldd	r20, Y+7	; 0x07
    6d8c:	58 85       	ldd	r21, Y+8	; 0x08
    6d8e:	4d bf       	out	0x3d, r20	; 61
    6d90:	5e bf       	out	0x3e, r21	; 62
    6d92:	8f 81       	ldd	r24, Y+7	; 0x07
    6d94:	98 85       	ldd	r25, Y+8	; 0x08
    6d96:	8d bf       	out	0x3d, r24	; 61
    6d98:	9e bf       	out	0x3e, r25	; 62
    6d9a:	28 96       	adiw	r28, 0x08	; 8
    6d9c:	cd bf       	out	0x3d, r28	; 61
    6d9e:	de bf       	out	0x3e, r29	; 62
    6da0:	df 91       	pop	r29
    6da2:	cf 91       	pop	r28
    6da4:	1f 91       	pop	r17
    6da6:	0f 91       	pop	r16
    6da8:	ff 90       	pop	r15
    6daa:	ef 90       	pop	r14
    6dac:	df 90       	pop	r13
    6dae:	cf 90       	pop	r12
    6db0:	bf 90       	pop	r11
    6db2:	af 90       	pop	r10
    6db4:	9f 90       	pop	r9
    6db6:	8f 90       	pop	r8
    6db8:	7f 90       	pop	r7
    6dba:	6f 90       	pop	r6
    6dbc:	5f 90       	pop	r5
    6dbe:	4f 90       	pop	r4
    6dc0:	3f 90       	pop	r3
    6dc2:	2f 90       	pop	r2
    6dc4:	08 95       	ret
    6dc6:	f7 01       	movw	r30, r14
    6dc8:	90 e0       	ldi	r25, 0x00	; 0
    6dca:	80 e0       	ldi	r24, 0x00	; 0
    6dcc:	82 15       	cp	r24, r2
    6dce:	93 05       	cpc	r25, r3
    6dd0:	71 f4       	brne	.+28     	; 0x6dee <karatsuba_recursive4096+0x198>
    6dd2:	d1 2c       	mov	r13, r1
    6dd4:	c1 2c       	mov	r12, r1
    6dd6:	ca 14       	cp	r12, r10
    6dd8:	db 04       	cpc	r13, r11
    6dda:	b9 f2       	breq	.-82     	; 0x6d8a <karatsuba_recursive4096+0x134>
    6ddc:	83 01       	movw	r16, r6
    6dde:	16 01       	movw	r2, r12
    6de0:	22 0c       	add	r2, r2
    6de2:	33 1c       	adc	r3, r3
    6de4:	2e 0c       	add	r2, r14
    6de6:	3f 1c       	adc	r3, r15
    6de8:	91 2c       	mov	r9, r1
    6dea:	81 2c       	mov	r8, r1
    6dec:	1b c0       	rjmp	.+54     	; 0x6e24 <karatsuba_recursive4096+0x1ce>
    6dee:	11 92       	st	Z+, r1
    6df0:	11 92       	st	Z+, r1
    6df2:	01 96       	adiw	r24, 0x01	; 1
    6df4:	eb cf       	rjmp	.-42     	; 0x6dcc <karatsuba_recursive4096+0x176>
    6df6:	d8 01       	movw	r26, r16
    6df8:	6d 91       	ld	r22, X+
    6dfa:	7d 91       	ld	r23, X+
    6dfc:	8d 01       	movw	r16, r26
    6dfe:	f2 01       	movw	r30, r4
    6e00:	80 81       	ld	r24, Z
    6e02:	91 81       	ldd	r25, Z+1	; 0x01
    6e04:	0e 94 bd 2e 	call	0x5d7a	; 0x5d7a <call_mulRed_asm_4096>
    6e08:	d1 01       	movw	r26, r2
    6e0a:	2d 91       	ld	r18, X+
    6e0c:	3d 91       	ld	r19, X+
    6e0e:	1d 01       	movw	r2, r26
    6e10:	fd 01       	movw	r30, r26
    6e12:	32 97       	sbiw	r30, 0x02	; 2
    6e14:	28 0f       	add	r18, r24
    6e16:	39 1f       	adc	r19, r25
    6e18:	3f 70       	andi	r19, 0x0F	; 15
    6e1a:	20 83       	st	Z, r18
    6e1c:	31 83       	std	Z+1, r19	; 0x01
    6e1e:	bf ef       	ldi	r27, 0xFF	; 255
    6e20:	8b 1a       	sub	r8, r27
    6e22:	9b 0a       	sbc	r9, r27
    6e24:	8a 14       	cp	r8, r10
    6e26:	9b 04       	cpc	r9, r11
    6e28:	31 f7       	brne	.-52     	; 0x6df6 <karatsuba_recursive4096+0x1a0>
    6e2a:	ef ef       	ldi	r30, 0xFF	; 255
    6e2c:	ce 1a       	sub	r12, r30
    6e2e:	de 0a       	sbc	r13, r30
    6e30:	f2 e0       	ldi	r31, 0x02	; 2
    6e32:	4f 0e       	add	r4, r31
    6e34:	51 1c       	adc	r5, r1
    6e36:	cf cf       	rjmp	.-98     	; 0x6dd6 <karatsuba_recursive4096+0x180>
    6e38:	9c 01       	movw	r18, r24
    6e3a:	22 0f       	add	r18, r18
    6e3c:	33 1f       	adc	r19, r19
    6e3e:	8c 0d       	add	r24, r12
    6e40:	9d 1d       	adc	r25, r13
    6e42:	88 0f       	add	r24, r24
    6e44:	99 1f       	adc	r25, r25
    6e46:	d4 01       	movw	r26, r8
    6e48:	a2 0f       	add	r26, r18
    6e4a:	b3 1f       	adc	r27, r19
    6e4c:	a9 83       	std	Y+1, r26	; 0x01
    6e4e:	ba 83       	std	Y+2, r27	; 0x02
    6e50:	d2 01       	movw	r26, r4
    6e52:	a2 0f       	add	r26, r18
    6e54:	b3 1f       	adc	r27, r19
    6e56:	f2 01       	movw	r30, r4
    6e58:	e8 0f       	add	r30, r24
    6e5a:	f9 1f       	adc	r31, r25
    6e5c:	4d 91       	ld	r20, X+
    6e5e:	5c 91       	ld	r21, X
    6e60:	60 81       	ld	r22, Z
    6e62:	71 81       	ldd	r23, Z+1	; 0x01
    6e64:	46 0f       	add	r20, r22
    6e66:	57 1f       	adc	r21, r23
    6e68:	5f 70       	andi	r21, 0x0F	; 15
    6e6a:	e9 81       	ldd	r30, Y+1	; 0x01
    6e6c:	fa 81       	ldd	r31, Y+2	; 0x02
    6e6e:	40 83       	st	Z, r20
    6e70:	51 83       	std	Z+1, r21	; 0x01
    6e72:	a4 01       	movw	r20, r8
    6e74:	48 0f       	add	r20, r24
    6e76:	59 1f       	adc	r21, r25
    6e78:	26 0d       	add	r18, r6
    6e7a:	37 1d       	adc	r19, r7
    6e7c:	d3 01       	movw	r26, r6
    6e7e:	a8 0f       	add	r26, r24
    6e80:	b9 1f       	adc	r27, r25
    6e82:	f9 01       	movw	r30, r18
    6e84:	80 81       	ld	r24, Z
    6e86:	91 81       	ldd	r25, Z+1	; 0x01
    6e88:	2d 91       	ld	r18, X+
    6e8a:	3c 91       	ld	r19, X
    6e8c:	82 0f       	add	r24, r18
    6e8e:	93 1f       	adc	r25, r19
    6e90:	9f 70       	andi	r25, 0x0F	; 15
    6e92:	da 01       	movw	r26, r20
    6e94:	8d 93       	st	X+, r24
    6e96:	9c 93       	st	X, r25
    6e98:	0f 5f       	subi	r16, 0xFF	; 255
    6e9a:	1a cf       	rjmp	.-460    	; 0x6cd0 <karatsuba_recursive4096+0x7a>
    6e9c:	80 81       	ld	r24, Z
    6e9e:	91 81       	ldd	r25, Z+1	; 0x01
    6ea0:	df 01       	movw	r26, r30
    6ea2:	a2 0d       	add	r26, r2
    6ea4:	b3 1d       	adc	r27, r3
    6ea6:	4d 91       	ld	r20, X+
    6ea8:	5c 91       	ld	r21, X
    6eaa:	84 1b       	sub	r24, r20
    6eac:	95 0b       	sbc	r25, r21
    6eae:	97 fd       	sbrc	r25, 7
    6eb0:	06 c0       	rjmp	.+12     	; 0x6ebe <karatsuba_recursive4096+0x268>
    6eb2:	80 83       	st	Z, r24
    6eb4:	91 83       	std	Z+1, r25	; 0x01
    6eb6:	2f 5f       	subi	r18, 0xFF	; 255
    6eb8:	3f 4f       	sbci	r19, 0xFF	; 255
    6eba:	32 96       	adiw	r30, 0x02	; 2
    6ebc:	31 cf       	rjmp	.-414    	; 0x6d20 <karatsuba_recursive4096+0xca>
    6ebe:	90 5f       	subi	r25, 0xF0	; 240
    6ec0:	f8 cf       	rjmp	.-16     	; 0x6eb2 <karatsuba_recursive4096+0x25c>
    6ec2:	4d 91       	ld	r20, X+
    6ec4:	5d 91       	ld	r21, X+
    6ec6:	80 81       	ld	r24, Z
    6ec8:	91 81       	ldd	r25, Z+1	; 0x01
    6eca:	84 1b       	sub	r24, r20
    6ecc:	95 0b       	sbc	r25, r21
    6ece:	97 fd       	sbrc	r25, 7
    6ed0:	06 c0       	rjmp	.+12     	; 0x6ede <karatsuba_recursive4096+0x288>
    6ed2:	80 83       	st	Z, r24
    6ed4:	91 83       	std	Z+1, r25	; 0x01
    6ed6:	2f 5f       	subi	r18, 0xFF	; 255
    6ed8:	3f 4f       	sbci	r19, 0xFF	; 255
    6eda:	32 96       	adiw	r30, 0x02	; 2
    6edc:	31 cf       	rjmp	.-414    	; 0x6d40 <karatsuba_recursive4096+0xea>
    6ede:	90 5f       	subi	r25, 0xF0	; 240
    6ee0:	f8 cf       	rjmp	.-16     	; 0x6ed2 <karatsuba_recursive4096+0x27c>
    6ee2:	41 91       	ld	r20, Z+
    6ee4:	51 91       	ld	r21, Z+
    6ee6:	8f 01       	movw	r16, r30
    6ee8:	02 50       	subi	r16, 0x02	; 2
    6eea:	11 09       	sbc	r17, r1
    6eec:	dc 01       	movw	r26, r24
    6eee:	aa 0f       	add	r26, r26
    6ef0:	bb 1f       	adc	r27, r27
    6ef2:	ae 0d       	add	r26, r14
    6ef4:	bf 1d       	adc	r27, r15
    6ef6:	2d 91       	ld	r18, X+
    6ef8:	3c 91       	ld	r19, X
    6efa:	24 0f       	add	r18, r20
    6efc:	35 1f       	adc	r19, r21
    6efe:	3f 70       	andi	r19, 0x0F	; 15
    6f00:	d8 01       	movw	r26, r16
    6f02:	2d 93       	st	X+, r18
    6f04:	3c 93       	st	X, r19
    6f06:	01 96       	adiw	r24, 0x01	; 1
    6f08:	27 cf       	rjmp	.-434    	; 0x6d58 <karatsuba_recursive4096+0x102>
    6f0a:	f7 01       	movw	r30, r14
    6f0c:	41 91       	ld	r20, Z+
    6f0e:	51 91       	ld	r21, Z+
    6f10:	7f 01       	movw	r14, r30
    6f12:	fc 01       	movw	r30, r24
    6f14:	41 93       	st	Z+, r20
    6f16:	51 93       	st	Z+, r21
    6f18:	cf 01       	movw	r24, r30
    6f1a:	2f 5f       	subi	r18, 0xFF	; 255
    6f1c:	3f 4f       	sbci	r19, 0xFF	; 255
    6f1e:	27 cf       	rjmp	.-434    	; 0x6d6e <karatsuba_recursive4096+0x118>
    6f20:	fb 01       	movw	r30, r22
    6f22:	81 91       	ld	r24, Z+
    6f24:	91 91       	ld	r25, Z+
    6f26:	bf 01       	movw	r22, r30
    6f28:	eb 81       	ldd	r30, Y+3	; 0x03
    6f2a:	fc 81       	ldd	r31, Y+4	; 0x04
    6f2c:	81 93       	st	Z+, r24
    6f2e:	91 93       	st	Z+, r25
    6f30:	eb 83       	std	Y+3, r30	; 0x03
    6f32:	fc 83       	std	Y+4, r31	; 0x04
    6f34:	4d 81       	ldd	r20, Y+5	; 0x05
    6f36:	5e 81       	ldd	r21, Y+6	; 0x06
    6f38:	4f 5f       	subi	r20, 0xFF	; 255
    6f3a:	5f 4f       	sbci	r21, 0xFF	; 255
    6f3c:	4d 83       	std	Y+5, r20	; 0x05
    6f3e:	5e 83       	std	Y+6, r21	; 0x06
    6f40:	1a cf       	rjmp	.-460    	; 0x6d76 <karatsuba_recursive4096+0x120>
    6f42:	8d 91       	ld	r24, X+
    6f44:	9d 91       	ld	r25, X+
    6f46:	9d 01       	movw	r18, r26
    6f48:	22 50       	subi	r18, 0x02	; 2
    6f4a:	31 09       	sbc	r19, r1
    6f4c:	f6 01       	movw	r30, r12
    6f4e:	ee 0f       	add	r30, r30
    6f50:	ff 1f       	adc	r31, r31
    6f52:	e8 0d       	add	r30, r8
    6f54:	f9 1d       	adc	r31, r9
    6f56:	40 81       	ld	r20, Z
    6f58:	51 81       	ldd	r21, Z+1	; 0x01
    6f5a:	84 0f       	add	r24, r20
    6f5c:	95 1f       	adc	r25, r21
    6f5e:	9f 70       	andi	r25, 0x0F	; 15
    6f60:	f9 01       	movw	r30, r18
    6f62:	80 83       	st	Z, r24
    6f64:	91 83       	std	Z+1, r25	; 0x01
    6f66:	ff ef       	ldi	r31, 0xFF	; 255
    6f68:	cf 1a       	sub	r12, r31
    6f6a:	df 0a       	sbc	r13, r31
    6f6c:	0a cf       	rjmp	.-492    	; 0x6d82 <karatsuba_recursive4096+0x12c>

00006f6e <karatsuba_4096_192>:
    6f6e:	bf 92       	push	r11
    6f70:	cf 92       	push	r12
    6f72:	df 92       	push	r13
    6f74:	ef 92       	push	r14
    6f76:	ff 92       	push	r15
    6f78:	0f 93       	push	r16
    6f7a:	1f 93       	push	r17
    6f7c:	cf 93       	push	r28
    6f7e:	df 93       	push	r29
    6f80:	cd b7       	in	r28, 0x3d	; 61
    6f82:	de b7       	in	r29, 0x3e	; 62
    6f84:	c0 58       	subi	r28, 0x80	; 128
    6f86:	d4 40       	sbci	r29, 0x04	; 4
    6f88:	cd bf       	out	0x3d, r28	; 61
    6f8a:	de bf       	out	0x3e, r29	; 62
    6f8c:	6b 01       	movw	r12, r22
    6f8e:	f4 2e       	mov	r15, r20
    6f90:	15 2f       	mov	r17, r21
    6f92:	a9 01       	movw	r20, r18
    6f94:	de 01       	movw	r26, r28
    6f96:	af 5f       	subi	r26, 0xFF	; 255
    6f98:	bc 4f       	sbci	r27, 0xFC	; 252
    6f9a:	30 e0       	ldi	r19, 0x00	; 0
    6f9c:	20 e0       	ldi	r18, 0x00	; 0
    6f9e:	ba 2e       	mov	r11, r26
    6fa0:	eb 2e       	mov	r14, r27
    6fa2:	f6 01       	movw	r30, r12
    6fa4:	e2 0f       	add	r30, r18
    6fa6:	f3 1f       	adc	r31, r19
    6fa8:	65 91       	lpm	r22, Z+
    6faa:	74 91       	lpm	r23, Z
    6fac:	6d 93       	st	X+, r22
    6fae:	7d 93       	st	X+, r23
    6fb0:	2e 5f       	subi	r18, 0xFE	; 254
    6fb2:	3f 4f       	sbci	r19, 0xFF	; 255
    6fb4:	20 38       	cpi	r18, 0x80	; 128
    6fb6:	61 e0       	ldi	r22, 0x01	; 1
    6fb8:	36 07       	cpc	r19, r22
    6fba:	99 f7       	brne	.-26     	; 0x6fa2 <karatsuba_4096_192+0x34>
    6fbc:	00 e0       	ldi	r16, 0x00	; 0
    6fbe:	20 ec       	ldi	r18, 0xC0	; 192
    6fc0:	30 e0       	ldi	r19, 0x00	; 0
    6fc2:	45 2b       	or	r20, r21
    6fc4:	e9 f4       	brne	.+58     	; 0x7000 <karatsuba_4096_192+0x92>
    6fc6:	ae 01       	movw	r20, r28
    6fc8:	4f 5f       	subi	r20, 0xFF	; 255
    6fca:	5f 4f       	sbci	r21, 0xFF	; 255
    6fcc:	6b 2d       	mov	r22, r11
    6fce:	7e 2d       	mov	r23, r14
    6fd0:	0e 94 2b 36 	call	0x6c56	; 0x6c56 <karatsuba_recursive4096>
    6fd4:	40 ec       	ldi	r20, 0xC0	; 192
    6fd6:	50 e0       	ldi	r21, 0x00	; 0
    6fd8:	6f 2d       	mov	r22, r15
    6fda:	71 2f       	mov	r23, r17
    6fdc:	ce 01       	movw	r24, r28
    6fde:	01 96       	adiw	r24, 0x01	; 1
    6fe0:	0e 94 00 36 	call	0x6c00	; 0x6c00 <reduce4096>
    6fe4:	c0 58       	subi	r28, 0x80	; 128
    6fe6:	db 4f       	sbci	r29, 0xFB	; 251
    6fe8:	cd bf       	out	0x3d, r28	; 61
    6fea:	de bf       	out	0x3e, r29	; 62
    6fec:	df 91       	pop	r29
    6fee:	cf 91       	pop	r28
    6ff0:	1f 91       	pop	r17
    6ff2:	0f 91       	pop	r16
    6ff4:	ff 90       	pop	r15
    6ff6:	ef 90       	pop	r14
    6ff8:	df 90       	pop	r13
    6ffa:	cf 90       	pop	r12
    6ffc:	bf 90       	pop	r11
    6ffe:	08 95       	ret
    7000:	ae 01       	movw	r20, r28
    7002:	4f 5f       	subi	r20, 0xFF	; 255
    7004:	5f 4f       	sbci	r21, 0xFF	; 255
    7006:	bc 01       	movw	r22, r24
    7008:	8b 2d       	mov	r24, r11
    700a:	9e 2d       	mov	r25, r14
    700c:	e1 cf       	rjmp	.-62     	; 0x6fd0 <karatsuba_4096_192+0x62>

0000700e <karatsuba_4096_256>:
    700e:	bf 92       	push	r11
    7010:	cf 92       	push	r12
    7012:	df 92       	push	r13
    7014:	ef 92       	push	r14
    7016:	ff 92       	push	r15
    7018:	0f 93       	push	r16
    701a:	1f 93       	push	r17
    701c:	cf 93       	push	r28
    701e:	df 93       	push	r29
    7020:	cd b7       	in	r28, 0x3d	; 61
    7022:	de b7       	in	r29, 0x3e	; 62
    7024:	d6 50       	subi	r29, 0x06	; 6
    7026:	cd bf       	out	0x3d, r28	; 61
    7028:	de bf       	out	0x3e, r29	; 62
    702a:	6b 01       	movw	r12, r22
    702c:	f4 2e       	mov	r15, r20
    702e:	15 2f       	mov	r17, r21
    7030:	a9 01       	movw	r20, r18
    7032:	de 01       	movw	r26, r28
    7034:	af 5f       	subi	r26, 0xFF	; 255
    7036:	bb 4f       	sbci	r27, 0xFB	; 251
    7038:	30 e0       	ldi	r19, 0x00	; 0
    703a:	20 e0       	ldi	r18, 0x00	; 0
    703c:	ba 2e       	mov	r11, r26
    703e:	eb 2e       	mov	r14, r27
    7040:	f6 01       	movw	r30, r12
    7042:	e2 0f       	add	r30, r18
    7044:	f3 1f       	adc	r31, r19
    7046:	65 91       	lpm	r22, Z+
    7048:	74 91       	lpm	r23, Z
    704a:	6d 93       	st	X+, r22
    704c:	7d 93       	st	X+, r23
    704e:	2e 5f       	subi	r18, 0xFE	; 254
    7050:	3f 4f       	sbci	r19, 0xFF	; 255
    7052:	21 15       	cp	r18, r1
    7054:	62 e0       	ldi	r22, 0x02	; 2
    7056:	36 07       	cpc	r19, r22
    7058:	99 f7       	brne	.-26     	; 0x7040 <karatsuba_4096_256+0x32>
    705a:	00 e0       	ldi	r16, 0x00	; 0
    705c:	20 e0       	ldi	r18, 0x00	; 0
    705e:	31 e0       	ldi	r19, 0x01	; 1
    7060:	45 2b       	or	r20, r21
    7062:	e1 f4       	brne	.+56     	; 0x709c <karatsuba_4096_256+0x8e>
    7064:	ae 01       	movw	r20, r28
    7066:	4f 5f       	subi	r20, 0xFF	; 255
    7068:	5f 4f       	sbci	r21, 0xFF	; 255
    706a:	6b 2d       	mov	r22, r11
    706c:	7e 2d       	mov	r23, r14
    706e:	0e 94 2b 36 	call	0x6c56	; 0x6c56 <karatsuba_recursive4096>
    7072:	40 e0       	ldi	r20, 0x00	; 0
    7074:	51 e0       	ldi	r21, 0x01	; 1
    7076:	6f 2d       	mov	r22, r15
    7078:	71 2f       	mov	r23, r17
    707a:	ce 01       	movw	r24, r28
    707c:	01 96       	adiw	r24, 0x01	; 1
    707e:	0e 94 00 36 	call	0x6c00	; 0x6c00 <reduce4096>
    7082:	da 5f       	subi	r29, 0xFA	; 250
    7084:	cd bf       	out	0x3d, r28	; 61
    7086:	de bf       	out	0x3e, r29	; 62
    7088:	df 91       	pop	r29
    708a:	cf 91       	pop	r28
    708c:	1f 91       	pop	r17
    708e:	0f 91       	pop	r16
    7090:	ff 90       	pop	r15
    7092:	ef 90       	pop	r14
    7094:	df 90       	pop	r13
    7096:	cf 90       	pop	r12
    7098:	bf 90       	pop	r11
    709a:	08 95       	ret
    709c:	ae 01       	movw	r20, r28
    709e:	4f 5f       	subi	r20, 0xFF	; 255
    70a0:	5f 4f       	sbci	r21, 0xFF	; 255
    70a2:	bc 01       	movw	r22, r24
    70a4:	8b 2d       	mov	r24, r11
    70a6:	9e 2d       	mov	r25, r14
    70a8:	e2 cf       	rjmp	.-60     	; 0x706e <karatsuba_4096_256+0x60>

000070aa <karatsuba_4096_320>:
    70aa:	bf 92       	push	r11
    70ac:	cf 92       	push	r12
    70ae:	df 92       	push	r13
    70b0:	ef 92       	push	r14
    70b2:	ff 92       	push	r15
    70b4:	0f 93       	push	r16
    70b6:	1f 93       	push	r17
    70b8:	cf 93       	push	r28
    70ba:	df 93       	push	r29
    70bc:	cd b7       	in	r28, 0x3d	; 61
    70be:	de b7       	in	r29, 0x3e	; 62
    70c0:	c0 58       	subi	r28, 0x80	; 128
    70c2:	d7 40       	sbci	r29, 0x07	; 7
    70c4:	cd bf       	out	0x3d, r28	; 61
    70c6:	de bf       	out	0x3e, r29	; 62
    70c8:	6b 01       	movw	r12, r22
    70ca:	f4 2e       	mov	r15, r20
    70cc:	15 2f       	mov	r17, r21
    70ce:	a9 01       	movw	r20, r18
    70d0:	de 01       	movw	r26, r28
    70d2:	af 5f       	subi	r26, 0xFF	; 255
    70d4:	ba 4f       	sbci	r27, 0xFA	; 250
    70d6:	30 e0       	ldi	r19, 0x00	; 0
    70d8:	20 e0       	ldi	r18, 0x00	; 0
    70da:	ba 2e       	mov	r11, r26
    70dc:	eb 2e       	mov	r14, r27
    70de:	f6 01       	movw	r30, r12
    70e0:	e2 0f       	add	r30, r18
    70e2:	f3 1f       	adc	r31, r19
    70e4:	65 91       	lpm	r22, Z+
    70e6:	74 91       	lpm	r23, Z
    70e8:	6d 93       	st	X+, r22
    70ea:	7d 93       	st	X+, r23
    70ec:	2e 5f       	subi	r18, 0xFE	; 254
    70ee:	3f 4f       	sbci	r19, 0xFF	; 255
    70f0:	20 38       	cpi	r18, 0x80	; 128
    70f2:	62 e0       	ldi	r22, 0x02	; 2
    70f4:	36 07       	cpc	r19, r22
    70f6:	99 f7       	brne	.-26     	; 0x70de <karatsuba_4096_320+0x34>
    70f8:	00 e0       	ldi	r16, 0x00	; 0
    70fa:	20 e4       	ldi	r18, 0x40	; 64
    70fc:	31 e0       	ldi	r19, 0x01	; 1
    70fe:	45 2b       	or	r20, r21
    7100:	e9 f4       	brne	.+58     	; 0x713c <karatsuba_4096_320+0x92>
    7102:	ae 01       	movw	r20, r28
    7104:	4f 5f       	subi	r20, 0xFF	; 255
    7106:	5f 4f       	sbci	r21, 0xFF	; 255
    7108:	6b 2d       	mov	r22, r11
    710a:	7e 2d       	mov	r23, r14
    710c:	0e 94 2b 36 	call	0x6c56	; 0x6c56 <karatsuba_recursive4096>
    7110:	40 e4       	ldi	r20, 0x40	; 64
    7112:	51 e0       	ldi	r21, 0x01	; 1
    7114:	6f 2d       	mov	r22, r15
    7116:	71 2f       	mov	r23, r17
    7118:	ce 01       	movw	r24, r28
    711a:	01 96       	adiw	r24, 0x01	; 1
    711c:	0e 94 00 36 	call	0x6c00	; 0x6c00 <reduce4096>
    7120:	c0 58       	subi	r28, 0x80	; 128
    7122:	d8 4f       	sbci	r29, 0xF8	; 248
    7124:	cd bf       	out	0x3d, r28	; 61
    7126:	de bf       	out	0x3e, r29	; 62
    7128:	df 91       	pop	r29
    712a:	cf 91       	pop	r28
    712c:	1f 91       	pop	r17
    712e:	0f 91       	pop	r16
    7130:	ff 90       	pop	r15
    7132:	ef 90       	pop	r14
    7134:	df 90       	pop	r13
    7136:	cf 90       	pop	r12
    7138:	bf 90       	pop	r11
    713a:	08 95       	ret
    713c:	ae 01       	movw	r20, r28
    713e:	4f 5f       	subi	r20, 0xFF	; 255
    7140:	5f 4f       	sbci	r21, 0xFF	; 255
    7142:	bc 01       	movw	r22, r24
    7144:	8b 2d       	mov	r24, r11
    7146:	9e 2d       	mov	r25, r14
    7148:	e1 cf       	rjmp	.-62     	; 0x710c <karatsuba_4096_320+0x62>

0000714a <add_encode_ksuba_4096>:
    714a:	cf 93       	push	r28
    714c:	df 93       	push	r29
    714e:	dc 01       	movw	r26, r24
    7150:	fb 01       	movw	r30, r22
    7152:	90 e0       	ldi	r25, 0x00	; 0
    7154:	80 e0       	ldi	r24, 0x00	; 0
    7156:	41 50       	subi	r20, 0x01	; 1
    7158:	51 09       	sbc	r21, r1
    715a:	ec 01       	movw	r28, r24
    715c:	23 e0       	ldi	r18, 0x03	; 3
    715e:	d6 95       	lsr	r29
    7160:	c7 95       	ror	r28
    7162:	2a 95       	dec	r18
    7164:	e1 f7       	brne	.-8      	; 0x715e <add_encode_ksuba_4096+0x14>
    7166:	ca 0f       	add	r28, r26
    7168:	db 1f       	adc	r29, r27
    716a:	28 81       	ld	r18, Y
    716c:	30 e0       	ldi	r19, 0x00	; 0
    716e:	bc 01       	movw	r22, r24
    7170:	67 70       	andi	r22, 0x07	; 7
    7172:	77 27       	eor	r23, r23
    7174:	02 c0       	rjmp	.+4      	; 0x717a <add_encode_ksuba_4096+0x30>
    7176:	35 95       	asr	r19
    7178:	27 95       	ror	r18
    717a:	6a 95       	dec	r22
    717c:	e2 f7       	brpl	.-8      	; 0x7176 <add_encode_ksuba_4096+0x2c>
    717e:	20 ff       	sbrs	r18, 0
    7180:	0a c0       	rjmp	.+20     	; 0x7196 <add_encode_ksuba_4096+0x4c>
    7182:	20 81       	ld	r18, Z
    7184:	31 81       	ldd	r19, Z+1	; 0x01
    7186:	b9 01       	movw	r22, r18
    7188:	78 5f       	subi	r23, 0xF8	; 248
    718a:	61 30       	cpi	r22, 0x01	; 1
    718c:	c0 e1       	ldi	r28, 0x10	; 16
    718e:	7c 07       	cpc	r23, r28
    7190:	40 f4       	brcc	.+16     	; 0x71a2 <add_encode_ksuba_4096+0x58>
    7192:	60 83       	st	Z, r22
    7194:	71 83       	std	Z+1, r23	; 0x01
    7196:	32 96       	adiw	r30, 0x02	; 2
    7198:	48 17       	cp	r20, r24
    719a:	59 07       	cpc	r21, r25
    719c:	31 f0       	breq	.+12     	; 0x71aa <add_encode_ksuba_4096+0x60>
    719e:	01 96       	adiw	r24, 0x01	; 1
    71a0:	dc cf       	rjmp	.-72     	; 0x715a <add_encode_ksuba_4096+0x10>
    71a2:	38 50       	subi	r19, 0x08	; 8
    71a4:	20 83       	st	Z, r18
    71a6:	31 83       	std	Z+1, r19	; 0x01
    71a8:	f6 cf       	rjmp	.-20     	; 0x7196 <add_encode_ksuba_4096+0x4c>
    71aa:	df 91       	pop	r29
    71ac:	cf 91       	pop	r28
    71ae:	08 95       	ret

000071b0 <encrypt_ksuba_4096>:
    71b0:	6f 92       	push	r6
    71b2:	7f 92       	push	r7
    71b4:	8f 92       	push	r8
    71b6:	9f 92       	push	r9
    71b8:	af 92       	push	r10
    71ba:	bf 92       	push	r11
    71bc:	cf 92       	push	r12
    71be:	df 92       	push	r13
    71c0:	ef 92       	push	r14
    71c2:	ff 92       	push	r15
    71c4:	0f 93       	push	r16
    71c6:	1f 93       	push	r17
    71c8:	cf 93       	push	r28
    71ca:	df 93       	push	r29
    71cc:	3c 01       	movw	r6, r24
    71ce:	d6 2f       	mov	r29, r22
    71d0:	c7 2f       	mov	r28, r23
    71d2:	5a 01       	movw	r10, r20
    71d4:	49 01       	movw	r8, r18
    71d6:	67 01       	movw	r12, r14
    71d8:	a7 01       	movw	r20, r14
    71da:	70 e0       	ldi	r23, 0x00	; 0
    71dc:	60 e0       	ldi	r22, 0x00	; 0
    71de:	8d 2f       	mov	r24, r29
    71e0:	9c 2f       	mov	r25, r28
    71e2:	0e 94 8e 31 	call	0x631c	; 0x631c <get_gauss_poly_4096_posneg>
    71e6:	80 ec       	ldi	r24, 0xC0	; 192
    71e8:	e8 16       	cp	r14, r24
    71ea:	f1 04       	cpc	r15, r1
    71ec:	89 f5       	brne	.+98     	; 0x7250 <encrypt_ksuba_4096+0xa0>
    71ee:	30 e0       	ldi	r19, 0x00	; 0
    71f0:	20 e0       	ldi	r18, 0x00	; 0
    71f2:	a5 01       	movw	r20, r10
    71f4:	b8 01       	movw	r22, r16
    71f6:	8d 2f       	mov	r24, r29
    71f8:	9c 2f       	mov	r25, r28
    71fa:	0e 94 b7 37 	call	0x6f6e	; 0x6f6e <karatsuba_4096_192>
    71fe:	30 e0       	ldi	r19, 0x00	; 0
    7200:	20 e0       	ldi	r18, 0x00	; 0
    7202:	4d 2f       	mov	r20, r29
    7204:	5c 2f       	mov	r21, r28
    7206:	b4 01       	movw	r22, r8
    7208:	8d 2f       	mov	r24, r29
    720a:	9c 2f       	mov	r25, r28
    720c:	0e 94 b7 37 	call	0x6f6e	; 0x6f6e <karatsuba_4096_192>
    7210:	a6 01       	movw	r20, r12
    7212:	61 e0       	ldi	r22, 0x01	; 1
    7214:	70 e0       	ldi	r23, 0x00	; 0
    7216:	8d 2f       	mov	r24, r29
    7218:	9c 2f       	mov	r25, r28
    721a:	0e 94 23 31 	call	0x6246	; 0x6246 <get_gauss_poly_4096>
    721e:	a6 01       	movw	r20, r12
    7220:	61 e0       	ldi	r22, 0x01	; 1
    7222:	70 e0       	ldi	r23, 0x00	; 0
    7224:	c5 01       	movw	r24, r10
    7226:	0e 94 23 31 	call	0x6246	; 0x6246 <get_gauss_poly_4096>
    722a:	a6 01       	movw	r20, r12
    722c:	b5 01       	movw	r22, r10
    722e:	c3 01       	movw	r24, r6
    7230:	df 91       	pop	r29
    7232:	cf 91       	pop	r28
    7234:	1f 91       	pop	r17
    7236:	0f 91       	pop	r16
    7238:	ff 90       	pop	r15
    723a:	ef 90       	pop	r14
    723c:	df 90       	pop	r13
    723e:	cf 90       	pop	r12
    7240:	bf 90       	pop	r11
    7242:	af 90       	pop	r10
    7244:	9f 90       	pop	r9
    7246:	8f 90       	pop	r8
    7248:	7f 90       	pop	r7
    724a:	6f 90       	pop	r6
    724c:	0c 94 a5 38 	jmp	0x714a	; 0x714a <add_encode_ksuba_4096>
    7250:	e1 14       	cp	r14, r1
    7252:	81 e0       	ldi	r24, 0x01	; 1
    7254:	f8 06       	cpc	r15, r24
    7256:	b9 f0       	breq	.+46     	; 0x7286 <encrypt_ksuba_4096+0xd6>
    7258:	80 e4       	ldi	r24, 0x40	; 64
    725a:	e8 16       	cp	r14, r24
    725c:	81 e0       	ldi	r24, 0x01	; 1
    725e:	f8 06       	cpc	r15, r24
    7260:	b9 f6       	brne	.-82     	; 0x7210 <encrypt_ksuba_4096+0x60>
    7262:	30 e0       	ldi	r19, 0x00	; 0
    7264:	20 e0       	ldi	r18, 0x00	; 0
    7266:	a5 01       	movw	r20, r10
    7268:	b8 01       	movw	r22, r16
    726a:	8d 2f       	mov	r24, r29
    726c:	9c 2f       	mov	r25, r28
    726e:	0e 94 55 38 	call	0x70aa	; 0x70aa <karatsuba_4096_320>
    7272:	30 e0       	ldi	r19, 0x00	; 0
    7274:	20 e0       	ldi	r18, 0x00	; 0
    7276:	4d 2f       	mov	r20, r29
    7278:	5c 2f       	mov	r21, r28
    727a:	b4 01       	movw	r22, r8
    727c:	8d 2f       	mov	r24, r29
    727e:	9c 2f       	mov	r25, r28
    7280:	0e 94 55 38 	call	0x70aa	; 0x70aa <karatsuba_4096_320>
    7284:	c5 cf       	rjmp	.-118    	; 0x7210 <encrypt_ksuba_4096+0x60>
    7286:	30 e0       	ldi	r19, 0x00	; 0
    7288:	20 e0       	ldi	r18, 0x00	; 0
    728a:	a5 01       	movw	r20, r10
    728c:	b8 01       	movw	r22, r16
    728e:	8d 2f       	mov	r24, r29
    7290:	9c 2f       	mov	r25, r28
    7292:	0e 94 07 38 	call	0x700e	; 0x700e <karatsuba_4096_256>
    7296:	30 e0       	ldi	r19, 0x00	; 0
    7298:	20 e0       	ldi	r18, 0x00	; 0
    729a:	4d 2f       	mov	r20, r29
    729c:	5c 2f       	mov	r21, r28
    729e:	b4 01       	movw	r22, r8
    72a0:	8d 2f       	mov	r24, r29
    72a2:	9c 2f       	mov	r25, r28
    72a4:	0e 94 07 38 	call	0x700e	; 0x700e <karatsuba_4096_256>
    72a8:	b3 cf       	rjmp	.-154    	; 0x7210 <encrypt_ksuba_4096+0x60>

000072aa <decode_ksuba_4096>:
    72aa:	0f 93       	push	r16
    72ac:	1f 93       	push	r17
    72ae:	cf 93       	push	r28
    72b0:	df 93       	push	r29
    72b2:	9b 01       	movw	r18, r22
    72b4:	fc 01       	movw	r30, r24
    72b6:	90 e0       	ldi	r25, 0x00	; 0
    72b8:	80 e0       	ldi	r24, 0x00	; 0
    72ba:	c1 e0       	ldi	r28, 0x01	; 1
    72bc:	d0 e0       	ldi	r29, 0x00	; 0
    72be:	41 50       	subi	r20, 0x01	; 1
    72c0:	51 09       	sbc	r21, r1
    72c2:	61 91       	ld	r22, Z+
    72c4:	71 91       	ld	r23, Z+
    72c6:	74 50       	subi	r23, 0x04	; 4
    72c8:	61 15       	cp	r22, r1
    72ca:	78 40       	sbci	r23, 0x08	; 8
    72cc:	98 f4       	brcc	.+38     	; 0x72f4 <decode_ksuba_4096+0x4a>
    72ce:	dc 01       	movw	r26, r24
    72d0:	63 e0       	ldi	r22, 0x03	; 3
    72d2:	b6 95       	lsr	r27
    72d4:	a7 95       	ror	r26
    72d6:	6a 95       	dec	r22
    72d8:	e1 f7       	brne	.-8      	; 0x72d2 <decode_ksuba_4096+0x28>
    72da:	a2 0f       	add	r26, r18
    72dc:	b3 1f       	adc	r27, r19
    72de:	bc 01       	movw	r22, r24
    72e0:	67 70       	andi	r22, 0x07	; 7
    72e2:	77 27       	eor	r23, r23
    72e4:	8e 01       	movw	r16, r28
    72e6:	01 c0       	rjmp	.+2      	; 0x72ea <decode_ksuba_4096+0x40>
    72e8:	00 0f       	add	r16, r16
    72ea:	6a 95       	dec	r22
    72ec:	ea f7       	brpl	.-6      	; 0x72e8 <decode_ksuba_4096+0x3e>
    72ee:	6c 91       	ld	r22, X
    72f0:	60 2b       	or	r22, r16
    72f2:	6c 93       	st	X, r22
    72f4:	48 17       	cp	r20, r24
    72f6:	59 07       	cpc	r21, r25
    72f8:	11 f0       	breq	.+4      	; 0x72fe <decode_ksuba_4096+0x54>
    72fa:	01 96       	adiw	r24, 0x01	; 1
    72fc:	e2 cf       	rjmp	.-60     	; 0x72c2 <decode_ksuba_4096+0x18>
    72fe:	df 91       	pop	r29
    7300:	cf 91       	pop	r28
    7302:	1f 91       	pop	r17
    7304:	0f 91       	pop	r16
    7306:	08 95       	ret

00007308 <decrypt_ksuba_4096>:
    7308:	af 92       	push	r10
    730a:	bf 92       	push	r11
    730c:	cf 92       	push	r12
    730e:	df 92       	push	r13
    7310:	ef 92       	push	r14
    7312:	ff 92       	push	r15
    7314:	0f 93       	push	r16
    7316:	1f 93       	push	r17
    7318:	cf 93       	push	r28
    731a:	df 93       	push	r29
    731c:	6c 01       	movw	r12, r24
    731e:	d6 2f       	mov	r29, r22
    7320:	c7 2f       	mov	r28, r23
    7322:	5a 01       	movw	r10, r20
    7324:	b9 01       	movw	r22, r18
    7326:	78 01       	movw	r14, r16
    7328:	00 3c       	cpi	r16, 0xC0	; 192
    732a:	11 05       	cpc	r17, r1
    732c:	f9 f4       	brne	.+62     	; 0x736c <decrypt_ksuba_4096+0x64>
    732e:	21 e0       	ldi	r18, 0x01	; 1
    7330:	30 e0       	ldi	r19, 0x00	; 0
    7332:	4d 2f       	mov	r20, r29
    7334:	5c 2f       	mov	r21, r28
    7336:	8d 2f       	mov	r24, r29
    7338:	9c 2f       	mov	r25, r28
    733a:	0e 94 b7 37 	call	0x6f6e	; 0x6f6e <karatsuba_4096_192>
    733e:	ed 2f       	mov	r30, r29
    7340:	fc 2f       	mov	r31, r28
    7342:	d5 01       	movw	r26, r10
    7344:	50 e0       	ldi	r21, 0x00	; 0
    7346:	40 e0       	ldi	r20, 0x00	; 0
    7348:	4e 15       	cp	r20, r14
    734a:	5f 05       	cpc	r21, r15
    734c:	41 f5       	brne	.+80     	; 0x739e <decrypt_ksuba_4096+0x96>
    734e:	b6 01       	movw	r22, r12
    7350:	8d 2f       	mov	r24, r29
    7352:	9c 2f       	mov	r25, r28
    7354:	df 91       	pop	r29
    7356:	cf 91       	pop	r28
    7358:	1f 91       	pop	r17
    735a:	0f 91       	pop	r16
    735c:	ff 90       	pop	r15
    735e:	ef 90       	pop	r14
    7360:	df 90       	pop	r13
    7362:	cf 90       	pop	r12
    7364:	bf 90       	pop	r11
    7366:	af 90       	pop	r10
    7368:	0c 94 55 39 	jmp	0x72aa	; 0x72aa <decode_ksuba_4096>
    736c:	01 15       	cp	r16, r1
    736e:	81 e0       	ldi	r24, 0x01	; 1
    7370:	18 07       	cpc	r17, r24
    7372:	61 f0       	breq	.+24     	; 0x738c <decrypt_ksuba_4096+0x84>
    7374:	00 34       	cpi	r16, 0x40	; 64
    7376:	11 40       	sbci	r17, 0x01	; 1
    7378:	11 f7       	brne	.-60     	; 0x733e <decrypt_ksuba_4096+0x36>
    737a:	21 e0       	ldi	r18, 0x01	; 1
    737c:	30 e0       	ldi	r19, 0x00	; 0
    737e:	4d 2f       	mov	r20, r29
    7380:	5c 2f       	mov	r21, r28
    7382:	8d 2f       	mov	r24, r29
    7384:	9c 2f       	mov	r25, r28
    7386:	0e 94 55 38 	call	0x70aa	; 0x70aa <karatsuba_4096_320>
    738a:	d9 cf       	rjmp	.-78     	; 0x733e <decrypt_ksuba_4096+0x36>
    738c:	21 e0       	ldi	r18, 0x01	; 1
    738e:	30 e0       	ldi	r19, 0x00	; 0
    7390:	4d 2f       	mov	r20, r29
    7392:	5c 2f       	mov	r21, r28
    7394:	8d 2f       	mov	r24, r29
    7396:	9c 2f       	mov	r25, r28
    7398:	0e 94 07 38 	call	0x700e	; 0x700e <karatsuba_4096_256>
    739c:	d0 cf       	rjmp	.-96     	; 0x733e <decrypt_ksuba_4096+0x36>
    739e:	2d 91       	ld	r18, X+
    73a0:	3d 91       	ld	r19, X+
    73a2:	80 81       	ld	r24, Z
    73a4:	91 81       	ldd	r25, Z+1	; 0x01
    73a6:	28 0f       	add	r18, r24
    73a8:	39 1f       	adc	r19, r25
    73aa:	21 30       	cpi	r18, 0x01	; 1
    73ac:	80 e1       	ldi	r24, 0x10	; 16
    73ae:	38 07       	cpc	r19, r24
    73b0:	08 f0       	brcs	.+2      	; 0x73b4 <decrypt_ksuba_4096+0xac>
    73b2:	30 51       	subi	r19, 0x10	; 16
    73b4:	20 83       	st	Z, r18
    73b6:	31 83       	std	Z+1, r19	; 0x01
    73b8:	4f 5f       	subi	r20, 0xFF	; 255
    73ba:	5f 4f       	sbci	r21, 0xFF	; 255
    73bc:	32 96       	adiw	r30, 0x02	; 2
    73be:	c4 cf       	rjmp	.-120    	; 0x7348 <decrypt_ksuba_4096+0x40>

000073c0 <get_gauss_poly_7681_256>:
    73c0:	9f 92       	push	r9
    73c2:	af 92       	push	r10
    73c4:	bf 92       	push	r11
    73c6:	cf 92       	push	r12
    73c8:	df 92       	push	r13
    73ca:	ef 92       	push	r14
    73cc:	ff 92       	push	r15
    73ce:	0f 93       	push	r16
    73d0:	1f 93       	push	r17
    73d2:	cf 93       	push	r28
    73d4:	df 93       	push	r29
    73d6:	cd b7       	in	r28, 0x3d	; 61
    73d8:	de b7       	in	r29, 0x3e	; 62
    73da:	e1 97       	sbiw	r28, 0x31	; 49
    73dc:	cd bf       	out	0x3d, r28	; 61
    73de:	de bf       	out	0x3e, r29	; 62
    73e0:	6b 01       	movw	r12, r22
    73e2:	19 aa       	std	Y+49, r1	; 0x31
    73e4:	7c 01       	movw	r14, r24
    73e6:	5c 01       	movw	r10, r24
    73e8:	2e ef       	ldi	r18, 0xFE	; 254
    73ea:	b2 1a       	sub	r11, r18
    73ec:	8e ef       	ldi	r24, 0xFE	; 254
    73ee:	98 2e       	mov	r9, r24
    73f0:	83 e2       	ldi	r24, 0x23	; 35
    73f2:	89 15       	cp	r24, r9
    73f4:	68 f4       	brcc	.+26     	; 0x7410 <get_gauss_poly_7681_256+0x50>
    73f6:	ce 01       	movw	r24, r28
    73f8:	01 96       	adiw	r24, 0x01	; 1
    73fa:	0e 94 b5 2f 	call	0x5f6a	; 0x5f6a <next_block_ptr>
    73fe:	ce 01       	movw	r24, r28
    7400:	41 96       	adiw	r24, 0x11	; 17
    7402:	0e 94 b5 2f 	call	0x5f6a	; 0x5f6a <next_block_ptr>
    7406:	ce 01       	movw	r24, r28
    7408:	81 96       	adiw	r24, 0x21	; 33
    740a:	0e 94 b5 2f 	call	0x5f6a	; 0x5f6a <next_block_ptr>
    740e:	91 2c       	mov	r9, r1
    7410:	21 e0       	ldi	r18, 0x01	; 1
    7412:	30 e0       	ldi	r19, 0x00	; 0
    7414:	2c 0f       	add	r18, r28
    7416:	3d 1f       	adc	r19, r29
    7418:	29 0d       	add	r18, r9
    741a:	31 1d       	adc	r19, r1
    741c:	8e 01       	movw	r16, r28
    741e:	0f 5c       	subi	r16, 0xCF	; 207
    7420:	1f 4f       	sbci	r17, 0xFF	; 255
    7422:	40 e7       	ldi	r20, 0x70	; 112
    7424:	55 e0       	ldi	r21, 0x05	; 5
    7426:	6c e0       	ldi	r22, 0x0C	; 12
    7428:	84 e3       	ldi	r24, 0x34	; 52
    742a:	0e 94 01 30 	call	0x6002	; 0x6002 <sample_gauss>
    742e:	99 a9       	ldd	r25, Y+49	; 0x31
    7430:	99 0e       	add	r9, r25
    7432:	08 2e       	mov	r0, r24
    7434:	00 0c       	add	r0, r0
    7436:	99 0b       	sbc	r25, r25
    7438:	e1 e0       	ldi	r30, 0x01	; 1
    743a:	ce 16       	cp	r12, r30
    743c:	d1 04       	cpc	r13, r1
    743e:	59 f4       	brne	.+22     	; 0x7456 <get_gauss_poly_7681_256+0x96>
    7440:	f7 01       	movw	r30, r14
    7442:	20 81       	ld	r18, Z
    7444:	31 81       	ldd	r19, Z+1	; 0x01
    7446:	82 0f       	add	r24, r18
    7448:	93 1f       	adc	r25, r19
    744a:	81 30       	cpi	r24, 0x01	; 1
    744c:	fe e1       	ldi	r31, 0x1E	; 30
    744e:	9f 07       	cpc	r25, r31
    7450:	10 f0       	brcs	.+4      	; 0x7456 <get_gauss_poly_7681_256+0x96>
    7452:	81 50       	subi	r24, 0x01	; 1
    7454:	9e 41       	sbci	r25, 0x1E	; 30
    7456:	f7 01       	movw	r30, r14
    7458:	80 83       	st	Z, r24
    745a:	91 83       	std	Z+1, r25	; 0x01
    745c:	f2 e0       	ldi	r31, 0x02	; 2
    745e:	ef 0e       	add	r14, r31
    7460:	f1 1c       	adc	r15, r1
    7462:	ea 14       	cp	r14, r10
    7464:	fb 04       	cpc	r15, r11
    7466:	21 f6       	brne	.-120    	; 0x73f0 <get_gauss_poly_7681_256+0x30>
    7468:	e1 96       	adiw	r28, 0x31	; 49
    746a:	cd bf       	out	0x3d, r28	; 61
    746c:	de bf       	out	0x3e, r29	; 62
    746e:	df 91       	pop	r29
    7470:	cf 91       	pop	r28
    7472:	1f 91       	pop	r17
    7474:	0f 91       	pop	r16
    7476:	ff 90       	pop	r15
    7478:	ef 90       	pop	r14
    747a:	df 90       	pop	r13
    747c:	cf 90       	pop	r12
    747e:	bf 90       	pop	r11
    7480:	af 90       	pop	r10
    7482:	9f 90       	pop	r9
    7484:	08 95       	ret

00007486 <first_stage_GS>:
    7486:	ef 92       	push	r14
    7488:	ff 92       	push	r15
    748a:	0f 93       	push	r16
    748c:	1f 93       	push	r17
    748e:	cf 93       	push	r28
    7490:	df 93       	push	r29
    7492:	8b 01       	movw	r16, r22
    7494:	13 95       	inc	r17
    7496:	ec 01       	movw	r28, r24
    7498:	7c 01       	movw	r14, r24
    749a:	8e ef       	ldi	r24, 0xFE	; 254
    749c:	f8 1a       	sub	r15, r24
    749e:	f8 01       	movw	r30, r16
    74a0:	85 91       	lpm	r24, Z+
    74a2:	94 91       	lpm	r25, Z
    74a4:	68 81       	ld	r22, Y
    74a6:	79 81       	ldd	r23, Y+1	; 0x01
    74a8:	4a 81       	ldd	r20, Y+2	; 0x02
    74aa:	5b 81       	ldd	r21, Y+3	; 0x03
    74ac:	9b 01       	movw	r18, r22
    74ae:	24 0f       	add	r18, r20
    74b0:	35 1f       	adc	r19, r21
    74b2:	21 30       	cpi	r18, 0x01	; 1
    74b4:	ee e1       	ldi	r30, 0x1E	; 30
    74b6:	3e 07       	cpc	r19, r30
    74b8:	cc f4       	brge	.+50     	; 0x74ec <first_stage_GS+0x66>
    74ba:	28 83       	st	Y, r18
    74bc:	39 83       	std	Y+1, r19	; 0x01
    74be:	64 1b       	sub	r22, r20
    74c0:	75 0b       	sbc	r23, r21
    74c2:	77 ff       	sbrs	r23, 7
    74c4:	02 c0       	rjmp	.+4      	; 0x74ca <first_stage_GS+0x44>
    74c6:	6f 5f       	subi	r22, 0xFF	; 255
    74c8:	71 4e       	sbci	r23, 0xE1	; 225
    74ca:	0e 94 90 2c 	call	0x5920	; 0x5920 <mm7681>
    74ce:	8a 83       	std	Y+2, r24	; 0x02
    74d0:	9b 83       	std	Y+3, r25	; 0x03
    74d2:	0e 5f       	subi	r16, 0xFE	; 254
    74d4:	1f 4f       	sbci	r17, 0xFF	; 255
    74d6:	24 96       	adiw	r28, 0x04	; 4
    74d8:	ec 16       	cp	r14, r28
    74da:	fd 06       	cpc	r15, r29
    74dc:	01 f7       	brne	.-64     	; 0x749e <first_stage_GS+0x18>
    74de:	df 91       	pop	r29
    74e0:	cf 91       	pop	r28
    74e2:	1f 91       	pop	r17
    74e4:	0f 91       	pop	r16
    74e6:	ff 90       	pop	r15
    74e8:	ef 90       	pop	r14
    74ea:	08 95       	ret
    74ec:	21 50       	subi	r18, 0x01	; 1
    74ee:	3e 41       	sbci	r19, 0x1E	; 30
    74f0:	e4 cf       	rjmp	.-56     	; 0x74ba <first_stage_GS+0x34>

000074f2 <last_stage_GS>:
    74f2:	af 92       	push	r10
    74f4:	bf 92       	push	r11
    74f6:	cf 92       	push	r12
    74f8:	df 92       	push	r13
    74fa:	ef 92       	push	r14
    74fc:	ff 92       	push	r15
    74fe:	0f 93       	push	r16
    7500:	1f 93       	push	r17
    7502:	cf 93       	push	r28
    7504:	df 93       	push	r29
    7506:	fb 01       	movw	r30, r22
    7508:	32 96       	adiw	r30, 0x02	; 2
    750a:	a5 90       	lpm	r10, Z+
    750c:	b4 90       	lpm	r11, Z
    750e:	ec 01       	movw	r28, r24
    7510:	8c 01       	movw	r16, r24
    7512:	13 95       	inc	r17
    7514:	68 01       	movw	r12, r16
    7516:	69 91       	ld	r22, Y+
    7518:	79 91       	ld	r23, Y+
    751a:	f8 01       	movw	r30, r16
    751c:	81 91       	ld	r24, Z+
    751e:	91 91       	ld	r25, Z+
    7520:	8f 01       	movw	r16, r30
    7522:	86 0f       	add	r24, r22
    7524:	97 1f       	adc	r25, r23
    7526:	fe 01       	movw	r30, r28
    7528:	32 97       	sbiw	r30, 0x02	; 2
    752a:	81 30       	cpi	r24, 0x01	; 1
    752c:	2e e1       	ldi	r18, 0x1E	; 30
    752e:	92 07       	cpc	r25, r18
    7530:	04 f5       	brge	.+64     	; 0x7572 <last_stage_GS+0x80>
    7532:	80 83       	st	Z, r24
    7534:	91 83       	std	Z+1, r25	; 0x01
    7536:	f8 01       	movw	r30, r16
    7538:	92 91       	ld	r25, -Z
    753a:	82 91       	ld	r24, -Z
    753c:	7f 01       	movw	r14, r30
    753e:	68 1b       	sub	r22, r24
    7540:	79 0b       	sbc	r23, r25
    7542:	77 ff       	sbrs	r23, 7
    7544:	02 c0       	rjmp	.+4      	; 0x754a <last_stage_GS+0x58>
    7546:	6f 5f       	subi	r22, 0xFF	; 255
    7548:	71 4e       	sbci	r23, 0xE1	; 225
    754a:	c5 01       	movw	r24, r10
    754c:	0e 94 90 2c 	call	0x5920	; 0x5920 <mm7681>
    7550:	f7 01       	movw	r30, r14
    7552:	80 83       	st	Z, r24
    7554:	91 83       	std	Z+1, r25	; 0x01
    7556:	cc 15       	cp	r28, r12
    7558:	dd 05       	cpc	r29, r13
    755a:	e9 f6       	brne	.-70     	; 0x7516 <last_stage_GS+0x24>
    755c:	df 91       	pop	r29
    755e:	cf 91       	pop	r28
    7560:	1f 91       	pop	r17
    7562:	0f 91       	pop	r16
    7564:	ff 90       	pop	r15
    7566:	ef 90       	pop	r14
    7568:	df 90       	pop	r13
    756a:	cf 90       	pop	r12
    756c:	bf 90       	pop	r11
    756e:	af 90       	pop	r10
    7570:	08 95       	ret
    7572:	81 50       	subi	r24, 0x01	; 1
    7574:	9e 41       	sbci	r25, 0x1E	; 30
    7576:	dd cf       	rjmp	.-70     	; 0x7532 <last_stage_GS+0x40>

00007578 <ntt_GS_bo_to_no_incl_invpsi_7681_256>:
    7578:	2f 92       	push	r2
    757a:	3f 92       	push	r3
    757c:	4f 92       	push	r4
    757e:	5f 92       	push	r5
    7580:	6f 92       	push	r6
    7582:	7f 92       	push	r7
    7584:	8f 92       	push	r8
    7586:	9f 92       	push	r9
    7588:	af 92       	push	r10
    758a:	bf 92       	push	r11
    758c:	cf 92       	push	r12
    758e:	df 92       	push	r13
    7590:	ef 92       	push	r14
    7592:	ff 92       	push	r15
    7594:	0f 93       	push	r16
    7596:	1f 93       	push	r17
    7598:	cf 93       	push	r28
    759a:	df 93       	push	r29
    759c:	cd b7       	in	r28, 0x3d	; 61
    759e:	de b7       	in	r29, 0x3e	; 62
    75a0:	2a 97       	sbiw	r28, 0x0a	; 10
    75a2:	cd bf       	out	0x3d, r28	; 61
    75a4:	de bf       	out	0x3e, r29	; 62
    75a6:	8c 01       	movw	r16, r24
    75a8:	6b 01       	movw	r12, r22
    75aa:	0e 94 43 3a 	call	0x7486	; 0x7486 <first_stage_GS>
    75ae:	26 e0       	ldi	r18, 0x06	; 6
    75b0:	30 e0       	ldi	r19, 0x00	; 0
    75b2:	2d 83       	std	Y+5, r18	; 0x05
    75b4:	3e 83       	std	Y+6, r19	; 0x06
    75b6:	80 e4       	ldi	r24, 0x40	; 64
    75b8:	90 e0       	ldi	r25, 0x00	; 0
    75ba:	89 83       	std	Y+1, r24	; 0x01
    75bc:	9a 83       	std	Y+2, r25	; 0x02
    75be:	72 e0       	ldi	r23, 0x02	; 2
    75c0:	a7 2e       	mov	r10, r23
    75c2:	b1 2c       	mov	r11, r1
    75c4:	45 01       	movw	r8, r10
    75c6:	aa 0c       	add	r10, r10
    75c8:	bb 1c       	adc	r11, r11
    75ca:	89 81       	ldd	r24, Y+1	; 0x01
    75cc:	9a 81       	ldd	r25, Y+2	; 0x02
    75ce:	88 0f       	add	r24, r24
    75d0:	99 1f       	adc	r25, r25
    75d2:	f6 01       	movw	r30, r12
    75d4:	e8 0f       	add	r30, r24
    75d6:	f9 1f       	adc	r31, r25
    75d8:	eb 83       	std	Y+3, r30	; 0x03
    75da:	fc 83       	std	Y+4, r31	; 0x04
    75dc:	71 2c       	mov	r7, r1
    75de:	61 2c       	mov	r6, r1
    75e0:	51 2c       	mov	r5, r1
    75e2:	41 2c       	mov	r4, r1
    75e4:	eb 81       	ldd	r30, Y+3	; 0x03
    75e6:	fc 81       	ldd	r31, Y+4	; 0x04
    75e8:	25 91       	lpm	r18, Z+
    75ea:	34 91       	lpm	r19, Z
    75ec:	2f 83       	std	Y+7, r18	; 0x07
    75ee:	38 87       	std	Y+8, r19	; 0x08
    75f0:	74 01       	movw	r14, r8
    75f2:	ee 0c       	add	r14, r14
    75f4:	ff 1c       	adc	r15, r15
    75f6:	e0 0e       	add	r14, r16
    75f8:	f1 1e       	adc	r15, r17
    75fa:	c3 01       	movw	r24, r6
    75fc:	88 0f       	add	r24, r24
    75fe:	99 1f       	adc	r25, r25
    7600:	80 0f       	add	r24, r16
    7602:	91 1f       	adc	r25, r17
    7604:	89 87       	std	Y+9, r24	; 0x09
    7606:	9a 87       	std	Y+10, r25	; 0x0a
    7608:	13 01       	movw	r2, r6
    760a:	28 14       	cp	r2, r8
    760c:	39 04       	cpc	r3, r9
    760e:	b8 f1       	brcs	.+110    	; 0x767e <ntt_GS_bo_to_no_incl_invpsi_7681_256+0x106>
    7610:	6a 0c       	add	r6, r10
    7612:	7b 1c       	adc	r7, r11
    7614:	3f ef       	ldi	r19, 0xFF	; 255
    7616:	43 1a       	sub	r4, r19
    7618:	53 0a       	sbc	r5, r19
    761a:	8b 81       	ldd	r24, Y+3	; 0x03
    761c:	9c 81       	ldd	r25, Y+4	; 0x04
    761e:	02 96       	adiw	r24, 0x02	; 2
    7620:	8b 83       	std	Y+3, r24	; 0x03
    7622:	9c 83       	std	Y+4, r25	; 0x04
    7624:	8a 0c       	add	r8, r10
    7626:	9b 1c       	adc	r9, r11
    7628:	e9 81       	ldd	r30, Y+1	; 0x01
    762a:	fa 81       	ldd	r31, Y+2	; 0x02
    762c:	4e 16       	cp	r4, r30
    762e:	5f 06       	cpc	r5, r31
    7630:	c9 f6       	brne	.-78     	; 0x75e4 <ntt_GS_bo_to_no_incl_invpsi_7681_256+0x6c>
    7632:	92 01       	movw	r18, r4
    7634:	36 95       	lsr	r19
    7636:	27 95       	ror	r18
    7638:	29 83       	std	Y+1, r18	; 0x01
    763a:	3a 83       	std	Y+2, r19	; 0x02
    763c:	8d 81       	ldd	r24, Y+5	; 0x05
    763e:	9e 81       	ldd	r25, Y+6	; 0x06
    7640:	01 97       	sbiw	r24, 0x01	; 1
    7642:	8d 83       	std	Y+5, r24	; 0x05
    7644:	9e 83       	std	Y+6, r25	; 0x06
    7646:	89 2b       	or	r24, r25
    7648:	09 f0       	breq	.+2      	; 0x764c <ntt_GS_bo_to_no_incl_invpsi_7681_256+0xd4>
    764a:	bc cf       	rjmp	.-136    	; 0x75c4 <ntt_GS_bo_to_no_incl_invpsi_7681_256+0x4c>
    764c:	b6 01       	movw	r22, r12
    764e:	c8 01       	movw	r24, r16
    7650:	2a 96       	adiw	r28, 0x0a	; 10
    7652:	cd bf       	out	0x3d, r28	; 61
    7654:	de bf       	out	0x3e, r29	; 62
    7656:	df 91       	pop	r29
    7658:	cf 91       	pop	r28
    765a:	1f 91       	pop	r17
    765c:	0f 91       	pop	r16
    765e:	ff 90       	pop	r15
    7660:	ef 90       	pop	r14
    7662:	df 90       	pop	r13
    7664:	cf 90       	pop	r12
    7666:	bf 90       	pop	r11
    7668:	af 90       	pop	r10
    766a:	9f 90       	pop	r9
    766c:	8f 90       	pop	r8
    766e:	7f 90       	pop	r7
    7670:	6f 90       	pop	r6
    7672:	5f 90       	pop	r5
    7674:	4f 90       	pop	r4
    7676:	3f 90       	pop	r3
    7678:	2f 90       	pop	r2
    767a:	0c 94 79 3a 	jmp	0x74f2	; 0x74f2 <last_stage_GS>
    767e:	e9 85       	ldd	r30, Y+9	; 0x09
    7680:	fa 85       	ldd	r31, Y+10	; 0x0a
    7682:	60 81       	ld	r22, Z
    7684:	71 81       	ldd	r23, Z+1	; 0x01
    7686:	f7 01       	movw	r30, r14
    7688:	80 81       	ld	r24, Z
    768a:	91 81       	ldd	r25, Z+1	; 0x01
    768c:	86 0f       	add	r24, r22
    768e:	97 1f       	adc	r25, r23
    7690:	81 30       	cpi	r24, 0x01	; 1
    7692:	fe e1       	ldi	r31, 0x1E	; 30
    7694:	9f 07       	cpc	r25, r31
    7696:	fc f4       	brge	.+62     	; 0x76d6 <ntt_GS_bo_to_no_incl_invpsi_7681_256+0x15e>
    7698:	e9 85       	ldd	r30, Y+9	; 0x09
    769a:	fa 85       	ldd	r31, Y+10	; 0x0a
    769c:	80 83       	st	Z, r24
    769e:	91 83       	std	Z+1, r25	; 0x01
    76a0:	f7 01       	movw	r30, r14
    76a2:	80 81       	ld	r24, Z
    76a4:	91 81       	ldd	r25, Z+1	; 0x01
    76a6:	68 1b       	sub	r22, r24
    76a8:	79 0b       	sbc	r23, r25
    76aa:	77 ff       	sbrs	r23, 7
    76ac:	02 c0       	rjmp	.+4      	; 0x76b2 <ntt_GS_bo_to_no_incl_invpsi_7681_256+0x13a>
    76ae:	6f 5f       	subi	r22, 0xFF	; 255
    76b0:	71 4e       	sbci	r23, 0xE1	; 225
    76b2:	8f 81       	ldd	r24, Y+7	; 0x07
    76b4:	98 85       	ldd	r25, Y+8	; 0x08
    76b6:	0e 94 90 2c 	call	0x5920	; 0x5920 <mm7681>
    76ba:	f7 01       	movw	r30, r14
    76bc:	81 93       	st	Z+, r24
    76be:	91 93       	st	Z+, r25
    76c0:	7f 01       	movw	r14, r30
    76c2:	ff ef       	ldi	r31, 0xFF	; 255
    76c4:	2f 1a       	sub	r2, r31
    76c6:	3f 0a       	sbc	r3, r31
    76c8:	29 85       	ldd	r18, Y+9	; 0x09
    76ca:	3a 85       	ldd	r19, Y+10	; 0x0a
    76cc:	2e 5f       	subi	r18, 0xFE	; 254
    76ce:	3f 4f       	sbci	r19, 0xFF	; 255
    76d0:	29 87       	std	Y+9, r18	; 0x09
    76d2:	3a 87       	std	Y+10, r19	; 0x0a
    76d4:	9a cf       	rjmp	.-204    	; 0x760a <ntt_GS_bo_to_no_incl_invpsi_7681_256+0x92>
    76d6:	81 50       	subi	r24, 0x01	; 1
    76d8:	9e 41       	sbci	r25, 0x1E	; 30
    76da:	de cf       	rjmp	.-68     	; 0x7698 <ntt_GS_bo_to_no_incl_invpsi_7681_256+0x120>

000076dc <print_counter>:
    76dc:	08 95       	ret

000076de <first_stage_CT>:
    76de:	cf 92       	push	r12
    76e0:	df 92       	push	r13
    76e2:	ef 92       	push	r14
    76e4:	ff 92       	push	r15
    76e6:	0f 93       	push	r16
    76e8:	1f 93       	push	r17
    76ea:	cf 93       	push	r28
    76ec:	df 93       	push	r29
    76ee:	ec 01       	movw	r28, r24
    76f0:	8c 01       	movw	r16, r24
    76f2:	13 95       	inc	r17
    76f4:	78 01       	movw	r14, r16
    76f6:	cc 24       	eor	r12, r12
    76f8:	c3 94       	inc	r12
    76fa:	2e e1       	ldi	r18, 0x1E	; 30
    76fc:	d2 2e       	mov	r13, r18
    76fe:	d8 01       	movw	r26, r16
    7700:	ed 91       	ld	r30, X+
    7702:	fd 91       	ld	r31, X+
    7704:	8d 01       	movw	r16, r26
    7706:	f7 ff       	sbrs	r31, 7
    7708:	49 c0       	rjmp	.+146    	; 0x779c <first_stage_CT+0xbe>
    770a:	66 27       	eor	r22, r22
    770c:	77 27       	eor	r23, r23
    770e:	6e 1b       	sub	r22, r30
    7710:	7f 0b       	sbc	r23, r31
    7712:	e1 3f       	cpi	r30, 0xF1	; 241
    7714:	ff 4f       	sbci	r31, 0xFF	; 255
    7716:	d4 f5       	brge	.+116    	; 0x778c <first_stage_CT+0xae>
    7718:	8a ec       	ldi	r24, 0xCA	; 202
    771a:	90 e1       	ldi	r25, 0x10	; 16
    771c:	0e 94 90 2c 	call	0x5920	; 0x5920 <mm7681>
    7720:	9c 01       	movw	r18, r24
    7722:	c6 01       	movw	r24, r12
    7724:	82 1b       	sub	r24, r18
    7726:	93 0b       	sbc	r25, r19
    7728:	9c 01       	movw	r18, r24
    772a:	88 81       	ld	r24, Y
    772c:	99 81       	ldd	r25, Y+1	; 0x01
    772e:	82 1b       	sub	r24, r18
    7730:	93 0b       	sbc	r25, r19
    7732:	f8 01       	movw	r30, r16
    7734:	32 97       	sbiw	r30, 0x02	; 2
    7736:	97 fd       	sbrc	r25, 7
    7738:	42 c0       	rjmp	.+132    	; 0x77be <first_stage_CT+0xe0>
    773a:	80 83       	st	Z, r24
    773c:	91 83       	std	Z+1, r25	; 0x01
    773e:	80 81       	ld	r24, Z
    7740:	91 81       	ldd	r25, Z+1	; 0x01
    7742:	97 ff       	sbrs	r25, 7
    7744:	04 c0       	rjmp	.+8      	; 0x774e <first_stage_CT+0x70>
    7746:	8f 5f       	subi	r24, 0xFF	; 255
    7748:	91 4e       	sbci	r25, 0xE1	; 225
    774a:	80 83       	st	Z, r24
    774c:	91 83       	std	Z+1, r25	; 0x01
    774e:	88 81       	ld	r24, Y
    7750:	99 81       	ldd	r25, Y+1	; 0x01
    7752:	28 0f       	add	r18, r24
    7754:	39 1f       	adc	r19, r25
    7756:	21 30       	cpi	r18, 0x01	; 1
    7758:	9e e1       	ldi	r25, 0x1E	; 30
    775a:	39 07       	cpc	r19, r25
    775c:	9c f5       	brge	.+102    	; 0x77c4 <first_stage_CT+0xe6>
    775e:	28 83       	st	Y, r18
    7760:	39 83       	std	Y+1, r19	; 0x01
    7762:	88 81       	ld	r24, Y
    7764:	99 81       	ldd	r25, Y+1	; 0x01
    7766:	97 ff       	sbrs	r25, 7
    7768:	04 c0       	rjmp	.+8      	; 0x7772 <first_stage_CT+0x94>
    776a:	8f 5f       	subi	r24, 0xFF	; 255
    776c:	91 4e       	sbci	r25, 0xE1	; 225
    776e:	88 83       	st	Y, r24
    7770:	99 83       	std	Y+1, r25	; 0x01
    7772:	22 96       	adiw	r28, 0x02	; 2
    7774:	ec 16       	cp	r14, r28
    7776:	fd 06       	cpc	r15, r29
    7778:	11 f6       	brne	.-124    	; 0x76fe <first_stage_CT+0x20>
    777a:	df 91       	pop	r29
    777c:	cf 91       	pop	r28
    777e:	1f 91       	pop	r17
    7780:	0f 91       	pop	r16
    7782:	ff 90       	pop	r15
    7784:	ef 90       	pop	r14
    7786:	df 90       	pop	r13
    7788:	cf 90       	pop	r12
    778a:	08 95       	ret
    778c:	fb 01       	movw	r30, r22
    778e:	ee 0f       	add	r30, r30
    7790:	ff 1f       	adc	r31, r31
    7792:	e0 52       	subi	r30, 0x20	; 32
    7794:	f8 4f       	sbci	r31, 0xF8	; 248
    7796:	25 91       	lpm	r18, Z+
    7798:	34 91       	lpm	r19, Z
    779a:	c3 cf       	rjmp	.-122    	; 0x7722 <first_stage_CT+0x44>
    779c:	e0 31       	cpi	r30, 0x10	; 16
    779e:	f1 05       	cpc	r31, r1
    77a0:	3c f0       	brlt	.+14     	; 0x77b0 <first_stage_CT+0xd2>
    77a2:	bf 01       	movw	r22, r30
    77a4:	8a ec       	ldi	r24, 0xCA	; 202
    77a6:	90 e1       	ldi	r25, 0x10	; 16
    77a8:	0e 94 90 2c 	call	0x5920	; 0x5920 <mm7681>
    77ac:	9c 01       	movw	r18, r24
    77ae:	bd cf       	rjmp	.-134    	; 0x772a <first_stage_CT+0x4c>
    77b0:	ee 0f       	add	r30, r30
    77b2:	ff 1f       	adc	r31, r31
    77b4:	e0 52       	subi	r30, 0x20	; 32
    77b6:	f8 4f       	sbci	r31, 0xF8	; 248
    77b8:	25 91       	lpm	r18, Z+
    77ba:	34 91       	lpm	r19, Z
    77bc:	b6 cf       	rjmp	.-148    	; 0x772a <first_stage_CT+0x4c>
    77be:	8f 5f       	subi	r24, 0xFF	; 255
    77c0:	91 4e       	sbci	r25, 0xE1	; 225
    77c2:	bb cf       	rjmp	.-138    	; 0x773a <first_stage_CT+0x5c>
    77c4:	21 50       	subi	r18, 0x01	; 1
    77c6:	3e 41       	sbci	r19, 0x1E	; 30
    77c8:	ca cf       	rjmp	.-108    	; 0x775e <first_stage_CT+0x80>

000077ca <last_stage_CT>:
    77ca:	ef 92       	push	r14
    77cc:	ff 92       	push	r15
    77ce:	0f 93       	push	r16
    77d0:	1f 93       	push	r17
    77d2:	cf 93       	push	r28
    77d4:	df 93       	push	r29
    77d6:	8b 01       	movw	r16, r22
    77d8:	13 95       	inc	r17
    77da:	ec 01       	movw	r28, r24
    77dc:	7c 01       	movw	r14, r24
    77de:	2e ef       	ldi	r18, 0xFE	; 254
    77e0:	f2 1a       	sub	r15, r18
    77e2:	f8 01       	movw	r30, r16
    77e4:	85 91       	lpm	r24, Z+
    77e6:	94 91       	lpm	r25, Z
    77e8:	6a 81       	ldd	r22, Y+2	; 0x02
    77ea:	7b 81       	ldd	r23, Y+3	; 0x03
    77ec:	0e 94 90 2c 	call	0x5920	; 0x5920 <mm7681>
    77f0:	ac 01       	movw	r20, r24
    77f2:	88 81       	ld	r24, Y
    77f4:	99 81       	ldd	r25, Y+1	; 0x01
    77f6:	9c 01       	movw	r18, r24
    77f8:	24 1b       	sub	r18, r20
    77fa:	35 0b       	sbc	r19, r21
    77fc:	37 fd       	sbrc	r19, 7
    77fe:	17 c0       	rjmp	.+46     	; 0x782e <last_stage_CT+0x64>
    7800:	2a 83       	std	Y+2, r18	; 0x02
    7802:	3b 83       	std	Y+3, r19	; 0x03
    7804:	84 0f       	add	r24, r20
    7806:	95 1f       	adc	r25, r21
    7808:	81 30       	cpi	r24, 0x01	; 1
    780a:	2e e1       	ldi	r18, 0x1E	; 30
    780c:	92 07       	cpc	r25, r18
    780e:	94 f4       	brge	.+36     	; 0x7834 <last_stage_CT+0x6a>
    7810:	88 83       	st	Y, r24
    7812:	99 83       	std	Y+1, r25	; 0x01
    7814:	0e 5f       	subi	r16, 0xFE	; 254
    7816:	1f 4f       	sbci	r17, 0xFF	; 255
    7818:	24 96       	adiw	r28, 0x04	; 4
    781a:	ec 16       	cp	r14, r28
    781c:	fd 06       	cpc	r15, r29
    781e:	09 f7       	brne	.-62     	; 0x77e2 <last_stage_CT+0x18>
    7820:	df 91       	pop	r29
    7822:	cf 91       	pop	r28
    7824:	1f 91       	pop	r17
    7826:	0f 91       	pop	r16
    7828:	ff 90       	pop	r15
    782a:	ef 90       	pop	r14
    782c:	08 95       	ret
    782e:	2f 5f       	subi	r18, 0xFF	; 255
    7830:	31 4e       	sbci	r19, 0xE1	; 225
    7832:	e6 cf       	rjmp	.-52     	; 0x7800 <last_stage_CT+0x36>
    7834:	81 50       	subi	r24, 0x01	; 1
    7836:	9e 41       	sbci	r25, 0x1E	; 30
    7838:	eb cf       	rjmp	.-42     	; 0x7810 <last_stage_CT+0x46>

0000783a <ntt_CT_no_to_bo_incl_psi_7681_256_nolookup>:
    783a:	2f 92       	push	r2
    783c:	3f 92       	push	r3
    783e:	4f 92       	push	r4
    7840:	5f 92       	push	r5
    7842:	6f 92       	push	r6
    7844:	7f 92       	push	r7
    7846:	8f 92       	push	r8
    7848:	9f 92       	push	r9
    784a:	af 92       	push	r10
    784c:	bf 92       	push	r11
    784e:	cf 92       	push	r12
    7850:	df 92       	push	r13
    7852:	ef 92       	push	r14
    7854:	ff 92       	push	r15
    7856:	0f 93       	push	r16
    7858:	1f 93       	push	r17
    785a:	cf 93       	push	r28
    785c:	df 93       	push	r29
    785e:	cd b7       	in	r28, 0x3d	; 61
    7860:	de b7       	in	r29, 0x3e	; 62
    7862:	60 97       	sbiw	r28, 0x10	; 16
    7864:	cd bf       	out	0x3d, r28	; 61
    7866:	de bf       	out	0x3e, r29	; 62
    7868:	89 87       	std	Y+9, r24	; 0x09
    786a:	9a 87       	std	Y+10, r25	; 0x0a
    786c:	69 83       	std	Y+1, r22	; 0x01
    786e:	7a 83       	std	Y+2, r23	; 0x02
    7870:	87 e0       	ldi	r24, 0x07	; 7
    7872:	90 e0       	ldi	r25, 0x00	; 0
    7874:	8b 83       	std	Y+3, r24	; 0x03
    7876:	9c 83       	std	Y+4, r25	; 0x04
    7878:	88 24       	eor	r8, r8
    787a:	83 94       	inc	r8
    787c:	91 2c       	mov	r9, r1
    787e:	40 e8       	ldi	r20, 0x80	; 128
    7880:	c4 2e       	mov	r12, r20
    7882:	d1 2c       	mov	r13, r1
    7884:	8b 86       	std	Y+11, r8	; 0x0b
    7886:	9c 86       	std	Y+12, r9	; 0x0c
    7888:	88 0c       	add	r8, r8
    788a:	99 1c       	adc	r9, r9
    788c:	e9 81       	ldd	r30, Y+1	; 0x01
    788e:	fa 81       	ldd	r31, Y+2	; 0x02
    7890:	e8 0d       	add	r30, r8
    7892:	f9 1d       	adc	r31, r9
    7894:	ed 83       	std	Y+5, r30	; 0x05
    7896:	fe 83       	std	Y+6, r31	; 0x06
    7898:	56 01       	movw	r10, r12
    789a:	aa 0c       	add	r10, r10
    789c:	bb 1c       	adc	r11, r11
    789e:	f9 85       	ldd	r31, Y+9	; 0x09
    78a0:	ff 87       	std	Y+15, r31	; 0x0f
    78a2:	8a 85       	ldd	r24, Y+10	; 0x0a
    78a4:	88 8b       	std	Y+16, r24	; 0x10
    78a6:	26 01       	movw	r4, r12
    78a8:	91 e0       	ldi	r25, 0x01	; 1
    78aa:	49 1a       	sub	r4, r25
    78ac:	51 08       	sbc	r5, r1
    78ae:	f1 2c       	mov	r15, r1
    78b0:	e1 2c       	mov	r14, r1
    78b2:	31 2c       	mov	r3, r1
    78b4:	21 2c       	mov	r2, r1
    78b6:	ed 81       	ldd	r30, Y+5	; 0x05
    78b8:	fe 81       	ldd	r31, Y+6	; 0x06
    78ba:	85 91       	lpm	r24, Z+
    78bc:	94 91       	lpm	r25, Z
    78be:	8d 87       	std	Y+13, r24	; 0x0d
    78c0:	9e 87       	std	Y+14, r25	; 0x0e
    78c2:	ef 85       	ldd	r30, Y+15	; 0x0f
    78c4:	f8 89       	ldd	r31, Y+16	; 0x10
    78c6:	ea 0d       	add	r30, r10
    78c8:	fb 1d       	adc	r31, r11
    78ca:	ef 83       	std	Y+7, r30	; 0x07
    78cc:	f8 87       	std	Y+8, r31	; 0x08
    78ce:	8f 01       	movw	r16, r30
    78d0:	37 01       	movw	r6, r14
    78d2:	46 14       	cp	r4, r6
    78d4:	57 04       	cpc	r5, r7
    78d6:	e0 f5       	brcc	.+120    	; 0x7950 <ntt_CT_no_to_bo_incl_psi_7681_256_nolookup+0x116>
    78d8:	9f ef       	ldi	r25, 0xFF	; 255
    78da:	29 1a       	sub	r2, r25
    78dc:	39 0a       	sbc	r3, r25
    78de:	ed 81       	ldd	r30, Y+5	; 0x05
    78e0:	fe 81       	ldd	r31, Y+6	; 0x06
    78e2:	32 96       	adiw	r30, 0x02	; 2
    78e4:	ed 83       	std	Y+5, r30	; 0x05
    78e6:	fe 83       	std	Y+6, r31	; 0x06
    78e8:	ea 0c       	add	r14, r10
    78ea:	fb 1c       	adc	r15, r11
    78ec:	8f 81       	ldd	r24, Y+7	; 0x07
    78ee:	98 85       	ldd	r25, Y+8	; 0x08
    78f0:	8a 0d       	add	r24, r10
    78f2:	9b 1d       	adc	r25, r11
    78f4:	8f 87       	std	Y+15, r24	; 0x0f
    78f6:	98 8b       	std	Y+16, r25	; 0x10
    78f8:	4a 0c       	add	r4, r10
    78fa:	5b 1c       	adc	r5, r11
    78fc:	eb 85       	ldd	r30, Y+11	; 0x0b
    78fe:	fc 85       	ldd	r31, Y+12	; 0x0c
    7900:	2e 16       	cp	r2, r30
    7902:	3f 06       	cpc	r3, r31
    7904:	c1 f6       	brne	.-80     	; 0x78b6 <ntt_CT_no_to_bo_incl_psi_7681_256_nolookup+0x7c>
    7906:	d6 94       	lsr	r13
    7908:	c7 94       	ror	r12
    790a:	8b 81       	ldd	r24, Y+3	; 0x03
    790c:	9c 81       	ldd	r25, Y+4	; 0x04
    790e:	01 97       	sbiw	r24, 0x01	; 1
    7910:	8b 83       	std	Y+3, r24	; 0x03
    7912:	9c 83       	std	Y+4, r25	; 0x04
    7914:	89 2b       	or	r24, r25
    7916:	09 f0       	breq	.+2      	; 0x791a <ntt_CT_no_to_bo_incl_psi_7681_256_nolookup+0xe0>
    7918:	b5 cf       	rjmp	.-150    	; 0x7884 <ntt_CT_no_to_bo_incl_psi_7681_256_nolookup+0x4a>
    791a:	69 81       	ldd	r22, Y+1	; 0x01
    791c:	7a 81       	ldd	r23, Y+2	; 0x02
    791e:	89 85       	ldd	r24, Y+9	; 0x09
    7920:	9a 85       	ldd	r25, Y+10	; 0x0a
    7922:	60 96       	adiw	r28, 0x10	; 16
    7924:	cd bf       	out	0x3d, r28	; 61
    7926:	de bf       	out	0x3e, r29	; 62
    7928:	df 91       	pop	r29
    792a:	cf 91       	pop	r28
    792c:	1f 91       	pop	r17
    792e:	0f 91       	pop	r16
    7930:	ff 90       	pop	r15
    7932:	ef 90       	pop	r14
    7934:	df 90       	pop	r13
    7936:	cf 90       	pop	r12
    7938:	bf 90       	pop	r11
    793a:	af 90       	pop	r10
    793c:	9f 90       	pop	r9
    793e:	8f 90       	pop	r8
    7940:	7f 90       	pop	r7
    7942:	6f 90       	pop	r6
    7944:	5f 90       	pop	r5
    7946:	4f 90       	pop	r4
    7948:	3f 90       	pop	r3
    794a:	2f 90       	pop	r2
    794c:	0c 94 e5 3b 	jmp	0x77ca	; 0x77ca <last_stage_CT>
    7950:	f8 01       	movw	r30, r16
    7952:	60 81       	ld	r22, Z
    7954:	71 81       	ldd	r23, Z+1	; 0x01
    7956:	8d 85       	ldd	r24, Y+13	; 0x0d
    7958:	9e 85       	ldd	r25, Y+14	; 0x0e
    795a:	0e 94 8e 2c 	call	0x591c	; 0x591c <mm7681_check>
    795e:	9c 01       	movw	r18, r24
    7960:	ef 85       	ldd	r30, Y+15	; 0x0f
    7962:	f8 89       	ldd	r31, Y+16	; 0x10
    7964:	80 81       	ld	r24, Z
    7966:	91 81       	ldd	r25, Z+1	; 0x01
    7968:	82 1b       	sub	r24, r18
    796a:	93 0b       	sbc	r25, r19
    796c:	97 fd       	sbrc	r25, 7
    796e:	1c c0       	rjmp	.+56     	; 0x79a8 <ntt_CT_no_to_bo_incl_psi_7681_256_nolookup+0x16e>
    7970:	f8 01       	movw	r30, r16
    7972:	80 83       	st	Z, r24
    7974:	91 83       	std	Z+1, r25	; 0x01
    7976:	ef 85       	ldd	r30, Y+15	; 0x0f
    7978:	f8 89       	ldd	r31, Y+16	; 0x10
    797a:	80 81       	ld	r24, Z
    797c:	91 81       	ldd	r25, Z+1	; 0x01
    797e:	28 0f       	add	r18, r24
    7980:	39 1f       	adc	r19, r25
    7982:	21 30       	cpi	r18, 0x01	; 1
    7984:	fe e1       	ldi	r31, 0x1E	; 30
    7986:	3f 07       	cpc	r19, r31
    7988:	94 f4       	brge	.+36     	; 0x79ae <ntt_CT_no_to_bo_incl_psi_7681_256_nolookup+0x174>
    798a:	ef 85       	ldd	r30, Y+15	; 0x0f
    798c:	f8 89       	ldd	r31, Y+16	; 0x10
    798e:	20 83       	st	Z, r18
    7990:	31 83       	std	Z+1, r19	; 0x01
    7992:	ff ef       	ldi	r31, 0xFF	; 255
    7994:	6f 1a       	sub	r6, r31
    7996:	7f 0a       	sbc	r7, r31
    7998:	8f 85       	ldd	r24, Y+15	; 0x0f
    799a:	98 89       	ldd	r25, Y+16	; 0x10
    799c:	02 96       	adiw	r24, 0x02	; 2
    799e:	8f 87       	std	Y+15, r24	; 0x0f
    79a0:	98 8b       	std	Y+16, r25	; 0x10
    79a2:	0e 5f       	subi	r16, 0xFE	; 254
    79a4:	1f 4f       	sbci	r17, 0xFF	; 255
    79a6:	95 cf       	rjmp	.-214    	; 0x78d2 <ntt_CT_no_to_bo_incl_psi_7681_256_nolookup+0x98>
    79a8:	8f 5f       	subi	r24, 0xFF	; 255
    79aa:	91 4e       	sbci	r25, 0xE1	; 225
    79ac:	e1 cf       	rjmp	.-62     	; 0x7970 <ntt_CT_no_to_bo_incl_psi_7681_256_nolookup+0x136>
    79ae:	21 50       	subi	r18, 0x01	; 1
    79b0:	3e 41       	sbci	r19, 0x1E	; 30
    79b2:	eb cf       	rjmp	.-42     	; 0x798a <ntt_CT_no_to_bo_incl_psi_7681_256_nolookup+0x150>

000079b4 <ntt_CT_no_to_bo_incl_psi_7681_256>:
    79b4:	2f 92       	push	r2
    79b6:	3f 92       	push	r3
    79b8:	4f 92       	push	r4
    79ba:	5f 92       	push	r5
    79bc:	6f 92       	push	r6
    79be:	7f 92       	push	r7
    79c0:	8f 92       	push	r8
    79c2:	9f 92       	push	r9
    79c4:	af 92       	push	r10
    79c6:	bf 92       	push	r11
    79c8:	cf 92       	push	r12
    79ca:	df 92       	push	r13
    79cc:	ef 92       	push	r14
    79ce:	ff 92       	push	r15
    79d0:	0f 93       	push	r16
    79d2:	1f 93       	push	r17
    79d4:	cf 93       	push	r28
    79d6:	df 93       	push	r29
    79d8:	cd b7       	in	r28, 0x3d	; 61
    79da:	de b7       	in	r29, 0x3e	; 62
    79dc:	60 97       	sbiw	r28, 0x10	; 16
    79de:	cd bf       	out	0x3d, r28	; 61
    79e0:	de bf       	out	0x3e, r29	; 62
    79e2:	1c 01       	movw	r2, r24
    79e4:	69 83       	std	Y+1, r22	; 0x01
    79e6:	7a 83       	std	Y+2, r23	; 0x02
    79e8:	0e 94 6f 3b 	call	0x76de	; 0x76de <first_stage_CT>
    79ec:	86 e0       	ldi	r24, 0x06	; 6
    79ee:	90 e0       	ldi	r25, 0x00	; 0
    79f0:	8b 83       	std	Y+3, r24	; 0x03
    79f2:	9c 83       	std	Y+4, r25	; 0x04
    79f4:	32 e0       	ldi	r19, 0x02	; 2
    79f6:	83 2e       	mov	r8, r19
    79f8:	91 2c       	mov	r9, r1
    79fa:	40 e4       	ldi	r20, 0x40	; 64
    79fc:	c4 2e       	mov	r12, r20
    79fe:	d1 2c       	mov	r13, r1
    7a00:	8b 86       	std	Y+11, r8	; 0x0b
    7a02:	9c 86       	std	Y+12, r9	; 0x0c
    7a04:	88 0c       	add	r8, r8
    7a06:	99 1c       	adc	r9, r9
    7a08:	e9 81       	ldd	r30, Y+1	; 0x01
    7a0a:	fa 81       	ldd	r31, Y+2	; 0x02
    7a0c:	e8 0d       	add	r30, r8
    7a0e:	f9 1d       	adc	r31, r9
    7a10:	ed 83       	std	Y+5, r30	; 0x05
    7a12:	fe 83       	std	Y+6, r31	; 0x06
    7a14:	56 01       	movw	r10, r12
    7a16:	aa 0c       	add	r10, r10
    7a18:	bb 1c       	adc	r11, r11
    7a1a:	2f 86       	std	Y+15, r2	; 0x0f
    7a1c:	38 8a       	std	Y+16, r3	; 0x10
    7a1e:	c6 01       	movw	r24, r12
    7a20:	01 97       	sbiw	r24, 0x01	; 1
    7a22:	8f 83       	std	Y+7, r24	; 0x07
    7a24:	98 87       	std	Y+8, r25	; 0x08
    7a26:	51 2c       	mov	r5, r1
    7a28:	41 2c       	mov	r4, r1
    7a2a:	f1 2c       	mov	r15, r1
    7a2c:	e1 2c       	mov	r14, r1
    7a2e:	ed 81       	ldd	r30, Y+5	; 0x05
    7a30:	fe 81       	ldd	r31, Y+6	; 0x06
    7a32:	85 91       	lpm	r24, Z+
    7a34:	94 91       	lpm	r25, Z
    7a36:	8d 87       	std	Y+13, r24	; 0x0d
    7a38:	9e 87       	std	Y+14, r25	; 0x0e
    7a3a:	ef 85       	ldd	r30, Y+15	; 0x0f
    7a3c:	f8 89       	ldd	r31, Y+16	; 0x10
    7a3e:	ea 0d       	add	r30, r10
    7a40:	fb 1d       	adc	r31, r11
    7a42:	e9 87       	std	Y+9, r30	; 0x09
    7a44:	fa 87       	std	Y+10, r31	; 0x0a
    7a46:	8f 01       	movw	r16, r30
    7a48:	32 01       	movw	r6, r4
    7a4a:	ef 81       	ldd	r30, Y+7	; 0x07
    7a4c:	f8 85       	ldd	r31, Y+8	; 0x08
    7a4e:	e6 15       	cp	r30, r6
    7a50:	f7 05       	cpc	r31, r7
    7a52:	08 f0       	brcs	.+2      	; 0x7a56 <ntt_CT_no_to_bo_incl_psi_7681_256+0xa2>
    7a54:	3f c0       	rjmp	.+126    	; 0x7ad4 <ntt_CT_no_to_bo_incl_psi_7681_256+0x120>
    7a56:	ff ef       	ldi	r31, 0xFF	; 255
    7a58:	ef 1a       	sub	r14, r31
    7a5a:	ff 0a       	sbc	r15, r31
    7a5c:	8d 81       	ldd	r24, Y+5	; 0x05
    7a5e:	9e 81       	ldd	r25, Y+6	; 0x06
    7a60:	02 96       	adiw	r24, 0x02	; 2
    7a62:	8d 83       	std	Y+5, r24	; 0x05
    7a64:	9e 83       	std	Y+6, r25	; 0x06
    7a66:	4a 0c       	add	r4, r10
    7a68:	5b 1c       	adc	r5, r11
    7a6a:	e9 85       	ldd	r30, Y+9	; 0x09
    7a6c:	fa 85       	ldd	r31, Y+10	; 0x0a
    7a6e:	ea 0d       	add	r30, r10
    7a70:	fb 1d       	adc	r31, r11
    7a72:	ef 87       	std	Y+15, r30	; 0x0f
    7a74:	f8 8b       	std	Y+16, r31	; 0x10
    7a76:	8f 81       	ldd	r24, Y+7	; 0x07
    7a78:	98 85       	ldd	r25, Y+8	; 0x08
    7a7a:	8a 0d       	add	r24, r10
    7a7c:	9b 1d       	adc	r25, r11
    7a7e:	8f 83       	std	Y+7, r24	; 0x07
    7a80:	98 87       	std	Y+8, r25	; 0x08
    7a82:	eb 85       	ldd	r30, Y+11	; 0x0b
    7a84:	fc 85       	ldd	r31, Y+12	; 0x0c
    7a86:	ee 16       	cp	r14, r30
    7a88:	ff 06       	cpc	r15, r31
    7a8a:	89 f6       	brne	.-94     	; 0x7a2e <ntt_CT_no_to_bo_incl_psi_7681_256+0x7a>
    7a8c:	d6 94       	lsr	r13
    7a8e:	c7 94       	ror	r12
    7a90:	8b 81       	ldd	r24, Y+3	; 0x03
    7a92:	9c 81       	ldd	r25, Y+4	; 0x04
    7a94:	01 97       	sbiw	r24, 0x01	; 1
    7a96:	8b 83       	std	Y+3, r24	; 0x03
    7a98:	9c 83       	std	Y+4, r25	; 0x04
    7a9a:	89 2b       	or	r24, r25
    7a9c:	09 f0       	breq	.+2      	; 0x7aa0 <ntt_CT_no_to_bo_incl_psi_7681_256+0xec>
    7a9e:	b0 cf       	rjmp	.-160    	; 0x7a00 <ntt_CT_no_to_bo_incl_psi_7681_256+0x4c>
    7aa0:	69 81       	ldd	r22, Y+1	; 0x01
    7aa2:	7a 81       	ldd	r23, Y+2	; 0x02
    7aa4:	c1 01       	movw	r24, r2
    7aa6:	60 96       	adiw	r28, 0x10	; 16
    7aa8:	cd bf       	out	0x3d, r28	; 61
    7aaa:	de bf       	out	0x3e, r29	; 62
    7aac:	df 91       	pop	r29
    7aae:	cf 91       	pop	r28
    7ab0:	1f 91       	pop	r17
    7ab2:	0f 91       	pop	r16
    7ab4:	ff 90       	pop	r15
    7ab6:	ef 90       	pop	r14
    7ab8:	df 90       	pop	r13
    7aba:	cf 90       	pop	r12
    7abc:	bf 90       	pop	r11
    7abe:	af 90       	pop	r10
    7ac0:	9f 90       	pop	r9
    7ac2:	8f 90       	pop	r8
    7ac4:	7f 90       	pop	r7
    7ac6:	6f 90       	pop	r6
    7ac8:	5f 90       	pop	r5
    7aca:	4f 90       	pop	r4
    7acc:	3f 90       	pop	r3
    7ace:	2f 90       	pop	r2
    7ad0:	0c 94 e5 3b 	jmp	0x77ca	; 0x77ca <last_stage_CT>
    7ad4:	f8 01       	movw	r30, r16
    7ad6:	60 81       	ld	r22, Z
    7ad8:	71 81       	ldd	r23, Z+1	; 0x01
    7ada:	8d 85       	ldd	r24, Y+13	; 0x0d
    7adc:	9e 85       	ldd	r25, Y+14	; 0x0e
    7ade:	0e 94 8e 2c 	call	0x591c	; 0x591c <mm7681_check>
    7ae2:	9c 01       	movw	r18, r24
    7ae4:	ef 85       	ldd	r30, Y+15	; 0x0f
    7ae6:	f8 89       	ldd	r31, Y+16	; 0x10
    7ae8:	80 81       	ld	r24, Z
    7aea:	91 81       	ldd	r25, Z+1	; 0x01
    7aec:	82 1b       	sub	r24, r18
    7aee:	93 0b       	sbc	r25, r19
    7af0:	97 fd       	sbrc	r25, 7
    7af2:	1c c0       	rjmp	.+56     	; 0x7b2c <ntt_CT_no_to_bo_incl_psi_7681_256+0x178>
    7af4:	f8 01       	movw	r30, r16
    7af6:	80 83       	st	Z, r24
    7af8:	91 83       	std	Z+1, r25	; 0x01
    7afa:	ef 85       	ldd	r30, Y+15	; 0x0f
    7afc:	f8 89       	ldd	r31, Y+16	; 0x10
    7afe:	80 81       	ld	r24, Z
    7b00:	91 81       	ldd	r25, Z+1	; 0x01
    7b02:	28 0f       	add	r18, r24
    7b04:	39 1f       	adc	r19, r25
    7b06:	21 30       	cpi	r18, 0x01	; 1
    7b08:	fe e1       	ldi	r31, 0x1E	; 30
    7b0a:	3f 07       	cpc	r19, r31
    7b0c:	94 f4       	brge	.+36     	; 0x7b32 <ntt_CT_no_to_bo_incl_psi_7681_256+0x17e>
    7b0e:	ef 85       	ldd	r30, Y+15	; 0x0f
    7b10:	f8 89       	ldd	r31, Y+16	; 0x10
    7b12:	20 83       	st	Z, r18
    7b14:	31 83       	std	Z+1, r19	; 0x01
    7b16:	ff ef       	ldi	r31, 0xFF	; 255
    7b18:	6f 1a       	sub	r6, r31
    7b1a:	7f 0a       	sbc	r7, r31
    7b1c:	8f 85       	ldd	r24, Y+15	; 0x0f
    7b1e:	98 89       	ldd	r25, Y+16	; 0x10
    7b20:	02 96       	adiw	r24, 0x02	; 2
    7b22:	8f 87       	std	Y+15, r24	; 0x0f
    7b24:	98 8b       	std	Y+16, r25	; 0x10
    7b26:	0e 5f       	subi	r16, 0xFE	; 254
    7b28:	1f 4f       	sbci	r17, 0xFF	; 255
    7b2a:	8f cf       	rjmp	.-226    	; 0x7a4a <ntt_CT_no_to_bo_incl_psi_7681_256+0x96>
    7b2c:	8f 5f       	subi	r24, 0xFF	; 255
    7b2e:	91 4e       	sbci	r25, 0xE1	; 225
    7b30:	e1 cf       	rjmp	.-62     	; 0x7af4 <ntt_CT_no_to_bo_incl_psi_7681_256+0x140>
    7b32:	21 50       	subi	r18, 0x01	; 1
    7b34:	3e 41       	sbci	r19, 0x1E	; 30
    7b36:	eb cf       	rjmp	.-42     	; 0x7b0e <ntt_CT_no_to_bo_incl_psi_7681_256+0x15a>

00007b38 <pw_psi_7681>:
    7b38:	cf 92       	push	r12
    7b3a:	df 92       	push	r13
    7b3c:	ef 92       	push	r14
    7b3e:	ff 92       	push	r15
    7b40:	0f 93       	push	r16
    7b42:	1f 93       	push	r17
    7b44:	cf 93       	push	r28
    7b46:	df 93       	push	r29
    7b48:	8b 01       	movw	r16, r22
    7b4a:	7a 01       	movw	r14, r20
    7b4c:	ec 01       	movw	r28, r24
    7b4e:	6c 01       	movw	r12, r24
    7b50:	8e ef       	ldi	r24, 0xFE	; 254
    7b52:	d8 1a       	sub	r13, r24
    7b54:	b8 01       	movw	r22, r16
    7b56:	89 91       	ld	r24, Y+
    7b58:	99 91       	ld	r25, Y+
    7b5a:	0e 94 90 2c 	call	0x5920	; 0x5920 <mm7681>
    7b5e:	fe 01       	movw	r30, r28
    7b60:	32 97       	sbiw	r30, 0x02	; 2
    7b62:	80 83       	st	Z, r24
    7b64:	91 83       	std	Z+1, r25	; 0x01
    7b66:	b7 01       	movw	r22, r14
    7b68:	c8 01       	movw	r24, r16
    7b6a:	0e 94 90 2c 	call	0x5920	; 0x5920 <mm7681>
    7b6e:	8c 01       	movw	r16, r24
    7b70:	cc 15       	cp	r28, r12
    7b72:	dd 05       	cpc	r29, r13
    7b74:	79 f7       	brne	.-34     	; 0x7b54 <pw_psi_7681+0x1c>
    7b76:	df 91       	pop	r29
    7b78:	cf 91       	pop	r28
    7b7a:	1f 91       	pop	r17
    7b7c:	0f 91       	pop	r16
    7b7e:	ff 90       	pop	r15
    7b80:	ef 90       	pop	r14
    7b82:	df 90       	pop	r13
    7b84:	cf 90       	pop	r12
    7b86:	08 95       	ret

00007b88 <pw_mul_flash_7681_256>:
    7b88:	ef 92       	push	r14
    7b8a:	ff 92       	push	r15
    7b8c:	0f 93       	push	r16
    7b8e:	1f 93       	push	r17
    7b90:	cf 93       	push	r28
    7b92:	df 93       	push	r29
    7b94:	8b 01       	movw	r16, r22
    7b96:	ec 01       	movw	r28, r24
    7b98:	7c 01       	movw	r14, r24
    7b9a:	8e ef       	ldi	r24, 0xFE	; 254
    7b9c:	f8 1a       	sub	r15, r24
    7b9e:	f8 01       	movw	r30, r16
    7ba0:	85 91       	lpm	r24, Z+
    7ba2:	94 91       	lpm	r25, Z
    7ba4:	69 91       	ld	r22, Y+
    7ba6:	79 91       	ld	r23, Y+
    7ba8:	0e 94 90 2c 	call	0x5920	; 0x5920 <mm7681>
    7bac:	fe 01       	movw	r30, r28
    7bae:	32 97       	sbiw	r30, 0x02	; 2
    7bb0:	80 83       	st	Z, r24
    7bb2:	91 83       	std	Z+1, r25	; 0x01
    7bb4:	0e 5f       	subi	r16, 0xFE	; 254
    7bb6:	1f 4f       	sbci	r17, 0xFF	; 255
    7bb8:	ce 15       	cp	r28, r14
    7bba:	df 05       	cpc	r29, r15
    7bbc:	81 f7       	brne	.-32     	; 0x7b9e <pw_mul_flash_7681_256+0x16>
    7bbe:	df 91       	pop	r29
    7bc0:	cf 91       	pop	r28
    7bc2:	1f 91       	pop	r17
    7bc4:	0f 91       	pop	r16
    7bc6:	ff 90       	pop	r15
    7bc8:	ef 90       	pop	r14
    7bca:	08 95       	ret

00007bcc <add_7681>:
    7bcc:	cf 92       	push	r12
    7bce:	df 92       	push	r13
    7bd0:	ef 92       	push	r14
    7bd2:	ff 92       	push	r15
    7bd4:	0f 93       	push	r16
    7bd6:	1f 93       	push	r17
    7bd8:	cf 93       	push	r28
    7bda:	df 93       	push	r29
    7bdc:	ec 01       	movw	r28, r24
    7bde:	7b 01       	movw	r14, r22
    7be0:	8a 01       	movw	r16, r20
    7be2:	6c 01       	movw	r12, r24
    7be4:	8e ef       	ldi	r24, 0xFE	; 254
    7be6:	d8 1a       	sub	r13, r24
    7be8:	89 91       	ld	r24, Y+
    7bea:	99 91       	ld	r25, Y+
    7bec:	f7 01       	movw	r30, r14
    7bee:	21 91       	ld	r18, Z+
    7bf0:	31 91       	ld	r19, Z+
    7bf2:	7f 01       	movw	r14, r30
    7bf4:	82 0f       	add	r24, r18
    7bf6:	93 1f       	adc	r25, r19
    7bf8:	f8 01       	movw	r30, r16
    7bfa:	81 93       	st	Z+, r24
    7bfc:	91 93       	st	Z+, r25
    7bfe:	8f 01       	movw	r16, r30
    7c00:	0e 94 82 2c 	call	0x5904	; 0x5904 <mod7681>
    7c04:	f8 01       	movw	r30, r16
    7c06:	32 97       	sbiw	r30, 0x02	; 2
    7c08:	80 83       	st	Z, r24
    7c0a:	91 83       	std	Z+1, r25	; 0x01
    7c0c:	cc 15       	cp	r28, r12
    7c0e:	dd 05       	cpc	r29, r13
    7c10:	59 f7       	brne	.-42     	; 0x7be8 <add_7681+0x1c>
    7c12:	df 91       	pop	r29
    7c14:	cf 91       	pop	r28
    7c16:	1f 91       	pop	r17
    7c18:	0f 91       	pop	r16
    7c1a:	ff 90       	pop	r15
    7c1c:	ef 90       	pop	r14
    7c1e:	df 90       	pop	r13
    7c20:	cf 90       	pop	r12
    7c22:	08 95       	ret

00007c24 <enc_7681_256_core>:
    7c24:	6f 92       	push	r6
    7c26:	7f 92       	push	r7
    7c28:	8f 92       	push	r8
    7c2a:	9f 92       	push	r9
    7c2c:	af 92       	push	r10
    7c2e:	bf 92       	push	r11
    7c30:	cf 92       	push	r12
    7c32:	df 92       	push	r13
    7c34:	ef 92       	push	r14
    7c36:	ff 92       	push	r15
    7c38:	0f 93       	push	r16
    7c3a:	1f 93       	push	r17
    7c3c:	cf 93       	push	r28
    7c3e:	df 93       	push	r29
    7c40:	d6 2f       	mov	r29, r22
    7c42:	c7 2f       	mov	r28, r23
    7c44:	3a 01       	movw	r6, r20
    7c46:	59 01       	movw	r10, r18
    7c48:	68 01       	movw	r12, r16
    7c4a:	70 e0       	ldi	r23, 0x00	; 0
    7c4c:	60 e0       	ldi	r22, 0x00	; 0
    7c4e:	8d 2f       	mov	r24, r29
    7c50:	9c 2f       	mov	r25, r28
    7c52:	0e 94 e0 39 	call	0x73c0	; 0x73c0 <get_gauss_poly_7681_256>
    7c56:	70 e0       	ldi	r23, 0x00	; 0
    7c58:	60 e0       	ldi	r22, 0x00	; 0
    7c5a:	c3 01       	movw	r24, r6
    7c5c:	0e 94 e0 39 	call	0x73c0	; 0x73c0 <get_gauss_poly_7681_256>
    7c60:	60 e0       	ldi	r22, 0x00	; 0
    7c62:	7a e0       	ldi	r23, 0x0A	; 10
    7c64:	8d 2f       	mov	r24, r29
    7c66:	9c 2f       	mov	r25, r28
    7c68:	0e 94 da 3c 	call	0x79b4	; 0x79b4 <ntt_CT_no_to_bo_incl_psi_7681_256>
    7c6c:	60 e0       	ldi	r22, 0x00	; 0
    7c6e:	7a e0       	ldi	r23, 0x0A	; 10
    7c70:	c3 01       	movw	r24, r6
    7c72:	0e 94 da 3c 	call	0x79b4	; 0x79b4 <ntt_CT_no_to_bo_incl_psi_7681_256>
    7c76:	ed 2e       	mov	r14, r29
    7c78:	fc 2e       	mov	r15, r28
    7c7a:	83 01       	movw	r16, r6
    7c7c:	d0 e0       	ldi	r29, 0x00	; 0
    7c7e:	c0 e0       	ldi	r28, 0x00	; 0
    7c80:	d7 01       	movw	r26, r14
    7c82:	8d 90       	ld	r8, X+
    7c84:	9d 90       	ld	r9, X+
    7c86:	7d 01       	movw	r14, r26
    7c88:	f5 01       	movw	r30, r10
    7c8a:	ec 0f       	add	r30, r28
    7c8c:	fd 1f       	adc	r31, r29
    7c8e:	65 91       	lpm	r22, Z+
    7c90:	74 91       	lpm	r23, Z
    7c92:	c4 01       	movw	r24, r8
    7c94:	0e 94 90 2c 	call	0x5920	; 0x5920 <mm7681>
    7c98:	9c 01       	movw	r18, r24
    7c9a:	f7 01       	movw	r30, r14
    7c9c:	92 93       	st	-Z, r25
    7c9e:	82 93       	st	-Z, r24
    7ca0:	d8 01       	movw	r26, r16
    7ca2:	8d 91       	ld	r24, X+
    7ca4:	9d 91       	ld	r25, X+
    7ca6:	8d 01       	movw	r16, r26
    7ca8:	28 0f       	add	r18, r24
    7caa:	39 1f       	adc	r19, r25
    7cac:	21 30       	cpi	r18, 0x01	; 1
    7cae:	be e1       	ldi	r27, 0x1E	; 30
    7cb0:	3b 07       	cpc	r19, r27
    7cb2:	10 f0       	brcs	.+4      	; 0x7cb8 <enc_7681_256_core+0x94>
    7cb4:	21 50       	subi	r18, 0x01	; 1
    7cb6:	3e 41       	sbci	r19, 0x1E	; 30
    7cb8:	20 83       	st	Z, r18
    7cba:	31 83       	std	Z+1, r19	; 0x01
    7cbc:	f6 01       	movw	r30, r12
    7cbe:	ec 0f       	add	r30, r28
    7cc0:	fd 1f       	adc	r31, r29
    7cc2:	65 91       	lpm	r22, Z+
    7cc4:	74 91       	lpm	r23, Z
    7cc6:	c4 01       	movw	r24, r8
    7cc8:	0e 94 90 2c 	call	0x5920	; 0x5920 <mm7681>
    7ccc:	f8 01       	movw	r30, r16
    7cce:	32 97       	sbiw	r30, 0x02	; 2
    7cd0:	80 83       	st	Z, r24
    7cd2:	91 83       	std	Z+1, r25	; 0x01
    7cd4:	22 96       	adiw	r28, 0x02	; 2
    7cd6:	c1 15       	cp	r28, r1
    7cd8:	e2 e0       	ldi	r30, 0x02	; 2
    7cda:	de 07       	cpc	r29, r30
    7cdc:	89 f6       	brne	.-94     	; 0x7c80 <enc_7681_256_core+0x5c>
    7cde:	60 e0       	ldi	r22, 0x00	; 0
    7ce0:	78 e0       	ldi	r23, 0x08	; 8
    7ce2:	c3 01       	movw	r24, r6
    7ce4:	0e 94 bc 3a 	call	0x7578	; 0x7578 <ntt_GS_bo_to_no_incl_invpsi_7681_256>
    7ce8:	61 e0       	ldi	r22, 0x01	; 1
    7cea:	70 e0       	ldi	r23, 0x00	; 0
    7cec:	c3 01       	movw	r24, r6
    7cee:	df 91       	pop	r29
    7cf0:	cf 91       	pop	r28
    7cf2:	1f 91       	pop	r17
    7cf4:	0f 91       	pop	r16
    7cf6:	ff 90       	pop	r15
    7cf8:	ef 90       	pop	r14
    7cfa:	df 90       	pop	r13
    7cfc:	cf 90       	pop	r12
    7cfe:	bf 90       	pop	r11
    7d00:	af 90       	pop	r10
    7d02:	9f 90       	pop	r9
    7d04:	8f 90       	pop	r8
    7d06:	7f 90       	pop	r7
    7d08:	6f 90       	pop	r6
    7d0a:	0c 94 e0 39 	jmp	0x73c0	; 0x73c0 <get_gauss_poly_7681_256>

00007d0e <dec_7681_256_core>:
    7d0e:	0f 93       	push	r16
    7d10:	1f 93       	push	r17
    7d12:	cf 93       	push	r28
    7d14:	df 93       	push	r29
    7d16:	d6 2f       	mov	r29, r22
    7d18:	c7 2f       	mov	r28, r23
    7d1a:	8a 01       	movw	r16, r20
    7d1c:	b9 01       	movw	r22, r18
    7d1e:	8d 2f       	mov	r24, r29
    7d20:	9c 2f       	mov	r25, r28
    7d22:	0e 94 c4 3d 	call	0x7b88	; 0x7b88 <pw_mul_flash_7681_256>
    7d26:	60 e0       	ldi	r22, 0x00	; 0
    7d28:	78 e0       	ldi	r23, 0x08	; 8
    7d2a:	8d 2f       	mov	r24, r29
    7d2c:	9c 2f       	mov	r25, r28
    7d2e:	0e 94 bc 3a 	call	0x7578	; 0x7578 <ntt_GS_bo_to_no_incl_invpsi_7681_256>
    7d32:	4d 2f       	mov	r20, r29
    7d34:	5c 2f       	mov	r21, r28
    7d36:	b8 01       	movw	r22, r16
    7d38:	8d 2f       	mov	r24, r29
    7d3a:	9c 2f       	mov	r25, r28
    7d3c:	df 91       	pop	r29
    7d3e:	cf 91       	pop	r28
    7d40:	1f 91       	pop	r17
    7d42:	0f 91       	pop	r16
    7d44:	0c 94 e6 3d 	jmp	0x7bcc	; 0x7bcc <add_7681>

00007d48 <add_encode_7681_256>:
    7d48:	ac 01       	movw	r20, r24
    7d4a:	fb 01       	movw	r30, r22
    7d4c:	90 e0       	ldi	r25, 0x00	; 0
    7d4e:	80 e0       	ldi	r24, 0x00	; 0
    7d50:	dc 01       	movw	r26, r24
    7d52:	23 e0       	ldi	r18, 0x03	; 3
    7d54:	b6 95       	lsr	r27
    7d56:	a7 95       	ror	r26
    7d58:	2a 95       	dec	r18
    7d5a:	e1 f7       	brne	.-8      	; 0x7d54 <add_encode_7681_256+0xc>
    7d5c:	a4 0f       	add	r26, r20
    7d5e:	b5 1f       	adc	r27, r21
    7d60:	2c 91       	ld	r18, X
    7d62:	30 e0       	ldi	r19, 0x00	; 0
    7d64:	bc 01       	movw	r22, r24
    7d66:	67 70       	andi	r22, 0x07	; 7
    7d68:	77 27       	eor	r23, r23
    7d6a:	02 c0       	rjmp	.+4      	; 0x7d70 <add_encode_7681_256+0x28>
    7d6c:	35 95       	asr	r19
    7d6e:	27 95       	ror	r18
    7d70:	6a 95       	dec	r22
    7d72:	e2 f7       	brpl	.-8      	; 0x7d6c <add_encode_7681_256+0x24>
    7d74:	20 ff       	sbrs	r18, 0
    7d76:	0a c0       	rjmp	.+20     	; 0x7d8c <add_encode_7681_256+0x44>
    7d78:	20 81       	ld	r18, Z
    7d7a:	31 81       	ldd	r19, Z+1	; 0x01
    7d7c:	b9 01       	movw	r22, r18
    7d7e:	71 5f       	subi	r23, 0xF1	; 241
    7d80:	61 30       	cpi	r22, 0x01	; 1
    7d82:	ae e1       	ldi	r26, 0x1E	; 30
    7d84:	7a 07       	cpc	r23, r26
    7d86:	40 f4       	brcc	.+16     	; 0x7d98 <add_encode_7681_256+0x50>
    7d88:	60 83       	st	Z, r22
    7d8a:	71 83       	std	Z+1, r23	; 0x01
    7d8c:	32 96       	adiw	r30, 0x02	; 2
    7d8e:	8f 3f       	cpi	r24, 0xFF	; 255
    7d90:	91 05       	cpc	r25, r1
    7d92:	39 f0       	breq	.+14     	; 0x7da2 <add_encode_7681_256+0x5a>
    7d94:	01 96       	adiw	r24, 0x01	; 1
    7d96:	dc cf       	rjmp	.-72     	; 0x7d50 <add_encode_7681_256+0x8>
    7d98:	21 50       	subi	r18, 0x01	; 1
    7d9a:	3f 40       	sbci	r19, 0x0F	; 15
    7d9c:	20 83       	st	Z, r18
    7d9e:	31 83       	std	Z+1, r19	; 0x01
    7da0:	f5 cf       	rjmp	.-22     	; 0x7d8c <add_encode_7681_256+0x44>
    7da2:	08 95       	ret

00007da4 <encrypt_7681_256>:
    7da4:	ef 92       	push	r14
    7da6:	ff 92       	push	r15
    7da8:	0f 93       	push	r16
    7daa:	1f 93       	push	r17
    7dac:	cf 93       	push	r28
    7dae:	df 93       	push	r29
    7db0:	d8 2f       	mov	r29, r24
    7db2:	c9 2f       	mov	r28, r25
    7db4:	7a 01       	movw	r14, r20
    7db6:	0e 94 12 3e 	call	0x7c24	; 0x7c24 <enc_7681_256_core>
    7dba:	b7 01       	movw	r22, r14
    7dbc:	8d 2f       	mov	r24, r29
    7dbe:	9c 2f       	mov	r25, r28
    7dc0:	df 91       	pop	r29
    7dc2:	cf 91       	pop	r28
    7dc4:	1f 91       	pop	r17
    7dc6:	0f 91       	pop	r16
    7dc8:	ff 90       	pop	r15
    7dca:	ef 90       	pop	r14
    7dcc:	0c 94 a4 3e 	jmp	0x7d48	; 0x7d48 <add_encode_7681_256>

00007dd0 <decode_7681_256>:
    7dd0:	cf 93       	push	r28
    7dd2:	df 93       	push	r29
    7dd4:	9b 01       	movw	r18, r22
    7dd6:	fc 01       	movw	r30, r24
    7dd8:	90 e0       	ldi	r25, 0x00	; 0
    7dda:	80 e0       	ldi	r24, 0x00	; 0
    7ddc:	61 e0       	ldi	r22, 0x01	; 1
    7dde:	70 e0       	ldi	r23, 0x00	; 0
    7de0:	41 91       	ld	r20, Z+
    7de2:	51 91       	ld	r21, Z+
    7de4:	40 58       	subi	r20, 0x80	; 128
    7de6:	57 40       	sbci	r21, 0x07	; 7
    7de8:	41 15       	cp	r20, r1
    7dea:	5f 40       	sbci	r21, 0x0F	; 15
    7dec:	98 f4       	brcc	.+38     	; 0x7e14 <decode_7681_256+0x44>
    7dee:	dc 01       	movw	r26, r24
    7df0:	43 e0       	ldi	r20, 0x03	; 3
    7df2:	b6 95       	lsr	r27
    7df4:	a7 95       	ror	r26
    7df6:	4a 95       	dec	r20
    7df8:	e1 f7       	brne	.-8      	; 0x7df2 <decode_7681_256+0x22>
    7dfa:	a2 0f       	add	r26, r18
    7dfc:	b3 1f       	adc	r27, r19
    7dfe:	ac 01       	movw	r20, r24
    7e00:	47 70       	andi	r20, 0x07	; 7
    7e02:	55 27       	eor	r21, r21
    7e04:	eb 01       	movw	r28, r22
    7e06:	01 c0       	rjmp	.+2      	; 0x7e0a <decode_7681_256+0x3a>
    7e08:	cc 0f       	add	r28, r28
    7e0a:	4a 95       	dec	r20
    7e0c:	ea f7       	brpl	.-6      	; 0x7e08 <decode_7681_256+0x38>
    7e0e:	4c 91       	ld	r20, X
    7e10:	4c 2b       	or	r20, r28
    7e12:	4c 93       	st	X, r20
    7e14:	8f 3f       	cpi	r24, 0xFF	; 255
    7e16:	91 05       	cpc	r25, r1
    7e18:	11 f0       	breq	.+4      	; 0x7e1e <decode_7681_256+0x4e>
    7e1a:	01 96       	adiw	r24, 0x01	; 1
    7e1c:	e1 cf       	rjmp	.-62     	; 0x7de0 <decode_7681_256+0x10>
    7e1e:	df 91       	pop	r29
    7e20:	cf 91       	pop	r28
    7e22:	08 95       	ret

00007e24 <decrypt_7681_256>:
    7e24:	0f 93       	push	r16
    7e26:	1f 93       	push	r17
    7e28:	cf 93       	push	r28
    7e2a:	df 93       	push	r29
    7e2c:	8c 01       	movw	r16, r24
    7e2e:	d6 2f       	mov	r29, r22
    7e30:	c7 2f       	mov	r28, r23
    7e32:	0e 94 87 3e 	call	0x7d0e	; 0x7d0e <dec_7681_256_core>
    7e36:	b8 01       	movw	r22, r16
    7e38:	8d 2f       	mov	r24, r29
    7e3a:	9c 2f       	mov	r25, r28
    7e3c:	df 91       	pop	r29
    7e3e:	cf 91       	pop	r28
    7e40:	1f 91       	pop	r17
    7e42:	0f 91       	pop	r16
    7e44:	0c 94 e8 3e 	jmp	0x7dd0	; 0x7dd0 <decode_7681_256>

00007e48 <get_gauss_poly_12289_512>:
    7e48:	9f 92       	push	r9
    7e4a:	af 92       	push	r10
    7e4c:	bf 92       	push	r11
    7e4e:	cf 92       	push	r12
    7e50:	df 92       	push	r13
    7e52:	ef 92       	push	r14
    7e54:	ff 92       	push	r15
    7e56:	0f 93       	push	r16
    7e58:	1f 93       	push	r17
    7e5a:	cf 93       	push	r28
    7e5c:	df 93       	push	r29
    7e5e:	cd b7       	in	r28, 0x3d	; 61
    7e60:	de b7       	in	r29, 0x3e	; 62
    7e62:	e1 97       	sbiw	r28, 0x31	; 49
    7e64:	cd bf       	out	0x3d, r28	; 61
    7e66:	de bf       	out	0x3e, r29	; 62
    7e68:	6b 01       	movw	r12, r22
    7e6a:	19 aa       	std	Y+49, r1	; 0x31
    7e6c:	7c 01       	movw	r14, r24
    7e6e:	5c 01       	movw	r10, r24
    7e70:	2c ef       	ldi	r18, 0xFC	; 252
    7e72:	b2 1a       	sub	r11, r18
    7e74:	8e ef       	ldi	r24, 0xFE	; 254
    7e76:	98 2e       	mov	r9, r24
    7e78:	83 e2       	ldi	r24, 0x23	; 35
    7e7a:	89 15       	cp	r24, r9
    7e7c:	68 f4       	brcc	.+26     	; 0x7e98 <get_gauss_poly_12289_512+0x50>
    7e7e:	ce 01       	movw	r24, r28
    7e80:	01 96       	adiw	r24, 0x01	; 1
    7e82:	0e 94 b5 2f 	call	0x5f6a	; 0x5f6a <next_block_ptr>
    7e86:	ce 01       	movw	r24, r28
    7e88:	41 96       	adiw	r24, 0x11	; 17
    7e8a:	0e 94 b5 2f 	call	0x5f6a	; 0x5f6a <next_block_ptr>
    7e8e:	ce 01       	movw	r24, r28
    7e90:	81 96       	adiw	r24, 0x21	; 33
    7e92:	0e 94 b5 2f 	call	0x5f6a	; 0x5f6a <next_block_ptr>
    7e96:	91 2c       	mov	r9, r1
    7e98:	21 e0       	ldi	r18, 0x01	; 1
    7e9a:	30 e0       	ldi	r19, 0x00	; 0
    7e9c:	2c 0f       	add	r18, r28
    7e9e:	3d 1f       	adc	r19, r29
    7ea0:	29 0d       	add	r18, r9
    7ea2:	31 1d       	adc	r19, r1
    7ea4:	8e 01       	movw	r16, r28
    7ea6:	0f 5c       	subi	r16, 0xCF	; 207
    7ea8:	1f 4f       	sbci	r17, 0xFF	; 255
    7eaa:	40 e0       	ldi	r20, 0x00	; 0
    7eac:	5c e0       	ldi	r21, 0x0C	; 12
    7eae:	6c e0       	ldi	r22, 0x0C	; 12
    7eb0:	87 e3       	ldi	r24, 0x37	; 55
    7eb2:	0e 94 01 30 	call	0x6002	; 0x6002 <sample_gauss>
    7eb6:	99 a9       	ldd	r25, Y+49	; 0x31
    7eb8:	99 0e       	add	r9, r25
    7eba:	08 2e       	mov	r0, r24
    7ebc:	00 0c       	add	r0, r0
    7ebe:	99 0b       	sbc	r25, r25
    7ec0:	e1 e0       	ldi	r30, 0x01	; 1
    7ec2:	ce 16       	cp	r12, r30
    7ec4:	d1 04       	cpc	r13, r1
    7ec6:	59 f4       	brne	.+22     	; 0x7ede <get_gauss_poly_12289_512+0x96>
    7ec8:	f7 01       	movw	r30, r14
    7eca:	20 81       	ld	r18, Z
    7ecc:	31 81       	ldd	r19, Z+1	; 0x01
    7ece:	82 0f       	add	r24, r18
    7ed0:	93 1f       	adc	r25, r19
    7ed2:	81 30       	cpi	r24, 0x01	; 1
    7ed4:	f0 e3       	ldi	r31, 0x30	; 48
    7ed6:	9f 07       	cpc	r25, r31
    7ed8:	10 f0       	brcs	.+4      	; 0x7ede <get_gauss_poly_12289_512+0x96>
    7eda:	81 50       	subi	r24, 0x01	; 1
    7edc:	90 43       	sbci	r25, 0x30	; 48
    7ede:	f7 01       	movw	r30, r14
    7ee0:	80 83       	st	Z, r24
    7ee2:	91 83       	std	Z+1, r25	; 0x01
    7ee4:	f2 e0       	ldi	r31, 0x02	; 2
    7ee6:	ef 0e       	add	r14, r31
    7ee8:	f1 1c       	adc	r15, r1
    7eea:	ea 14       	cp	r14, r10
    7eec:	fb 04       	cpc	r15, r11
    7eee:	21 f6       	brne	.-120    	; 0x7e78 <get_gauss_poly_12289_512+0x30>
    7ef0:	e1 96       	adiw	r28, 0x31	; 49
    7ef2:	cd bf       	out	0x3d, r28	; 61
    7ef4:	de bf       	out	0x3e, r29	; 62
    7ef6:	df 91       	pop	r29
    7ef8:	cf 91       	pop	r28
    7efa:	1f 91       	pop	r17
    7efc:	0f 91       	pop	r16
    7efe:	ff 90       	pop	r15
    7f00:	ef 90       	pop	r14
    7f02:	df 90       	pop	r13
    7f04:	cf 90       	pop	r12
    7f06:	bf 90       	pop	r11
    7f08:	af 90       	pop	r10
    7f0a:	9f 90       	pop	r9
    7f0c:	08 95       	ret

00007f0e <first_stage_GS_12289_512>:
    7f0e:	ef 92       	push	r14
    7f10:	ff 92       	push	r15
    7f12:	0f 93       	push	r16
    7f14:	1f 93       	push	r17
    7f16:	cf 93       	push	r28
    7f18:	df 93       	push	r29
    7f1a:	8b 01       	movw	r16, r22
    7f1c:	1e 5f       	subi	r17, 0xFE	; 254
    7f1e:	ec 01       	movw	r28, r24
    7f20:	7c 01       	movw	r14, r24
    7f22:	8c ef       	ldi	r24, 0xFC	; 252
    7f24:	f8 1a       	sub	r15, r24
    7f26:	f8 01       	movw	r30, r16
    7f28:	85 91       	lpm	r24, Z+
    7f2a:	94 91       	lpm	r25, Z
    7f2c:	68 81       	ld	r22, Y
    7f2e:	79 81       	ldd	r23, Y+1	; 0x01
    7f30:	4a 81       	ldd	r20, Y+2	; 0x02
    7f32:	5b 81       	ldd	r21, Y+3	; 0x03
    7f34:	9b 01       	movw	r18, r22
    7f36:	24 0f       	add	r18, r20
    7f38:	35 1f       	adc	r19, r21
    7f3a:	21 30       	cpi	r18, 0x01	; 1
    7f3c:	e0 e3       	ldi	r30, 0x30	; 48
    7f3e:	3e 07       	cpc	r19, r30
    7f40:	cc f4       	brge	.+50     	; 0x7f74 <first_stage_GS_12289_512+0x66>
    7f42:	28 83       	st	Y, r18
    7f44:	39 83       	std	Y+1, r19	; 0x01
    7f46:	64 1b       	sub	r22, r20
    7f48:	75 0b       	sbc	r23, r21
    7f4a:	77 ff       	sbrs	r23, 7
    7f4c:	02 c0       	rjmp	.+4      	; 0x7f52 <first_stage_GS_12289_512+0x44>
    7f4e:	6f 5f       	subi	r22, 0xFF	; 255
    7f50:	7f 4c       	sbci	r23, 0xCF	; 207
    7f52:	0e 94 c1 2c 	call	0x5982	; 0x5982 <mm12289>
    7f56:	8a 83       	std	Y+2, r24	; 0x02
    7f58:	9b 83       	std	Y+3, r25	; 0x03
    7f5a:	0e 5f       	subi	r16, 0xFE	; 254
    7f5c:	1f 4f       	sbci	r17, 0xFF	; 255
    7f5e:	24 96       	adiw	r28, 0x04	; 4
    7f60:	ec 16       	cp	r14, r28
    7f62:	fd 06       	cpc	r15, r29
    7f64:	01 f7       	brne	.-64     	; 0x7f26 <first_stage_GS_12289_512+0x18>
    7f66:	df 91       	pop	r29
    7f68:	cf 91       	pop	r28
    7f6a:	1f 91       	pop	r17
    7f6c:	0f 91       	pop	r16
    7f6e:	ff 90       	pop	r15
    7f70:	ef 90       	pop	r14
    7f72:	08 95       	ret
    7f74:	21 50       	subi	r18, 0x01	; 1
    7f76:	30 43       	sbci	r19, 0x30	; 48
    7f78:	e4 cf       	rjmp	.-56     	; 0x7f42 <first_stage_GS_12289_512+0x34>

00007f7a <last_stage_GS_12289_512>:
    7f7a:	af 92       	push	r10
    7f7c:	bf 92       	push	r11
    7f7e:	cf 92       	push	r12
    7f80:	df 92       	push	r13
    7f82:	ef 92       	push	r14
    7f84:	ff 92       	push	r15
    7f86:	0f 93       	push	r16
    7f88:	1f 93       	push	r17
    7f8a:	cf 93       	push	r28
    7f8c:	df 93       	push	r29
    7f8e:	fb 01       	movw	r30, r22
    7f90:	32 96       	adiw	r30, 0x02	; 2
    7f92:	a5 90       	lpm	r10, Z+
    7f94:	b4 90       	lpm	r11, Z
    7f96:	ec 01       	movw	r28, r24
    7f98:	8c 01       	movw	r16, r24
    7f9a:	1e 5f       	subi	r17, 0xFE	; 254
    7f9c:	68 01       	movw	r12, r16
    7f9e:	69 91       	ld	r22, Y+
    7fa0:	79 91       	ld	r23, Y+
    7fa2:	f8 01       	movw	r30, r16
    7fa4:	81 91       	ld	r24, Z+
    7fa6:	91 91       	ld	r25, Z+
    7fa8:	8f 01       	movw	r16, r30
    7faa:	86 0f       	add	r24, r22
    7fac:	97 1f       	adc	r25, r23
    7fae:	fe 01       	movw	r30, r28
    7fb0:	32 97       	sbiw	r30, 0x02	; 2
    7fb2:	81 30       	cpi	r24, 0x01	; 1
    7fb4:	20 e3       	ldi	r18, 0x30	; 48
    7fb6:	92 07       	cpc	r25, r18
    7fb8:	04 f5       	brge	.+64     	; 0x7ffa <last_stage_GS_12289_512+0x80>
    7fba:	80 83       	st	Z, r24
    7fbc:	91 83       	std	Z+1, r25	; 0x01
    7fbe:	f8 01       	movw	r30, r16
    7fc0:	92 91       	ld	r25, -Z
    7fc2:	82 91       	ld	r24, -Z
    7fc4:	7f 01       	movw	r14, r30
    7fc6:	68 1b       	sub	r22, r24
    7fc8:	79 0b       	sbc	r23, r25
    7fca:	77 ff       	sbrs	r23, 7
    7fcc:	02 c0       	rjmp	.+4      	; 0x7fd2 <last_stage_GS_12289_512+0x58>
    7fce:	6f 5f       	subi	r22, 0xFF	; 255
    7fd0:	7f 4c       	sbci	r23, 0xCF	; 207
    7fd2:	c5 01       	movw	r24, r10
    7fd4:	0e 94 c1 2c 	call	0x5982	; 0x5982 <mm12289>
    7fd8:	f7 01       	movw	r30, r14
    7fda:	80 83       	st	Z, r24
    7fdc:	91 83       	std	Z+1, r25	; 0x01
    7fde:	cc 15       	cp	r28, r12
    7fe0:	dd 05       	cpc	r29, r13
    7fe2:	e9 f6       	brne	.-70     	; 0x7f9e <last_stage_GS_12289_512+0x24>
    7fe4:	df 91       	pop	r29
    7fe6:	cf 91       	pop	r28
    7fe8:	1f 91       	pop	r17
    7fea:	0f 91       	pop	r16
    7fec:	ff 90       	pop	r15
    7fee:	ef 90       	pop	r14
    7ff0:	df 90       	pop	r13
    7ff2:	cf 90       	pop	r12
    7ff4:	bf 90       	pop	r11
    7ff6:	af 90       	pop	r10
    7ff8:	08 95       	ret
    7ffa:	81 50       	subi	r24, 0x01	; 1
    7ffc:	90 43       	sbci	r25, 0x30	; 48
    7ffe:	dd cf       	rjmp	.-70     	; 0x7fba <last_stage_GS_12289_512+0x40>

00008000 <ntt_GS_bo_to_no_incl_invpsi_12289_512>:
    8000:	2f 92       	push	r2
    8002:	3f 92       	push	r3
    8004:	4f 92       	push	r4
    8006:	5f 92       	push	r5
    8008:	6f 92       	push	r6
    800a:	7f 92       	push	r7
    800c:	8f 92       	push	r8
    800e:	9f 92       	push	r9
    8010:	af 92       	push	r10
    8012:	bf 92       	push	r11
    8014:	cf 92       	push	r12
    8016:	df 92       	push	r13
    8018:	ef 92       	push	r14
    801a:	ff 92       	push	r15
    801c:	0f 93       	push	r16
    801e:	1f 93       	push	r17
    8020:	cf 93       	push	r28
    8022:	df 93       	push	r29
    8024:	cd b7       	in	r28, 0x3d	; 61
    8026:	de b7       	in	r29, 0x3e	; 62
    8028:	2a 97       	sbiw	r28, 0x0a	; 10
    802a:	cd bf       	out	0x3d, r28	; 61
    802c:	de bf       	out	0x3e, r29	; 62
    802e:	8c 01       	movw	r16, r24
    8030:	6b 01       	movw	r12, r22
    8032:	0e 94 87 3f 	call	0x7f0e	; 0x7f0e <first_stage_GS_12289_512>
    8036:	27 e0       	ldi	r18, 0x07	; 7
    8038:	30 e0       	ldi	r19, 0x00	; 0
    803a:	2d 83       	std	Y+5, r18	; 0x05
    803c:	3e 83       	std	Y+6, r19	; 0x06
    803e:	80 e8       	ldi	r24, 0x80	; 128
    8040:	90 e0       	ldi	r25, 0x00	; 0
    8042:	89 83       	std	Y+1, r24	; 0x01
    8044:	9a 83       	std	Y+2, r25	; 0x02
    8046:	72 e0       	ldi	r23, 0x02	; 2
    8048:	a7 2e       	mov	r10, r23
    804a:	b1 2c       	mov	r11, r1
    804c:	45 01       	movw	r8, r10
    804e:	aa 0c       	add	r10, r10
    8050:	bb 1c       	adc	r11, r11
    8052:	89 81       	ldd	r24, Y+1	; 0x01
    8054:	9a 81       	ldd	r25, Y+2	; 0x02
    8056:	88 0f       	add	r24, r24
    8058:	99 1f       	adc	r25, r25
    805a:	f6 01       	movw	r30, r12
    805c:	e8 0f       	add	r30, r24
    805e:	f9 1f       	adc	r31, r25
    8060:	eb 83       	std	Y+3, r30	; 0x03
    8062:	fc 83       	std	Y+4, r31	; 0x04
    8064:	71 2c       	mov	r7, r1
    8066:	61 2c       	mov	r6, r1
    8068:	51 2c       	mov	r5, r1
    806a:	41 2c       	mov	r4, r1
    806c:	eb 81       	ldd	r30, Y+3	; 0x03
    806e:	fc 81       	ldd	r31, Y+4	; 0x04
    8070:	25 91       	lpm	r18, Z+
    8072:	34 91       	lpm	r19, Z
    8074:	2f 83       	std	Y+7, r18	; 0x07
    8076:	38 87       	std	Y+8, r19	; 0x08
    8078:	74 01       	movw	r14, r8
    807a:	ee 0c       	add	r14, r14
    807c:	ff 1c       	adc	r15, r15
    807e:	e0 0e       	add	r14, r16
    8080:	f1 1e       	adc	r15, r17
    8082:	c3 01       	movw	r24, r6
    8084:	88 0f       	add	r24, r24
    8086:	99 1f       	adc	r25, r25
    8088:	80 0f       	add	r24, r16
    808a:	91 1f       	adc	r25, r17
    808c:	89 87       	std	Y+9, r24	; 0x09
    808e:	9a 87       	std	Y+10, r25	; 0x0a
    8090:	13 01       	movw	r2, r6
    8092:	28 14       	cp	r2, r8
    8094:	39 04       	cpc	r3, r9
    8096:	b8 f1       	brcs	.+110    	; 0x8106 <ntt_GS_bo_to_no_incl_invpsi_12289_512+0x106>
    8098:	6a 0c       	add	r6, r10
    809a:	7b 1c       	adc	r7, r11
    809c:	3f ef       	ldi	r19, 0xFF	; 255
    809e:	43 1a       	sub	r4, r19
    80a0:	53 0a       	sbc	r5, r19
    80a2:	8b 81       	ldd	r24, Y+3	; 0x03
    80a4:	9c 81       	ldd	r25, Y+4	; 0x04
    80a6:	02 96       	adiw	r24, 0x02	; 2
    80a8:	8b 83       	std	Y+3, r24	; 0x03
    80aa:	9c 83       	std	Y+4, r25	; 0x04
    80ac:	8a 0c       	add	r8, r10
    80ae:	9b 1c       	adc	r9, r11
    80b0:	e9 81       	ldd	r30, Y+1	; 0x01
    80b2:	fa 81       	ldd	r31, Y+2	; 0x02
    80b4:	4e 16       	cp	r4, r30
    80b6:	5f 06       	cpc	r5, r31
    80b8:	c9 f6       	brne	.-78     	; 0x806c <ntt_GS_bo_to_no_incl_invpsi_12289_512+0x6c>
    80ba:	92 01       	movw	r18, r4
    80bc:	36 95       	lsr	r19
    80be:	27 95       	ror	r18
    80c0:	29 83       	std	Y+1, r18	; 0x01
    80c2:	3a 83       	std	Y+2, r19	; 0x02
    80c4:	8d 81       	ldd	r24, Y+5	; 0x05
    80c6:	9e 81       	ldd	r25, Y+6	; 0x06
    80c8:	01 97       	sbiw	r24, 0x01	; 1
    80ca:	8d 83       	std	Y+5, r24	; 0x05
    80cc:	9e 83       	std	Y+6, r25	; 0x06
    80ce:	89 2b       	or	r24, r25
    80d0:	09 f0       	breq	.+2      	; 0x80d4 <ntt_GS_bo_to_no_incl_invpsi_12289_512+0xd4>
    80d2:	bc cf       	rjmp	.-136    	; 0x804c <ntt_GS_bo_to_no_incl_invpsi_12289_512+0x4c>
    80d4:	b6 01       	movw	r22, r12
    80d6:	c8 01       	movw	r24, r16
    80d8:	2a 96       	adiw	r28, 0x0a	; 10
    80da:	cd bf       	out	0x3d, r28	; 61
    80dc:	de bf       	out	0x3e, r29	; 62
    80de:	df 91       	pop	r29
    80e0:	cf 91       	pop	r28
    80e2:	1f 91       	pop	r17
    80e4:	0f 91       	pop	r16
    80e6:	ff 90       	pop	r15
    80e8:	ef 90       	pop	r14
    80ea:	df 90       	pop	r13
    80ec:	cf 90       	pop	r12
    80ee:	bf 90       	pop	r11
    80f0:	af 90       	pop	r10
    80f2:	9f 90       	pop	r9
    80f4:	8f 90       	pop	r8
    80f6:	7f 90       	pop	r7
    80f8:	6f 90       	pop	r6
    80fa:	5f 90       	pop	r5
    80fc:	4f 90       	pop	r4
    80fe:	3f 90       	pop	r3
    8100:	2f 90       	pop	r2
    8102:	0c 94 bd 3f 	jmp	0x7f7a	; 0x7f7a <last_stage_GS_12289_512>
    8106:	e9 85       	ldd	r30, Y+9	; 0x09
    8108:	fa 85       	ldd	r31, Y+10	; 0x0a
    810a:	60 81       	ld	r22, Z
    810c:	71 81       	ldd	r23, Z+1	; 0x01
    810e:	f7 01       	movw	r30, r14
    8110:	80 81       	ld	r24, Z
    8112:	91 81       	ldd	r25, Z+1	; 0x01
    8114:	86 0f       	add	r24, r22
    8116:	97 1f       	adc	r25, r23
    8118:	81 30       	cpi	r24, 0x01	; 1
    811a:	f0 e3       	ldi	r31, 0x30	; 48
    811c:	9f 07       	cpc	r25, r31
    811e:	fc f4       	brge	.+62     	; 0x815e <ntt_GS_bo_to_no_incl_invpsi_12289_512+0x15e>
    8120:	e9 85       	ldd	r30, Y+9	; 0x09
    8122:	fa 85       	ldd	r31, Y+10	; 0x0a
    8124:	80 83       	st	Z, r24
    8126:	91 83       	std	Z+1, r25	; 0x01
    8128:	f7 01       	movw	r30, r14
    812a:	80 81       	ld	r24, Z
    812c:	91 81       	ldd	r25, Z+1	; 0x01
    812e:	68 1b       	sub	r22, r24
    8130:	79 0b       	sbc	r23, r25
    8132:	77 ff       	sbrs	r23, 7
    8134:	02 c0       	rjmp	.+4      	; 0x813a <ntt_GS_bo_to_no_incl_invpsi_12289_512+0x13a>
    8136:	6f 5f       	subi	r22, 0xFF	; 255
    8138:	7f 4c       	sbci	r23, 0xCF	; 207
    813a:	8f 81       	ldd	r24, Y+7	; 0x07
    813c:	98 85       	ldd	r25, Y+8	; 0x08
    813e:	0e 94 c1 2c 	call	0x5982	; 0x5982 <mm12289>
    8142:	f7 01       	movw	r30, r14
    8144:	81 93       	st	Z+, r24
    8146:	91 93       	st	Z+, r25
    8148:	7f 01       	movw	r14, r30
    814a:	ff ef       	ldi	r31, 0xFF	; 255
    814c:	2f 1a       	sub	r2, r31
    814e:	3f 0a       	sbc	r3, r31
    8150:	29 85       	ldd	r18, Y+9	; 0x09
    8152:	3a 85       	ldd	r19, Y+10	; 0x0a
    8154:	2e 5f       	subi	r18, 0xFE	; 254
    8156:	3f 4f       	sbci	r19, 0xFF	; 255
    8158:	29 87       	std	Y+9, r18	; 0x09
    815a:	3a 87       	std	Y+10, r19	; 0x0a
    815c:	9a cf       	rjmp	.-204    	; 0x8092 <ntt_GS_bo_to_no_incl_invpsi_12289_512+0x92>
    815e:	81 50       	subi	r24, 0x01	; 1
    8160:	90 43       	sbci	r25, 0x30	; 48
    8162:	de cf       	rjmp	.-68     	; 0x8120 <ntt_GS_bo_to_no_incl_invpsi_12289_512+0x120>

00008164 <first_stage_CT_12289_512>:
    8164:	cf 92       	push	r12
    8166:	df 92       	push	r13
    8168:	ef 92       	push	r14
    816a:	ff 92       	push	r15
    816c:	0f 93       	push	r16
    816e:	1f 93       	push	r17
    8170:	cf 93       	push	r28
    8172:	df 93       	push	r29
    8174:	ec 01       	movw	r28, r24
    8176:	8c 01       	movw	r16, r24
    8178:	1e 5f       	subi	r17, 0xFE	; 254
    817a:	78 01       	movw	r14, r16
    817c:	cc 24       	eor	r12, r12
    817e:	c3 94       	inc	r12
    8180:	20 e3       	ldi	r18, 0x30	; 48
    8182:	d2 2e       	mov	r13, r18
    8184:	d8 01       	movw	r26, r16
    8186:	ed 91       	ld	r30, X+
    8188:	fd 91       	ld	r31, X+
    818a:	8d 01       	movw	r16, r26
    818c:	f7 ff       	sbrs	r31, 7
    818e:	49 c0       	rjmp	.+146    	; 0x8222 <first_stage_CT_12289_512+0xbe>
    8190:	66 27       	eor	r22, r22
    8192:	77 27       	eor	r23, r23
    8194:	6e 1b       	sub	r22, r30
    8196:	7f 0b       	sbc	r23, r31
    8198:	e1 3f       	cpi	r30, 0xF1	; 241
    819a:	ff 4f       	sbci	r31, 0xFF	; 255
    819c:	d4 f5       	brge	.+116    	; 0x8212 <first_stage_CT_12289_512+0xae>
    819e:	8a e3       	ldi	r24, 0x3A	; 58
    81a0:	9a e2       	ldi	r25, 0x2A	; 42
    81a2:	0e 94 c1 2c 	call	0x5982	; 0x5982 <mm12289>
    81a6:	9c 01       	movw	r18, r24
    81a8:	c6 01       	movw	r24, r12
    81aa:	82 1b       	sub	r24, r18
    81ac:	93 0b       	sbc	r25, r19
    81ae:	9c 01       	movw	r18, r24
    81b0:	88 81       	ld	r24, Y
    81b2:	99 81       	ldd	r25, Y+1	; 0x01
    81b4:	82 1b       	sub	r24, r18
    81b6:	93 0b       	sbc	r25, r19
    81b8:	f8 01       	movw	r30, r16
    81ba:	32 97       	sbiw	r30, 0x02	; 2
    81bc:	97 fd       	sbrc	r25, 7
    81be:	42 c0       	rjmp	.+132    	; 0x8244 <first_stage_CT_12289_512+0xe0>
    81c0:	80 83       	st	Z, r24
    81c2:	91 83       	std	Z+1, r25	; 0x01
    81c4:	80 81       	ld	r24, Z
    81c6:	91 81       	ldd	r25, Z+1	; 0x01
    81c8:	97 ff       	sbrs	r25, 7
    81ca:	04 c0       	rjmp	.+8      	; 0x81d4 <first_stage_CT_12289_512+0x70>
    81cc:	8f 5f       	subi	r24, 0xFF	; 255
    81ce:	9f 4c       	sbci	r25, 0xCF	; 207
    81d0:	80 83       	st	Z, r24
    81d2:	91 83       	std	Z+1, r25	; 0x01
    81d4:	88 81       	ld	r24, Y
    81d6:	99 81       	ldd	r25, Y+1	; 0x01
    81d8:	28 0f       	add	r18, r24
    81da:	39 1f       	adc	r19, r25
    81dc:	21 30       	cpi	r18, 0x01	; 1
    81de:	90 e3       	ldi	r25, 0x30	; 48
    81e0:	39 07       	cpc	r19, r25
    81e2:	9c f5       	brge	.+102    	; 0x824a <first_stage_CT_12289_512+0xe6>
    81e4:	28 83       	st	Y, r18
    81e6:	39 83       	std	Y+1, r19	; 0x01
    81e8:	88 81       	ld	r24, Y
    81ea:	99 81       	ldd	r25, Y+1	; 0x01
    81ec:	97 ff       	sbrs	r25, 7
    81ee:	04 c0       	rjmp	.+8      	; 0x81f8 <first_stage_CT_12289_512+0x94>
    81f0:	8f 5f       	subi	r24, 0xFF	; 255
    81f2:	9f 4c       	sbci	r25, 0xCF	; 207
    81f4:	88 83       	st	Y, r24
    81f6:	99 83       	std	Y+1, r25	; 0x01
    81f8:	22 96       	adiw	r28, 0x02	; 2
    81fa:	ec 16       	cp	r14, r28
    81fc:	fd 06       	cpc	r15, r29
    81fe:	11 f6       	brne	.-124    	; 0x8184 <first_stage_CT_12289_512+0x20>
    8200:	df 91       	pop	r29
    8202:	cf 91       	pop	r28
    8204:	1f 91       	pop	r17
    8206:	0f 91       	pop	r16
    8208:	ff 90       	pop	r15
    820a:	ef 90       	pop	r14
    820c:	df 90       	pop	r13
    820e:	cf 90       	pop	r12
    8210:	08 95       	ret
    8212:	fb 01       	movw	r30, r22
    8214:	ee 0f       	add	r30, r30
    8216:	ff 1f       	adc	r31, r31
    8218:	ec 56       	subi	r30, 0x6C	; 108
    821a:	f1 4f       	sbci	r31, 0xF1	; 241
    821c:	25 91       	lpm	r18, Z+
    821e:	34 91       	lpm	r19, Z
    8220:	c3 cf       	rjmp	.-122    	; 0x81a8 <first_stage_CT_12289_512+0x44>
    8222:	e0 31       	cpi	r30, 0x10	; 16
    8224:	f1 05       	cpc	r31, r1
    8226:	3c f0       	brlt	.+14     	; 0x8236 <first_stage_CT_12289_512+0xd2>
    8228:	bf 01       	movw	r22, r30
    822a:	8a e3       	ldi	r24, 0x3A	; 58
    822c:	9a e2       	ldi	r25, 0x2A	; 42
    822e:	0e 94 c1 2c 	call	0x5982	; 0x5982 <mm12289>
    8232:	9c 01       	movw	r18, r24
    8234:	bd cf       	rjmp	.-134    	; 0x81b0 <first_stage_CT_12289_512+0x4c>
    8236:	ee 0f       	add	r30, r30
    8238:	ff 1f       	adc	r31, r31
    823a:	ec 56       	subi	r30, 0x6C	; 108
    823c:	f1 4f       	sbci	r31, 0xF1	; 241
    823e:	25 91       	lpm	r18, Z+
    8240:	34 91       	lpm	r19, Z
    8242:	b6 cf       	rjmp	.-148    	; 0x81b0 <first_stage_CT_12289_512+0x4c>
    8244:	8f 5f       	subi	r24, 0xFF	; 255
    8246:	9f 4c       	sbci	r25, 0xCF	; 207
    8248:	bb cf       	rjmp	.-138    	; 0x81c0 <first_stage_CT_12289_512+0x5c>
    824a:	21 50       	subi	r18, 0x01	; 1
    824c:	30 43       	sbci	r19, 0x30	; 48
    824e:	ca cf       	rjmp	.-108    	; 0x81e4 <first_stage_CT_12289_512+0x80>

00008250 <last_stage_CT_12289_512>:
    8250:	ef 92       	push	r14
    8252:	ff 92       	push	r15
    8254:	0f 93       	push	r16
    8256:	1f 93       	push	r17
    8258:	cf 93       	push	r28
    825a:	df 93       	push	r29
    825c:	8b 01       	movw	r16, r22
    825e:	1e 5f       	subi	r17, 0xFE	; 254
    8260:	ec 01       	movw	r28, r24
    8262:	7c 01       	movw	r14, r24
    8264:	2c ef       	ldi	r18, 0xFC	; 252
    8266:	f2 1a       	sub	r15, r18
    8268:	f8 01       	movw	r30, r16
    826a:	85 91       	lpm	r24, Z+
    826c:	94 91       	lpm	r25, Z
    826e:	6a 81       	ldd	r22, Y+2	; 0x02
    8270:	7b 81       	ldd	r23, Y+3	; 0x03
    8272:	0e 94 c1 2c 	call	0x5982	; 0x5982 <mm12289>
    8276:	ac 01       	movw	r20, r24
    8278:	88 81       	ld	r24, Y
    827a:	99 81       	ldd	r25, Y+1	; 0x01
    827c:	9c 01       	movw	r18, r24
    827e:	24 1b       	sub	r18, r20
    8280:	35 0b       	sbc	r19, r21
    8282:	37 fd       	sbrc	r19, 7
    8284:	17 c0       	rjmp	.+46     	; 0x82b4 <last_stage_CT_12289_512+0x64>
    8286:	2a 83       	std	Y+2, r18	; 0x02
    8288:	3b 83       	std	Y+3, r19	; 0x03
    828a:	84 0f       	add	r24, r20
    828c:	95 1f       	adc	r25, r21
    828e:	81 30       	cpi	r24, 0x01	; 1
    8290:	20 e3       	ldi	r18, 0x30	; 48
    8292:	92 07       	cpc	r25, r18
    8294:	94 f4       	brge	.+36     	; 0x82ba <last_stage_CT_12289_512+0x6a>
    8296:	88 83       	st	Y, r24
    8298:	99 83       	std	Y+1, r25	; 0x01
    829a:	0e 5f       	subi	r16, 0xFE	; 254
    829c:	1f 4f       	sbci	r17, 0xFF	; 255
    829e:	24 96       	adiw	r28, 0x04	; 4
    82a0:	ec 16       	cp	r14, r28
    82a2:	fd 06       	cpc	r15, r29
    82a4:	09 f7       	brne	.-62     	; 0x8268 <last_stage_CT_12289_512+0x18>
    82a6:	df 91       	pop	r29
    82a8:	cf 91       	pop	r28
    82aa:	1f 91       	pop	r17
    82ac:	0f 91       	pop	r16
    82ae:	ff 90       	pop	r15
    82b0:	ef 90       	pop	r14
    82b2:	08 95       	ret
    82b4:	2f 5f       	subi	r18, 0xFF	; 255
    82b6:	3f 4c       	sbci	r19, 0xCF	; 207
    82b8:	e6 cf       	rjmp	.-52     	; 0x8286 <last_stage_CT_12289_512+0x36>
    82ba:	81 50       	subi	r24, 0x01	; 1
    82bc:	90 43       	sbci	r25, 0x30	; 48
    82be:	eb cf       	rjmp	.-42     	; 0x8296 <last_stage_CT_12289_512+0x46>

000082c0 <ntt_CT_no_to_bo_incl_psi_12289_512_nolookup>:
    82c0:	2f 92       	push	r2
    82c2:	3f 92       	push	r3
    82c4:	4f 92       	push	r4
    82c6:	5f 92       	push	r5
    82c8:	6f 92       	push	r6
    82ca:	7f 92       	push	r7
    82cc:	8f 92       	push	r8
    82ce:	9f 92       	push	r9
    82d0:	af 92       	push	r10
    82d2:	bf 92       	push	r11
    82d4:	cf 92       	push	r12
    82d6:	df 92       	push	r13
    82d8:	ef 92       	push	r14
    82da:	ff 92       	push	r15
    82dc:	0f 93       	push	r16
    82de:	1f 93       	push	r17
    82e0:	cf 93       	push	r28
    82e2:	df 93       	push	r29
    82e4:	cd b7       	in	r28, 0x3d	; 61
    82e6:	de b7       	in	r29, 0x3e	; 62
    82e8:	60 97       	sbiw	r28, 0x10	; 16
    82ea:	cd bf       	out	0x3d, r28	; 61
    82ec:	de bf       	out	0x3e, r29	; 62
    82ee:	89 87       	std	Y+9, r24	; 0x09
    82f0:	9a 87       	std	Y+10, r25	; 0x0a
    82f2:	69 83       	std	Y+1, r22	; 0x01
    82f4:	7a 83       	std	Y+2, r23	; 0x02
    82f6:	88 e0       	ldi	r24, 0x08	; 8
    82f8:	90 e0       	ldi	r25, 0x00	; 0
    82fa:	8b 83       	std	Y+3, r24	; 0x03
    82fc:	9c 83       	std	Y+4, r25	; 0x04
    82fe:	88 24       	eor	r8, r8
    8300:	83 94       	inc	r8
    8302:	91 2c       	mov	r9, r1
    8304:	c1 2c       	mov	r12, r1
    8306:	dd 24       	eor	r13, r13
    8308:	d3 94       	inc	r13
    830a:	8b 86       	std	Y+11, r8	; 0x0b
    830c:	9c 86       	std	Y+12, r9	; 0x0c
    830e:	88 0c       	add	r8, r8
    8310:	99 1c       	adc	r9, r9
    8312:	e9 81       	ldd	r30, Y+1	; 0x01
    8314:	fa 81       	ldd	r31, Y+2	; 0x02
    8316:	e8 0d       	add	r30, r8
    8318:	f9 1d       	adc	r31, r9
    831a:	ed 83       	std	Y+5, r30	; 0x05
    831c:	fe 83       	std	Y+6, r31	; 0x06
    831e:	56 01       	movw	r10, r12
    8320:	aa 0c       	add	r10, r10
    8322:	bb 1c       	adc	r11, r11
    8324:	f9 85       	ldd	r31, Y+9	; 0x09
    8326:	ff 87       	std	Y+15, r31	; 0x0f
    8328:	8a 85       	ldd	r24, Y+10	; 0x0a
    832a:	88 8b       	std	Y+16, r24	; 0x10
    832c:	26 01       	movw	r4, r12
    832e:	91 e0       	ldi	r25, 0x01	; 1
    8330:	49 1a       	sub	r4, r25
    8332:	51 08       	sbc	r5, r1
    8334:	f1 2c       	mov	r15, r1
    8336:	e1 2c       	mov	r14, r1
    8338:	31 2c       	mov	r3, r1
    833a:	21 2c       	mov	r2, r1
    833c:	ed 81       	ldd	r30, Y+5	; 0x05
    833e:	fe 81       	ldd	r31, Y+6	; 0x06
    8340:	85 91       	lpm	r24, Z+
    8342:	94 91       	lpm	r25, Z
    8344:	8d 87       	std	Y+13, r24	; 0x0d
    8346:	9e 87       	std	Y+14, r25	; 0x0e
    8348:	ef 85       	ldd	r30, Y+15	; 0x0f
    834a:	f8 89       	ldd	r31, Y+16	; 0x10
    834c:	ea 0d       	add	r30, r10
    834e:	fb 1d       	adc	r31, r11
    8350:	ef 83       	std	Y+7, r30	; 0x07
    8352:	f8 87       	std	Y+8, r31	; 0x08
    8354:	8f 01       	movw	r16, r30
    8356:	37 01       	movw	r6, r14
    8358:	46 14       	cp	r4, r6
    835a:	57 04       	cpc	r5, r7
    835c:	e0 f5       	brcc	.+120    	; 0x83d6 <ntt_CT_no_to_bo_incl_psi_12289_512_nolookup+0x116>
    835e:	9f ef       	ldi	r25, 0xFF	; 255
    8360:	29 1a       	sub	r2, r25
    8362:	39 0a       	sbc	r3, r25
    8364:	ed 81       	ldd	r30, Y+5	; 0x05
    8366:	fe 81       	ldd	r31, Y+6	; 0x06
    8368:	32 96       	adiw	r30, 0x02	; 2
    836a:	ed 83       	std	Y+5, r30	; 0x05
    836c:	fe 83       	std	Y+6, r31	; 0x06
    836e:	ea 0c       	add	r14, r10
    8370:	fb 1c       	adc	r15, r11
    8372:	8f 81       	ldd	r24, Y+7	; 0x07
    8374:	98 85       	ldd	r25, Y+8	; 0x08
    8376:	8a 0d       	add	r24, r10
    8378:	9b 1d       	adc	r25, r11
    837a:	8f 87       	std	Y+15, r24	; 0x0f
    837c:	98 8b       	std	Y+16, r25	; 0x10
    837e:	4a 0c       	add	r4, r10
    8380:	5b 1c       	adc	r5, r11
    8382:	eb 85       	ldd	r30, Y+11	; 0x0b
    8384:	fc 85       	ldd	r31, Y+12	; 0x0c
    8386:	2e 16       	cp	r2, r30
    8388:	3f 06       	cpc	r3, r31
    838a:	c1 f6       	brne	.-80     	; 0x833c <ntt_CT_no_to_bo_incl_psi_12289_512_nolookup+0x7c>
    838c:	d6 94       	lsr	r13
    838e:	c7 94       	ror	r12
    8390:	8b 81       	ldd	r24, Y+3	; 0x03
    8392:	9c 81       	ldd	r25, Y+4	; 0x04
    8394:	01 97       	sbiw	r24, 0x01	; 1
    8396:	8b 83       	std	Y+3, r24	; 0x03
    8398:	9c 83       	std	Y+4, r25	; 0x04
    839a:	89 2b       	or	r24, r25
    839c:	09 f0       	breq	.+2      	; 0x83a0 <ntt_CT_no_to_bo_incl_psi_12289_512_nolookup+0xe0>
    839e:	b5 cf       	rjmp	.-150    	; 0x830a <ntt_CT_no_to_bo_incl_psi_12289_512_nolookup+0x4a>
    83a0:	69 81       	ldd	r22, Y+1	; 0x01
    83a2:	7a 81       	ldd	r23, Y+2	; 0x02
    83a4:	89 85       	ldd	r24, Y+9	; 0x09
    83a6:	9a 85       	ldd	r25, Y+10	; 0x0a
    83a8:	60 96       	adiw	r28, 0x10	; 16
    83aa:	cd bf       	out	0x3d, r28	; 61
    83ac:	de bf       	out	0x3e, r29	; 62
    83ae:	df 91       	pop	r29
    83b0:	cf 91       	pop	r28
    83b2:	1f 91       	pop	r17
    83b4:	0f 91       	pop	r16
    83b6:	ff 90       	pop	r15
    83b8:	ef 90       	pop	r14
    83ba:	df 90       	pop	r13
    83bc:	cf 90       	pop	r12
    83be:	bf 90       	pop	r11
    83c0:	af 90       	pop	r10
    83c2:	9f 90       	pop	r9
    83c4:	8f 90       	pop	r8
    83c6:	7f 90       	pop	r7
    83c8:	6f 90       	pop	r6
    83ca:	5f 90       	pop	r5
    83cc:	4f 90       	pop	r4
    83ce:	3f 90       	pop	r3
    83d0:	2f 90       	pop	r2
    83d2:	0c 94 28 41 	jmp	0x8250	; 0x8250 <last_stage_CT_12289_512>
    83d6:	f8 01       	movw	r30, r16
    83d8:	60 81       	ld	r22, Z
    83da:	71 81       	ldd	r23, Z+1	; 0x01
    83dc:	8d 85       	ldd	r24, Y+13	; 0x0d
    83de:	9e 85       	ldd	r25, Y+14	; 0x0e
    83e0:	0e 94 c1 2c 	call	0x5982	; 0x5982 <mm12289>
    83e4:	9c 01       	movw	r18, r24
    83e6:	ef 85       	ldd	r30, Y+15	; 0x0f
    83e8:	f8 89       	ldd	r31, Y+16	; 0x10
    83ea:	80 81       	ld	r24, Z
    83ec:	91 81       	ldd	r25, Z+1	; 0x01
    83ee:	82 1b       	sub	r24, r18
    83f0:	93 0b       	sbc	r25, r19
    83f2:	97 fd       	sbrc	r25, 7
    83f4:	1c c0       	rjmp	.+56     	; 0x842e <ntt_CT_no_to_bo_incl_psi_12289_512_nolookup+0x16e>
    83f6:	f8 01       	movw	r30, r16
    83f8:	80 83       	st	Z, r24
    83fa:	91 83       	std	Z+1, r25	; 0x01
    83fc:	ef 85       	ldd	r30, Y+15	; 0x0f
    83fe:	f8 89       	ldd	r31, Y+16	; 0x10
    8400:	80 81       	ld	r24, Z
    8402:	91 81       	ldd	r25, Z+1	; 0x01
    8404:	28 0f       	add	r18, r24
    8406:	39 1f       	adc	r19, r25
    8408:	21 30       	cpi	r18, 0x01	; 1
    840a:	f0 e3       	ldi	r31, 0x30	; 48
    840c:	3f 07       	cpc	r19, r31
    840e:	94 f4       	brge	.+36     	; 0x8434 <ntt_CT_no_to_bo_incl_psi_12289_512_nolookup+0x174>
    8410:	ef 85       	ldd	r30, Y+15	; 0x0f
    8412:	f8 89       	ldd	r31, Y+16	; 0x10
    8414:	20 83       	st	Z, r18
    8416:	31 83       	std	Z+1, r19	; 0x01
    8418:	ff ef       	ldi	r31, 0xFF	; 255
    841a:	6f 1a       	sub	r6, r31
    841c:	7f 0a       	sbc	r7, r31
    841e:	8f 85       	ldd	r24, Y+15	; 0x0f
    8420:	98 89       	ldd	r25, Y+16	; 0x10
    8422:	02 96       	adiw	r24, 0x02	; 2
    8424:	8f 87       	std	Y+15, r24	; 0x0f
    8426:	98 8b       	std	Y+16, r25	; 0x10
    8428:	0e 5f       	subi	r16, 0xFE	; 254
    842a:	1f 4f       	sbci	r17, 0xFF	; 255
    842c:	95 cf       	rjmp	.-214    	; 0x8358 <ntt_CT_no_to_bo_incl_psi_12289_512_nolookup+0x98>
    842e:	8f 5f       	subi	r24, 0xFF	; 255
    8430:	9f 4c       	sbci	r25, 0xCF	; 207
    8432:	e1 cf       	rjmp	.-62     	; 0x83f6 <ntt_CT_no_to_bo_incl_psi_12289_512_nolookup+0x136>
    8434:	21 50       	subi	r18, 0x01	; 1
    8436:	30 43       	sbci	r19, 0x30	; 48
    8438:	eb cf       	rjmp	.-42     	; 0x8410 <ntt_CT_no_to_bo_incl_psi_12289_512_nolookup+0x150>

0000843a <ntt_CT_no_to_bo_incl_psi_12289_512>:
    843a:	2f 92       	push	r2
    843c:	3f 92       	push	r3
    843e:	4f 92       	push	r4
    8440:	5f 92       	push	r5
    8442:	6f 92       	push	r6
    8444:	7f 92       	push	r7
    8446:	8f 92       	push	r8
    8448:	9f 92       	push	r9
    844a:	af 92       	push	r10
    844c:	bf 92       	push	r11
    844e:	cf 92       	push	r12
    8450:	df 92       	push	r13
    8452:	ef 92       	push	r14
    8454:	ff 92       	push	r15
    8456:	0f 93       	push	r16
    8458:	1f 93       	push	r17
    845a:	cf 93       	push	r28
    845c:	df 93       	push	r29
    845e:	cd b7       	in	r28, 0x3d	; 61
    8460:	de b7       	in	r29, 0x3e	; 62
    8462:	60 97       	sbiw	r28, 0x10	; 16
    8464:	cd bf       	out	0x3d, r28	; 61
    8466:	de bf       	out	0x3e, r29	; 62
    8468:	1c 01       	movw	r2, r24
    846a:	69 83       	std	Y+1, r22	; 0x01
    846c:	7a 83       	std	Y+2, r23	; 0x02
    846e:	0e 94 b2 40 	call	0x8164	; 0x8164 <first_stage_CT_12289_512>
    8472:	87 e0       	ldi	r24, 0x07	; 7
    8474:	90 e0       	ldi	r25, 0x00	; 0
    8476:	8b 83       	std	Y+3, r24	; 0x03
    8478:	9c 83       	std	Y+4, r25	; 0x04
    847a:	32 e0       	ldi	r19, 0x02	; 2
    847c:	83 2e       	mov	r8, r19
    847e:	91 2c       	mov	r9, r1
    8480:	40 e8       	ldi	r20, 0x80	; 128
    8482:	c4 2e       	mov	r12, r20
    8484:	d1 2c       	mov	r13, r1
    8486:	8b 86       	std	Y+11, r8	; 0x0b
    8488:	9c 86       	std	Y+12, r9	; 0x0c
    848a:	88 0c       	add	r8, r8
    848c:	99 1c       	adc	r9, r9
    848e:	e9 81       	ldd	r30, Y+1	; 0x01
    8490:	fa 81       	ldd	r31, Y+2	; 0x02
    8492:	e8 0d       	add	r30, r8
    8494:	f9 1d       	adc	r31, r9
    8496:	ed 83       	std	Y+5, r30	; 0x05
    8498:	fe 83       	std	Y+6, r31	; 0x06
    849a:	56 01       	movw	r10, r12
    849c:	aa 0c       	add	r10, r10
    849e:	bb 1c       	adc	r11, r11
    84a0:	2f 86       	std	Y+15, r2	; 0x0f
    84a2:	38 8a       	std	Y+16, r3	; 0x10
    84a4:	c6 01       	movw	r24, r12
    84a6:	01 97       	sbiw	r24, 0x01	; 1
    84a8:	8f 83       	std	Y+7, r24	; 0x07
    84aa:	98 87       	std	Y+8, r25	; 0x08
    84ac:	51 2c       	mov	r5, r1
    84ae:	41 2c       	mov	r4, r1
    84b0:	f1 2c       	mov	r15, r1
    84b2:	e1 2c       	mov	r14, r1
    84b4:	ed 81       	ldd	r30, Y+5	; 0x05
    84b6:	fe 81       	ldd	r31, Y+6	; 0x06
    84b8:	85 91       	lpm	r24, Z+
    84ba:	94 91       	lpm	r25, Z
    84bc:	8d 87       	std	Y+13, r24	; 0x0d
    84be:	9e 87       	std	Y+14, r25	; 0x0e
    84c0:	ef 85       	ldd	r30, Y+15	; 0x0f
    84c2:	f8 89       	ldd	r31, Y+16	; 0x10
    84c4:	ea 0d       	add	r30, r10
    84c6:	fb 1d       	adc	r31, r11
    84c8:	e9 87       	std	Y+9, r30	; 0x09
    84ca:	fa 87       	std	Y+10, r31	; 0x0a
    84cc:	8f 01       	movw	r16, r30
    84ce:	32 01       	movw	r6, r4
    84d0:	ef 81       	ldd	r30, Y+7	; 0x07
    84d2:	f8 85       	ldd	r31, Y+8	; 0x08
    84d4:	e6 15       	cp	r30, r6
    84d6:	f7 05       	cpc	r31, r7
    84d8:	08 f0       	brcs	.+2      	; 0x84dc <ntt_CT_no_to_bo_incl_psi_12289_512+0xa2>
    84da:	3f c0       	rjmp	.+126    	; 0x855a <ntt_CT_no_to_bo_incl_psi_12289_512+0x120>
    84dc:	ff ef       	ldi	r31, 0xFF	; 255
    84de:	ef 1a       	sub	r14, r31
    84e0:	ff 0a       	sbc	r15, r31
    84e2:	8d 81       	ldd	r24, Y+5	; 0x05
    84e4:	9e 81       	ldd	r25, Y+6	; 0x06
    84e6:	02 96       	adiw	r24, 0x02	; 2
    84e8:	8d 83       	std	Y+5, r24	; 0x05
    84ea:	9e 83       	std	Y+6, r25	; 0x06
    84ec:	4a 0c       	add	r4, r10
    84ee:	5b 1c       	adc	r5, r11
    84f0:	e9 85       	ldd	r30, Y+9	; 0x09
    84f2:	fa 85       	ldd	r31, Y+10	; 0x0a
    84f4:	ea 0d       	add	r30, r10
    84f6:	fb 1d       	adc	r31, r11
    84f8:	ef 87       	std	Y+15, r30	; 0x0f
    84fa:	f8 8b       	std	Y+16, r31	; 0x10
    84fc:	8f 81       	ldd	r24, Y+7	; 0x07
    84fe:	98 85       	ldd	r25, Y+8	; 0x08
    8500:	8a 0d       	add	r24, r10
    8502:	9b 1d       	adc	r25, r11
    8504:	8f 83       	std	Y+7, r24	; 0x07
    8506:	98 87       	std	Y+8, r25	; 0x08
    8508:	eb 85       	ldd	r30, Y+11	; 0x0b
    850a:	fc 85       	ldd	r31, Y+12	; 0x0c
    850c:	ee 16       	cp	r14, r30
    850e:	ff 06       	cpc	r15, r31
    8510:	89 f6       	brne	.-94     	; 0x84b4 <ntt_CT_no_to_bo_incl_psi_12289_512+0x7a>
    8512:	d6 94       	lsr	r13
    8514:	c7 94       	ror	r12
    8516:	8b 81       	ldd	r24, Y+3	; 0x03
    8518:	9c 81       	ldd	r25, Y+4	; 0x04
    851a:	01 97       	sbiw	r24, 0x01	; 1
    851c:	8b 83       	std	Y+3, r24	; 0x03
    851e:	9c 83       	std	Y+4, r25	; 0x04
    8520:	89 2b       	or	r24, r25
    8522:	09 f0       	breq	.+2      	; 0x8526 <ntt_CT_no_to_bo_incl_psi_12289_512+0xec>
    8524:	b0 cf       	rjmp	.-160    	; 0x8486 <ntt_CT_no_to_bo_incl_psi_12289_512+0x4c>
    8526:	69 81       	ldd	r22, Y+1	; 0x01
    8528:	7a 81       	ldd	r23, Y+2	; 0x02
    852a:	c1 01       	movw	r24, r2
    852c:	60 96       	adiw	r28, 0x10	; 16
    852e:	cd bf       	out	0x3d, r28	; 61
    8530:	de bf       	out	0x3e, r29	; 62
    8532:	df 91       	pop	r29
    8534:	cf 91       	pop	r28
    8536:	1f 91       	pop	r17
    8538:	0f 91       	pop	r16
    853a:	ff 90       	pop	r15
    853c:	ef 90       	pop	r14
    853e:	df 90       	pop	r13
    8540:	cf 90       	pop	r12
    8542:	bf 90       	pop	r11
    8544:	af 90       	pop	r10
    8546:	9f 90       	pop	r9
    8548:	8f 90       	pop	r8
    854a:	7f 90       	pop	r7
    854c:	6f 90       	pop	r6
    854e:	5f 90       	pop	r5
    8550:	4f 90       	pop	r4
    8552:	3f 90       	pop	r3
    8554:	2f 90       	pop	r2
    8556:	0c 94 28 41 	jmp	0x8250	; 0x8250 <last_stage_CT_12289_512>
    855a:	f8 01       	movw	r30, r16
    855c:	60 81       	ld	r22, Z
    855e:	71 81       	ldd	r23, Z+1	; 0x01
    8560:	8d 85       	ldd	r24, Y+13	; 0x0d
    8562:	9e 85       	ldd	r25, Y+14	; 0x0e
    8564:	0e 94 c1 2c 	call	0x5982	; 0x5982 <mm12289>
    8568:	9c 01       	movw	r18, r24
    856a:	ef 85       	ldd	r30, Y+15	; 0x0f
    856c:	f8 89       	ldd	r31, Y+16	; 0x10
    856e:	80 81       	ld	r24, Z
    8570:	91 81       	ldd	r25, Z+1	; 0x01
    8572:	82 1b       	sub	r24, r18
    8574:	93 0b       	sbc	r25, r19
    8576:	97 fd       	sbrc	r25, 7
    8578:	1c c0       	rjmp	.+56     	; 0x85b2 <ntt_CT_no_to_bo_incl_psi_12289_512+0x178>
    857a:	f8 01       	movw	r30, r16
    857c:	80 83       	st	Z, r24
    857e:	91 83       	std	Z+1, r25	; 0x01
    8580:	ef 85       	ldd	r30, Y+15	; 0x0f
    8582:	f8 89       	ldd	r31, Y+16	; 0x10
    8584:	80 81       	ld	r24, Z
    8586:	91 81       	ldd	r25, Z+1	; 0x01
    8588:	28 0f       	add	r18, r24
    858a:	39 1f       	adc	r19, r25
    858c:	21 30       	cpi	r18, 0x01	; 1
    858e:	f0 e3       	ldi	r31, 0x30	; 48
    8590:	3f 07       	cpc	r19, r31
    8592:	94 f4       	brge	.+36     	; 0x85b8 <ntt_CT_no_to_bo_incl_psi_12289_512+0x17e>
    8594:	ef 85       	ldd	r30, Y+15	; 0x0f
    8596:	f8 89       	ldd	r31, Y+16	; 0x10
    8598:	20 83       	st	Z, r18
    859a:	31 83       	std	Z+1, r19	; 0x01
    859c:	ff ef       	ldi	r31, 0xFF	; 255
    859e:	6f 1a       	sub	r6, r31
    85a0:	7f 0a       	sbc	r7, r31
    85a2:	8f 85       	ldd	r24, Y+15	; 0x0f
    85a4:	98 89       	ldd	r25, Y+16	; 0x10
    85a6:	02 96       	adiw	r24, 0x02	; 2
    85a8:	8f 87       	std	Y+15, r24	; 0x0f
    85aa:	98 8b       	std	Y+16, r25	; 0x10
    85ac:	0e 5f       	subi	r16, 0xFE	; 254
    85ae:	1f 4f       	sbci	r17, 0xFF	; 255
    85b0:	8f cf       	rjmp	.-226    	; 0x84d0 <ntt_CT_no_to_bo_incl_psi_12289_512+0x96>
    85b2:	8f 5f       	subi	r24, 0xFF	; 255
    85b4:	9f 4c       	sbci	r25, 0xCF	; 207
    85b6:	e1 cf       	rjmp	.-62     	; 0x857a <ntt_CT_no_to_bo_incl_psi_12289_512+0x140>
    85b8:	21 50       	subi	r18, 0x01	; 1
    85ba:	30 43       	sbci	r19, 0x30	; 48
    85bc:	eb cf       	rjmp	.-42     	; 0x8594 <ntt_CT_no_to_bo_incl_psi_12289_512+0x15a>

000085be <pw_psi_12289>:
    85be:	cf 92       	push	r12
    85c0:	df 92       	push	r13
    85c2:	ef 92       	push	r14
    85c4:	ff 92       	push	r15
    85c6:	0f 93       	push	r16
    85c8:	1f 93       	push	r17
    85ca:	cf 93       	push	r28
    85cc:	df 93       	push	r29
    85ce:	8b 01       	movw	r16, r22
    85d0:	7a 01       	movw	r14, r20
    85d2:	ec 01       	movw	r28, r24
    85d4:	6c 01       	movw	r12, r24
    85d6:	8c ef       	ldi	r24, 0xFC	; 252
    85d8:	d8 1a       	sub	r13, r24
    85da:	b8 01       	movw	r22, r16
    85dc:	89 91       	ld	r24, Y+
    85de:	99 91       	ld	r25, Y+
    85e0:	0e 94 c1 2c 	call	0x5982	; 0x5982 <mm12289>
    85e4:	fe 01       	movw	r30, r28
    85e6:	32 97       	sbiw	r30, 0x02	; 2
    85e8:	80 83       	st	Z, r24
    85ea:	91 83       	std	Z+1, r25	; 0x01
    85ec:	b7 01       	movw	r22, r14
    85ee:	c8 01       	movw	r24, r16
    85f0:	0e 94 c1 2c 	call	0x5982	; 0x5982 <mm12289>
    85f4:	8c 01       	movw	r16, r24
    85f6:	cc 15       	cp	r28, r12
    85f8:	dd 05       	cpc	r29, r13
    85fa:	79 f7       	brne	.-34     	; 0x85da <pw_psi_12289+0x1c>
    85fc:	df 91       	pop	r29
    85fe:	cf 91       	pop	r28
    8600:	1f 91       	pop	r17
    8602:	0f 91       	pop	r16
    8604:	ff 90       	pop	r15
    8606:	ef 90       	pop	r14
    8608:	df 90       	pop	r13
    860a:	cf 90       	pop	r12
    860c:	08 95       	ret

0000860e <pw_mul_flash_12289_512>:
    860e:	ef 92       	push	r14
    8610:	ff 92       	push	r15
    8612:	0f 93       	push	r16
    8614:	1f 93       	push	r17
    8616:	cf 93       	push	r28
    8618:	df 93       	push	r29
    861a:	8b 01       	movw	r16, r22
    861c:	ec 01       	movw	r28, r24
    861e:	7c 01       	movw	r14, r24
    8620:	8c ef       	ldi	r24, 0xFC	; 252
    8622:	f8 1a       	sub	r15, r24
    8624:	f8 01       	movw	r30, r16
    8626:	85 91       	lpm	r24, Z+
    8628:	94 91       	lpm	r25, Z
    862a:	69 91       	ld	r22, Y+
    862c:	79 91       	ld	r23, Y+
    862e:	0e 94 c1 2c 	call	0x5982	; 0x5982 <mm12289>
    8632:	fe 01       	movw	r30, r28
    8634:	32 97       	sbiw	r30, 0x02	; 2
    8636:	80 83       	st	Z, r24
    8638:	91 83       	std	Z+1, r25	; 0x01
    863a:	0e 5f       	subi	r16, 0xFE	; 254
    863c:	1f 4f       	sbci	r17, 0xFF	; 255
    863e:	ce 15       	cp	r28, r14
    8640:	df 05       	cpc	r29, r15
    8642:	81 f7       	brne	.-32     	; 0x8624 <pw_mul_flash_12289_512+0x16>
    8644:	df 91       	pop	r29
    8646:	cf 91       	pop	r28
    8648:	1f 91       	pop	r17
    864a:	0f 91       	pop	r16
    864c:	ff 90       	pop	r15
    864e:	ef 90       	pop	r14
    8650:	08 95       	ret

00008652 <add_12289>:
    8652:	cf 92       	push	r12
    8654:	df 92       	push	r13
    8656:	ef 92       	push	r14
    8658:	ff 92       	push	r15
    865a:	0f 93       	push	r16
    865c:	1f 93       	push	r17
    865e:	cf 93       	push	r28
    8660:	df 93       	push	r29
    8662:	ec 01       	movw	r28, r24
    8664:	7b 01       	movw	r14, r22
    8666:	8a 01       	movw	r16, r20
    8668:	6c 01       	movw	r12, r24
    866a:	8c ef       	ldi	r24, 0xFC	; 252
    866c:	d8 1a       	sub	r13, r24
    866e:	89 91       	ld	r24, Y+
    8670:	99 91       	ld	r25, Y+
    8672:	f7 01       	movw	r30, r14
    8674:	21 91       	ld	r18, Z+
    8676:	31 91       	ld	r19, Z+
    8678:	7f 01       	movw	r14, r30
    867a:	82 0f       	add	r24, r18
    867c:	93 1f       	adc	r25, r19
    867e:	f8 01       	movw	r30, r16
    8680:	81 93       	st	Z+, r24
    8682:	91 93       	st	Z+, r25
    8684:	8f 01       	movw	r16, r30
    8686:	0e 94 06 2d 	call	0x5a0c	; 0x5a0c <mod12289>
    868a:	f8 01       	movw	r30, r16
    868c:	32 97       	sbiw	r30, 0x02	; 2
    868e:	80 83       	st	Z, r24
    8690:	91 83       	std	Z+1, r25	; 0x01
    8692:	cc 15       	cp	r28, r12
    8694:	dd 05       	cpc	r29, r13
    8696:	59 f7       	brne	.-42     	; 0x866e <add_12289+0x1c>
    8698:	df 91       	pop	r29
    869a:	cf 91       	pop	r28
    869c:	1f 91       	pop	r17
    869e:	0f 91       	pop	r16
    86a0:	ff 90       	pop	r15
    86a2:	ef 90       	pop	r14
    86a4:	df 90       	pop	r13
    86a6:	cf 90       	pop	r12
    86a8:	08 95       	ret

000086aa <add_encode_12289_512>:
    86aa:	ac 01       	movw	r20, r24
    86ac:	fb 01       	movw	r30, r22
    86ae:	90 e0       	ldi	r25, 0x00	; 0
    86b0:	80 e0       	ldi	r24, 0x00	; 0
    86b2:	dc 01       	movw	r26, r24
    86b4:	23 e0       	ldi	r18, 0x03	; 3
    86b6:	b6 95       	lsr	r27
    86b8:	a7 95       	ror	r26
    86ba:	2a 95       	dec	r18
    86bc:	e1 f7       	brne	.-8      	; 0x86b6 <add_encode_12289_512+0xc>
    86be:	a4 0f       	add	r26, r20
    86c0:	b5 1f       	adc	r27, r21
    86c2:	2c 91       	ld	r18, X
    86c4:	30 e0       	ldi	r19, 0x00	; 0
    86c6:	bc 01       	movw	r22, r24
    86c8:	67 70       	andi	r22, 0x07	; 7
    86ca:	77 27       	eor	r23, r23
    86cc:	02 c0       	rjmp	.+4      	; 0x86d2 <add_encode_12289_512+0x28>
    86ce:	35 95       	asr	r19
    86d0:	27 95       	ror	r18
    86d2:	6a 95       	dec	r22
    86d4:	e2 f7       	brpl	.-8      	; 0x86ce <add_encode_12289_512+0x24>
    86d6:	20 ff       	sbrs	r18, 0
    86d8:	0a c0       	rjmp	.+20     	; 0x86ee <add_encode_12289_512+0x44>
    86da:	20 81       	ld	r18, Z
    86dc:	31 81       	ldd	r19, Z+1	; 0x01
    86de:	b9 01       	movw	r22, r18
    86e0:	78 5e       	subi	r23, 0xE8	; 232
    86e2:	62 30       	cpi	r22, 0x02	; 2
    86e4:	a0 e3       	ldi	r26, 0x30	; 48
    86e6:	7a 07       	cpc	r23, r26
    86e8:	48 f4       	brcc	.+18     	; 0x86fc <add_encode_12289_512+0x52>
    86ea:	60 83       	st	Z, r22
    86ec:	71 83       	std	Z+1, r23	; 0x01
    86ee:	32 96       	adiw	r30, 0x02	; 2
    86f0:	8f 3f       	cpi	r24, 0xFF	; 255
    86f2:	21 e0       	ldi	r18, 0x01	; 1
    86f4:	92 07       	cpc	r25, r18
    86f6:	39 f0       	breq	.+14     	; 0x8706 <add_encode_12289_512+0x5c>
    86f8:	01 96       	adiw	r24, 0x01	; 1
    86fa:	db cf       	rjmp	.-74     	; 0x86b2 <add_encode_12289_512+0x8>
    86fc:	21 50       	subi	r18, 0x01	; 1
    86fe:	38 41       	sbci	r19, 0x18	; 24
    8700:	20 83       	st	Z, r18
    8702:	31 83       	std	Z+1, r19	; 0x01
    8704:	f4 cf       	rjmp	.-24     	; 0x86ee <add_encode_12289_512+0x44>
    8706:	08 95       	ret

00008708 <encrypt_12289_512>:
    8708:	4f 92       	push	r4
    870a:	5f 92       	push	r5
    870c:	6f 92       	push	r6
    870e:	7f 92       	push	r7
    8710:	8f 92       	push	r8
    8712:	9f 92       	push	r9
    8714:	af 92       	push	r10
    8716:	bf 92       	push	r11
    8718:	cf 92       	push	r12
    871a:	df 92       	push	r13
    871c:	ef 92       	push	r14
    871e:	ff 92       	push	r15
    8720:	0f 93       	push	r16
    8722:	1f 93       	push	r17
    8724:	cf 93       	push	r28
    8726:	df 93       	push	r29
    8728:	2c 01       	movw	r4, r24
    872a:	d6 2f       	mov	r29, r22
    872c:	c7 2f       	mov	r28, r23
    872e:	3a 01       	movw	r6, r20
    8730:	59 01       	movw	r10, r18
    8732:	68 01       	movw	r12, r16
    8734:	70 e0       	ldi	r23, 0x00	; 0
    8736:	60 e0       	ldi	r22, 0x00	; 0
    8738:	8d 2f       	mov	r24, r29
    873a:	9c 2f       	mov	r25, r28
    873c:	0e 94 24 3f 	call	0x7e48	; 0x7e48 <get_gauss_poly_12289_512>
    8740:	70 e0       	ldi	r23, 0x00	; 0
    8742:	60 e0       	ldi	r22, 0x00	; 0
    8744:	c3 01       	movw	r24, r6
    8746:	0e 94 24 3f 	call	0x7e48	; 0x7e48 <get_gauss_poly_12289_512>
    874a:	64 eb       	ldi	r22, 0xB4	; 180
    874c:	72 e1       	ldi	r23, 0x12	; 18
    874e:	8d 2f       	mov	r24, r29
    8750:	9c 2f       	mov	r25, r28
    8752:	0e 94 1d 42 	call	0x843a	; 0x843a <ntt_CT_no_to_bo_incl_psi_12289_512>
    8756:	64 eb       	ldi	r22, 0xB4	; 180
    8758:	72 e1       	ldi	r23, 0x12	; 18
    875a:	c3 01       	movw	r24, r6
    875c:	0e 94 1d 42 	call	0x843a	; 0x843a <ntt_CT_no_to_bo_incl_psi_12289_512>
    8760:	ed 2e       	mov	r14, r29
    8762:	fc 2e       	mov	r15, r28
    8764:	83 01       	movw	r16, r6
    8766:	d0 e0       	ldi	r29, 0x00	; 0
    8768:	c0 e0       	ldi	r28, 0x00	; 0
    876a:	d7 01       	movw	r26, r14
    876c:	8d 90       	ld	r8, X+
    876e:	9d 90       	ld	r9, X+
    8770:	7d 01       	movw	r14, r26
    8772:	f5 01       	movw	r30, r10
    8774:	ec 0f       	add	r30, r28
    8776:	fd 1f       	adc	r31, r29
    8778:	65 91       	lpm	r22, Z+
    877a:	74 91       	lpm	r23, Z
    877c:	c4 01       	movw	r24, r8
    877e:	0e 94 c1 2c 	call	0x5982	; 0x5982 <mm12289>
    8782:	9c 01       	movw	r18, r24
    8784:	f7 01       	movw	r30, r14
    8786:	92 93       	st	-Z, r25
    8788:	82 93       	st	-Z, r24
    878a:	d8 01       	movw	r26, r16
    878c:	8d 91       	ld	r24, X+
    878e:	9d 91       	ld	r25, X+
    8790:	8d 01       	movw	r16, r26
    8792:	28 0f       	add	r18, r24
    8794:	39 1f       	adc	r19, r25
    8796:	21 30       	cpi	r18, 0x01	; 1
    8798:	b0 e3       	ldi	r27, 0x30	; 48
    879a:	3b 07       	cpc	r19, r27
    879c:	10 f0       	brcs	.+4      	; 0x87a2 <encrypt_12289_512+0x9a>
    879e:	21 50       	subi	r18, 0x01	; 1
    87a0:	30 43       	sbci	r19, 0x30	; 48
    87a2:	20 83       	st	Z, r18
    87a4:	31 83       	std	Z+1, r19	; 0x01
    87a6:	f6 01       	movw	r30, r12
    87a8:	ec 0f       	add	r30, r28
    87aa:	fd 1f       	adc	r31, r29
    87ac:	65 91       	lpm	r22, Z+
    87ae:	74 91       	lpm	r23, Z
    87b0:	c4 01       	movw	r24, r8
    87b2:	0e 94 c1 2c 	call	0x5982	; 0x5982 <mm12289>
    87b6:	f8 01       	movw	r30, r16
    87b8:	32 97       	sbiw	r30, 0x02	; 2
    87ba:	80 83       	st	Z, r24
    87bc:	91 83       	std	Z+1, r25	; 0x01
    87be:	22 96       	adiw	r28, 0x02	; 2
    87c0:	c1 15       	cp	r28, r1
    87c2:	e4 e0       	ldi	r30, 0x04	; 4
    87c4:	de 07       	cpc	r29, r30
    87c6:	89 f6       	brne	.-94     	; 0x876a <encrypt_12289_512+0x62>
    87c8:	64 eb       	ldi	r22, 0xB4	; 180
    87ca:	7e e0       	ldi	r23, 0x0E	; 14
    87cc:	c3 01       	movw	r24, r6
    87ce:	0e 94 00 40 	call	0x8000	; 0x8000 <ntt_GS_bo_to_no_incl_invpsi_12289_512>
    87d2:	61 e0       	ldi	r22, 0x01	; 1
    87d4:	70 e0       	ldi	r23, 0x00	; 0
    87d6:	c3 01       	movw	r24, r6
    87d8:	0e 94 24 3f 	call	0x7e48	; 0x7e48 <get_gauss_poly_12289_512>
    87dc:	b3 01       	movw	r22, r6
    87de:	c2 01       	movw	r24, r4
    87e0:	df 91       	pop	r29
    87e2:	cf 91       	pop	r28
    87e4:	1f 91       	pop	r17
    87e6:	0f 91       	pop	r16
    87e8:	ff 90       	pop	r15
    87ea:	ef 90       	pop	r14
    87ec:	df 90       	pop	r13
    87ee:	cf 90       	pop	r12
    87f0:	bf 90       	pop	r11
    87f2:	af 90       	pop	r10
    87f4:	9f 90       	pop	r9
    87f6:	8f 90       	pop	r8
    87f8:	7f 90       	pop	r7
    87fa:	6f 90       	pop	r6
    87fc:	5f 90       	pop	r5
    87fe:	4f 90       	pop	r4
    8800:	0c 94 55 43 	jmp	0x86aa	; 0x86aa <add_encode_12289_512>

00008804 <decode_12289_512>:
    8804:	cf 93       	push	r28
    8806:	df 93       	push	r29
    8808:	9b 01       	movw	r18, r22
    880a:	fc 01       	movw	r30, r24
    880c:	90 e0       	ldi	r25, 0x00	; 0
    880e:	80 e0       	ldi	r24, 0x00	; 0
    8810:	61 e0       	ldi	r22, 0x01	; 1
    8812:	70 e0       	ldi	r23, 0x00	; 0
    8814:	41 91       	ld	r20, Z+
    8816:	51 91       	ld	r21, Z+
    8818:	5c 50       	subi	r21, 0x0C	; 12
    881a:	41 15       	cp	r20, r1
    881c:	58 41       	sbci	r21, 0x18	; 24
    881e:	98 f4       	brcc	.+38     	; 0x8846 <decode_12289_512+0x42>
    8820:	dc 01       	movw	r26, r24
    8822:	43 e0       	ldi	r20, 0x03	; 3
    8824:	b6 95       	lsr	r27
    8826:	a7 95       	ror	r26
    8828:	4a 95       	dec	r20
    882a:	e1 f7       	brne	.-8      	; 0x8824 <decode_12289_512+0x20>
    882c:	a2 0f       	add	r26, r18
    882e:	b3 1f       	adc	r27, r19
    8830:	ac 01       	movw	r20, r24
    8832:	47 70       	andi	r20, 0x07	; 7
    8834:	55 27       	eor	r21, r21
    8836:	eb 01       	movw	r28, r22
    8838:	01 c0       	rjmp	.+2      	; 0x883c <decode_12289_512+0x38>
    883a:	cc 0f       	add	r28, r28
    883c:	4a 95       	dec	r20
    883e:	ea f7       	brpl	.-6      	; 0x883a <decode_12289_512+0x36>
    8840:	4c 91       	ld	r20, X
    8842:	4c 2b       	or	r20, r28
    8844:	4c 93       	st	X, r20
    8846:	8f 3f       	cpi	r24, 0xFF	; 255
    8848:	a1 e0       	ldi	r26, 0x01	; 1
    884a:	9a 07       	cpc	r25, r26
    884c:	11 f0       	breq	.+4      	; 0x8852 <decode_12289_512+0x4e>
    884e:	01 96       	adiw	r24, 0x01	; 1
    8850:	e1 cf       	rjmp	.-62     	; 0x8814 <decode_12289_512+0x10>
    8852:	df 91       	pop	r29
    8854:	cf 91       	pop	r28
    8856:	08 95       	ret

00008858 <decrypt_12289_512>:
    8858:	ef 92       	push	r14
    885a:	ff 92       	push	r15
    885c:	0f 93       	push	r16
    885e:	1f 93       	push	r17
    8860:	cf 93       	push	r28
    8862:	df 93       	push	r29
    8864:	8c 01       	movw	r16, r24
    8866:	d6 2f       	mov	r29, r22
    8868:	c7 2f       	mov	r28, r23
    886a:	7a 01       	movw	r14, r20
    886c:	b9 01       	movw	r22, r18
    886e:	8d 2f       	mov	r24, r29
    8870:	9c 2f       	mov	r25, r28
    8872:	0e 94 07 43 	call	0x860e	; 0x860e <pw_mul_flash_12289_512>
    8876:	64 eb       	ldi	r22, 0xB4	; 180
    8878:	7e e0       	ldi	r23, 0x0E	; 14
    887a:	8d 2f       	mov	r24, r29
    887c:	9c 2f       	mov	r25, r28
    887e:	0e 94 00 40 	call	0x8000	; 0x8000 <ntt_GS_bo_to_no_incl_invpsi_12289_512>
    8882:	4d 2f       	mov	r20, r29
    8884:	5c 2f       	mov	r21, r28
    8886:	b7 01       	movw	r22, r14
    8888:	8d 2f       	mov	r24, r29
    888a:	9c 2f       	mov	r25, r28
    888c:	0e 94 29 43 	call	0x8652	; 0x8652 <add_12289>
    8890:	b8 01       	movw	r22, r16
    8892:	8d 2f       	mov	r24, r29
    8894:	9c 2f       	mov	r25, r28
    8896:	df 91       	pop	r29
    8898:	cf 91       	pop	r28
    889a:	1f 91       	pop	r17
    889c:	0f 91       	pop	r16
    889e:	ff 90       	pop	r15
    88a0:	ef 90       	pop	r14
    88a2:	0c 94 02 44 	jmp	0x8804	; 0x8804 <decode_12289_512>

000088a6 <uart_putchar>:
    88a6:	90 91 a1 08 	lds	r25, 0x08A1	; 0x8008a1 <__TEXT_REGION_LENGTH__+0x7008a1>
    88aa:	95 ff       	sbrs	r25, 5
    88ac:	fc cf       	rjmp	.-8      	; 0x88a6 <uart_putchar>
    88ae:	80 93 a0 08 	sts	0x08A0, r24	; 0x8008a0 <__TEXT_REGION_LENGTH__+0x7008a0>
    88b2:	08 95       	ret

000088b4 <USARTinit>:
    88b4:	e0 e4       	ldi	r30, 0x40	; 64
    88b6:	f6 e0       	ldi	r31, 0x06	; 6
    88b8:	88 e0       	ldi	r24, 0x08	; 8
    88ba:	81 83       	std	Z+1, r24	; 0x01
    88bc:	84 e0       	ldi	r24, 0x04	; 4
    88be:	82 83       	std	Z+2, r24	; 0x02
    88c0:	e0 ea       	ldi	r30, 0xA0	; 160
    88c2:	f8 e0       	ldi	r31, 0x08	; 8
    88c4:	83 e0       	ldi	r24, 0x03	; 3
    88c6:	85 83       	std	Z+5, r24	; 0x05
    88c8:	8f ec       	ldi	r24, 0xCF	; 207
    88ca:	86 83       	std	Z+6, r24	; 0x06
    88cc:	17 82       	std	Z+7, r1	; 0x07
    88ce:	84 81       	ldd	r24, Z+4	; 0x04
    88d0:	80 61       	ori	r24, 0x10	; 16
    88d2:	84 83       	std	Z+4, r24	; 0x04
    88d4:	84 81       	ldd	r24, Z+4	; 0x04
    88d6:	88 60       	ori	r24, 0x08	; 8
    88d8:	84 83       	std	Z+4, r24	; 0x04
    88da:	88 e0       	ldi	r24, 0x08	; 8
    88dc:	90 e2       	ldi	r25, 0x20	; 32
    88de:	80 93 64 24 	sts	0x2464, r24	; 0x802464 <__iob+0x2>
    88e2:	90 93 65 24 	sts	0x2465, r25	; 0x802465 <__iob+0x3>
    88e6:	08 95       	ret

000088e8 <CCPWrite>:
    88e8:	0f 93       	push	r16
    88ea:	cf 93       	push	r28
    88ec:	df 93       	push	r29
    88ee:	0f 92       	push	r0
    88f0:	cd b7       	in	r28, 0x3d	; 61
    88f2:	de b7       	in	r29, 0x3e	; 62
    88f4:	9c 01       	movw	r18, r24
    88f6:	8f b7       	in	r24, 0x3f	; 63
    88f8:	89 83       	std	Y+1, r24	; 0x01
    88fa:	f8 94       	cli
    88fc:	1b be       	out	0x3b, r1	; 59
    88fe:	f9 01       	movw	r30, r18
    8900:	08 ed       	ldi	r16, 0xD8	; 216
    8902:	04 bf       	out	0x34, r16	; 52
    8904:	60 83       	st	Z, r22
    8906:	89 81       	ldd	r24, Y+1	; 0x01
    8908:	8f bf       	out	0x3f, r24	; 63
    890a:	0f 90       	pop	r0
    890c:	df 91       	pop	r29
    890e:	cf 91       	pop	r28
    8910:	0f 91       	pop	r16
    8912:	08 95       	ret

00008914 <CLKSYS_Disable>:
    8914:	e0 e5       	ldi	r30, 0x50	; 80
    8916:	f0 e0       	ldi	r31, 0x00	; 0
    8918:	20 81       	ld	r18, Z
    891a:	98 2f       	mov	r25, r24
    891c:	90 95       	com	r25
    891e:	92 23       	and	r25, r18
    8920:	90 83       	st	Z, r25
    8922:	90 81       	ld	r25, Z
    8924:	89 23       	and	r24, r25
    8926:	08 95       	ret

00008928 <CLKSYS_Main_ClockSource_Select>:
    8928:	0f 93       	push	r16
    892a:	1f 93       	push	r17
    892c:	cf 93       	push	r28
    892e:	c8 2f       	mov	r28, r24
    8930:	00 e4       	ldi	r16, 0x40	; 64
    8932:	10 e0       	ldi	r17, 0x00	; 0
    8934:	f8 01       	movw	r30, r16
    8936:	60 81       	ld	r22, Z
    8938:	68 7f       	andi	r22, 0xF8	; 248
    893a:	68 2b       	or	r22, r24
    893c:	80 e4       	ldi	r24, 0x40	; 64
    893e:	90 e0       	ldi	r25, 0x00	; 0
    8940:	0e 94 74 44 	call	0x88e8	; 0x88e8 <CCPWrite>
    8944:	f8 01       	movw	r30, r16
    8946:	80 81       	ld	r24, Z
    8948:	8c 23       	and	r24, r28
    894a:	cf 91       	pop	r28
    894c:	1f 91       	pop	r17
    894e:	0f 91       	pop	r16
    8950:	08 95       	ret

00008952 <main>:
    8952:	80 91 50 00 	lds	r24, 0x0050	; 0x800050 <__TEXT_REGION_LENGTH__+0x700050>
    8956:	82 60       	ori	r24, 0x02	; 2
    8958:	80 93 50 00 	sts	0x0050, r24	; 0x800050 <__TEXT_REGION_LENGTH__+0x700050>
    895c:	80 91 51 00 	lds	r24, 0x0051	; 0x800051 <__TEXT_REGION_LENGTH__+0x700051>
    8960:	81 ff       	sbrs	r24, 1
    8962:	fc cf       	rjmp	.-8      	; 0x895c <main+0xa>
    8964:	81 e0       	ldi	r24, 0x01	; 1
    8966:	0e 94 94 44 	call	0x8928	; 0x8928 <CLKSYS_Main_ClockSource_Select>
    896a:	85 e0       	ldi	r24, 0x05	; 5
    896c:	0e 94 8a 44 	call	0x8914	; 0x8914 <CLKSYS_Disable>
    8970:	0e 94 5a 44 	call	0x88b4	; 0x88b4 <USARTinit>
    8974:	0e 94 a4 2f 	call	0x5f48	; 0x5f48 <avr_trng_init>
    8978:	0e 94 19 4f 	call	0x9e32	; 0x9e32 <initMeasurement>
    897c:	86 e1       	ldi	r24, 0x16	; 22
    897e:	90 e2       	ldi	r25, 0x20	; 32
    8980:	0e 94 39 51 	call	0xa272	; 0xa272 <puts>
    8984:	0e 94 9d 4a 	call	0x953a	; 0x953a <do_measurement_7681_256>
    8988:	0e 94 8b 47 	call	0x8f16	; 0x8f16 <do_measurement_12289_512>
    898c:	0e 94 1a 4d 	call	0x9a34	; 0x9a34 <do_measurement_reduction_7681_c>
    8990:	0e 94 8c 4d 	call	0x9b18	; 0x9b18 <do_measurement_reduction_7681_asm>
    8994:	24 e3       	ldi	r18, 0x34	; 52
    8996:	36 e3       	ldi	r19, 0x36	; 54
    8998:	44 eb       	ldi	r20, 0xB4	; 180
    899a:	57 e3       	ldi	r21, 0x37	; 55
    899c:	64 e3       	ldi	r22, 0x34	; 52
    899e:	79 e3       	ldi	r23, 0x39	; 57
    89a0:	80 ec       	ldi	r24, 0xC0	; 192
    89a2:	90 e0       	ldi	r25, 0x00	; 0
    89a4:	0e 94 0f 45 	call	0x8a1e	; 0x8a1e <do_measurement_karatsuba_4093>
    89a8:	24 e3       	ldi	r18, 0x34	; 52
    89aa:	30 e3       	ldi	r19, 0x30	; 48
    89ac:	44 e3       	ldi	r20, 0x34	; 52
    89ae:	52 e3       	ldi	r21, 0x32	; 50
    89b0:	64 e3       	ldi	r22, 0x34	; 52
    89b2:	74 e3       	ldi	r23, 0x34	; 52
    89b4:	80 e0       	ldi	r24, 0x00	; 0
    89b6:	91 e0       	ldi	r25, 0x01	; 1
    89b8:	0e 94 0f 45 	call	0x8a1e	; 0x8a1e <do_measurement_karatsuba_4093>
    89bc:	24 eb       	ldi	r18, 0xB4	; 180
    89be:	38 e2       	ldi	r19, 0x28	; 40
    89c0:	44 e3       	ldi	r20, 0x34	; 52
    89c2:	5b e2       	ldi	r21, 0x2B	; 43
    89c4:	64 eb       	ldi	r22, 0xB4	; 180
    89c6:	7d e2       	ldi	r23, 0x2D	; 45
    89c8:	80 e4       	ldi	r24, 0x40	; 64
    89ca:	91 e0       	ldi	r25, 0x01	; 1
    89cc:	0e 94 0f 45 	call	0x8a1e	; 0x8a1e <do_measurement_karatsuba_4093>
    89d0:	24 e3       	ldi	r18, 0x34	; 52
    89d2:	34 e2       	ldi	r19, 0x24	; 36
    89d4:	44 eb       	ldi	r20, 0xB4	; 180
    89d6:	55 e2       	ldi	r21, 0x25	; 37
    89d8:	64 e3       	ldi	r22, 0x34	; 52
    89da:	77 e2       	ldi	r23, 0x27	; 39
    89dc:	80 ec       	ldi	r24, 0xC0	; 192
    89de:	90 e0       	ldi	r25, 0x00	; 0
    89e0:	0e 94 4d 46 	call	0x8c9a	; 0x8c9a <do_measurement_karatsuba_4096>
    89e4:	24 e3       	ldi	r18, 0x34	; 52
    89e6:	3e e1       	ldi	r19, 0x1E	; 30
    89e8:	44 e3       	ldi	r20, 0x34	; 52
    89ea:	50 e2       	ldi	r21, 0x20	; 32
    89ec:	64 e3       	ldi	r22, 0x34	; 52
    89ee:	72 e2       	ldi	r23, 0x22	; 34
    89f0:	80 e0       	ldi	r24, 0x00	; 0
    89f2:	91 e0       	ldi	r25, 0x01	; 1
    89f4:	0e 94 4d 46 	call	0x8c9a	; 0x8c9a <do_measurement_karatsuba_4096>
    89f8:	24 eb       	ldi	r18, 0xB4	; 180
    89fa:	36 e1       	ldi	r19, 0x16	; 22
    89fc:	44 e3       	ldi	r20, 0x34	; 52
    89fe:	59 e1       	ldi	r21, 0x19	; 25
    8a00:	64 eb       	ldi	r22, 0xB4	; 180
    8a02:	7b e1       	ldi	r23, 0x1B	; 27
    8a04:	80 e4       	ldi	r24, 0x40	; 64
    8a06:	91 e0       	ldi	r25, 0x01	; 1
    8a08:	0e 94 4d 46 	call	0x8c9a	; 0x8c9a <do_measurement_karatsuba_4096>
    8a0c:	88 e0       	ldi	r24, 0x08	; 8
    8a0e:	94 e2       	ldi	r25, 0x24	; 36
    8a10:	0e 94 39 51 	call	0xa272	; 0xa272 <puts>
    8a14:	88 e0       	ldi	r24, 0x08	; 8
    8a16:	94 e2       	ldi	r25, 0x24	; 36
    8a18:	0e 94 39 51 	call	0xa272	; 0xa272 <puts>
    8a1c:	ff cf       	rjmp	.-2      	; 0x8a1c <main+0xca>

00008a1e <do_measurement_karatsuba_4093>:
    8a1e:	3f 92       	push	r3
    8a20:	4f 92       	push	r4
    8a22:	5f 92       	push	r5
    8a24:	6f 92       	push	r6
    8a26:	7f 92       	push	r7
    8a28:	8f 92       	push	r8
    8a2a:	9f 92       	push	r9
    8a2c:	af 92       	push	r10
    8a2e:	bf 92       	push	r11
    8a30:	cf 92       	push	r12
    8a32:	df 92       	push	r13
    8a34:	ef 92       	push	r14
    8a36:	ff 92       	push	r15
    8a38:	0f 93       	push	r16
    8a3a:	1f 93       	push	r17
    8a3c:	cf 93       	push	r28
    8a3e:	df 93       	push	r29
    8a40:	cd b7       	in	r28, 0x3d	; 61
    8a42:	de b7       	in	r29, 0x3e	; 62
    8a44:	ca 50       	subi	r28, 0x0A	; 10
    8a46:	d5 40       	sbci	r29, 0x05	; 5
    8a48:	cd bf       	out	0x3d, r28	; 61
    8a4a:	de bf       	out	0x3e, r29	; 62
    8a4c:	6c 01       	movw	r12, r24
    8a4e:	76 2e       	mov	r7, r22
    8a50:	87 2e       	mov	r8, r23
    8a52:	34 2e       	mov	r3, r20
    8a54:	45 2e       	mov	r4, r21
    8a56:	52 2e       	mov	r5, r18
    8a58:	63 2e       	mov	r6, r19
    8a5a:	2d b7       	in	r18, 0x3d	; 61
    8a5c:	3e b7       	in	r19, 0x3e	; 62
    8a5e:	c7 5f       	subi	r28, 0xF7	; 247
    8a60:	da 4f       	sbci	r29, 0xFA	; 250
    8a62:	28 83       	st	Y, r18
    8a64:	39 83       	std	Y+1, r19	; 0x01
    8a66:	c9 50       	subi	r28, 0x09	; 9
    8a68:	d5 40       	sbci	r29, 0x05	; 5
    8a6a:	df 92       	push	r13
    8a6c:	8f 93       	push	r24
    8a6e:	89 e4       	ldi	r24, 0x49	; 73
    8a70:	90 e2       	ldi	r25, 0x20	; 32
    8a72:	9f 93       	push	r25
    8a74:	8f 93       	push	r24
    8a76:	0e 94 21 51 	call	0xa242	; 0xa242 <printf>
    8a7a:	85 e0       	ldi	r24, 0x05	; 5
    8a7c:	0e 94 f8 31 	call	0x63f0	; 0x63f0 <set_max_recursion_stages>
    8a80:	1f 92       	push	r1
    8a82:	85 e0       	ldi	r24, 0x05	; 5
    8a84:	8f 93       	push	r24
    8a86:	8a e7       	ldi	r24, 0x7A	; 122
    8a88:	90 e2       	ldi	r25, 0x20	; 32
    8a8a:	9f 93       	push	r25
    8a8c:	8f 93       	push	r24
    8a8e:	0e 94 21 51 	call	0xa242	; 0xa242 <printf>
    8a92:	cf 5f       	subi	r28, 0xFF	; 255
    8a94:	da 4f       	sbci	r29, 0xFA	; 250
    8a96:	18 82       	st	Y, r1
    8a98:	c1 50       	subi	r28, 0x01	; 1
    8a9a:	d5 40       	sbci	r29, 0x05	; 5
    8a9c:	ce 5f       	subi	r28, 0xFE	; 254
    8a9e:	da 4f       	sbci	r29, 0xFA	; 250
    8aa0:	18 82       	st	Y, r1
    8aa2:	c2 50       	subi	r28, 0x02	; 2
    8aa4:	d5 40       	sbci	r29, 0x05	; 5
    8aa6:	cd 5f       	subi	r28, 0xFD	; 253
    8aa8:	da 4f       	sbci	r29, 0xFA	; 250
    8aaa:	18 82       	st	Y, r1
    8aac:	c3 50       	subi	r28, 0x03	; 3
    8aae:	d5 40       	sbci	r29, 0x05	; 5
    8ab0:	cc 5f       	subi	r28, 0xFC	; 252
    8ab2:	da 4f       	sbci	r29, 0xFA	; 250
    8ab4:	18 82       	st	Y, r1
    8ab6:	c4 50       	subi	r28, 0x04	; 4
    8ab8:	d5 40       	sbci	r29, 0x05	; 5
    8aba:	cb 5f       	subi	r28, 0xFB	; 251
    8abc:	da 4f       	sbci	r29, 0xFA	; 250
    8abe:	18 82       	st	Y, r1
    8ac0:	c5 50       	subi	r28, 0x05	; 5
    8ac2:	d5 40       	sbci	r29, 0x05	; 5
    8ac4:	ca 5f       	subi	r28, 0xFA	; 250
    8ac6:	da 4f       	sbci	r29, 0xFA	; 250
    8ac8:	18 82       	st	Y, r1
    8aca:	c6 50       	subi	r28, 0x06	; 6
    8acc:	d5 40       	sbci	r29, 0x05	; 5
    8ace:	c9 5f       	subi	r28, 0xF9	; 249
    8ad0:	da 4f       	sbci	r29, 0xFA	; 250
    8ad2:	18 82       	st	Y, r1
    8ad4:	c7 50       	subi	r28, 0x07	; 7
    8ad6:	d5 40       	sbci	r29, 0x05	; 5
    8ad8:	c8 5f       	subi	r28, 0xF8	; 248
    8ada:	da 4f       	sbci	r29, 0xFA	; 250
    8adc:	18 82       	st	Y, r1
    8ade:	c8 50       	subi	r28, 0x08	; 8
    8ae0:	d5 40       	sbci	r29, 0x05	; 5
    8ae2:	c6 01       	movw	r24, r12
    8ae4:	ed b7       	in	r30, 0x3d	; 61
    8ae6:	fe b7       	in	r31, 0x3e	; 62
    8ae8:	38 96       	adiw	r30, 0x08	; 8
    8aea:	ed bf       	out	0x3d, r30	; 61
    8aec:	fe bf       	out	0x3e, r31	; 62
    8aee:	d7 fc       	sbrc	r13, 7
    8af0:	07 96       	adiw	r24, 0x07	; 7
    8af2:	23 e0       	ldi	r18, 0x03	; 3
    8af4:	95 95       	asr	r25
    8af6:	87 95       	ror	r24
    8af8:	2a 95       	dec	r18
    8afa:	e1 f7       	brne	.-8      	; 0x8af4 <do_measurement_karatsuba_4093+0xd6>
    8afc:	01 96       	adiw	r24, 0x01	; 1
    8afe:	2d b7       	in	r18, 0x3d	; 61
    8b00:	3e b7       	in	r19, 0x3e	; 62
    8b02:	28 1b       	sub	r18, r24
    8b04:	39 0b       	sbc	r19, r25
    8b06:	2d bf       	out	0x3d, r18	; 61
    8b08:	3e bf       	out	0x3e, r19	; 62
    8b0a:	8d b7       	in	r24, 0x3d	; 61
    8b0c:	9e b7       	in	r25, 0x3e	; 62
    8b0e:	01 96       	adiw	r24, 0x01	; 1
    8b10:	5c 01       	movw	r10, r24
    8b12:	62 ea       	ldi	r22, 0xA2	; 162
    8b14:	70 e2       	ldi	r23, 0x20	; 32
    8b16:	90 ec       	ldi	r25, 0xC0	; 192
    8b18:	c9 16       	cp	r12, r25
    8b1a:	d1 04       	cpc	r13, r1
    8b1c:	41 f0       	breq	.+16     	; 0x8b2e <do_measurement_karatsuba_4093+0x110>
    8b1e:	66 e7       	ldi	r22, 0x76	; 118
    8b20:	72 e2       	ldi	r23, 0x22	; 34
    8b22:	c1 14       	cp	r12, r1
    8b24:	e1 e0       	ldi	r30, 0x01	; 1
    8b26:	de 06       	cpc	r13, r30
    8b28:	11 f0       	breq	.+4      	; 0x8b2e <do_measurement_karatsuba_4093+0x110>
    8b2a:	6b eb       	ldi	r22, 0xBB	; 187
    8b2c:	70 e2       	ldi	r23, 0x20	; 32
    8b2e:	c5 01       	movw	r24, r10
    8b30:	0e 94 1a 51 	call	0xa234	; 0xa234 <strcpy>
    8b34:	91 2c       	mov	r9, r1
    8b36:	b6 01       	movw	r22, r12
    8b38:	ce 01       	movw	r24, r28
    8b3a:	8f 57       	subi	r24, 0x7F	; 127
    8b3c:	9d 4f       	sbci	r25, 0xFD	; 253
    8b3e:	0e 94 09 4f 	call	0x9e12	; 0x9e12 <generateRandomPolyTable_4093>
    8b42:	b6 01       	movw	r22, r12
    8b44:	ce 01       	movw	r24, r28
    8b46:	01 96       	adiw	r24, 0x01	; 1
    8b48:	0e 94 09 4f 	call	0x9e12	; 0x9e12 <generateRandomPolyTable_4093>
    8b4c:	f5 01       	movw	r30, r10
    8b4e:	90 82       	st	Z, r9
    8b50:	8a e0       	ldi	r24, 0x0A	; 10
    8b52:	89 0d       	add	r24, r9
    8b54:	81 83       	std	Z+1, r24	; 0x01
    8b56:	87 e3       	ldi	r24, 0x37	; 55
    8b58:	89 0d       	add	r24, r9
    8b5a:	82 83       	std	Z+2, r24	; 0x02
    8b5c:	80 91 02 20 	lds	r24, 0x2002	; 0x802002 <__malloc_heap_start>
    8b60:	90 91 03 20 	lds	r25, 0x2003	; 0x802003 <__malloc_heap_start+0x1>
    8b64:	0e 94 c8 2e 	call	0x5d90	; 0x5d90 <startRAM>
    8b68:	80 93 52 24 	sts	0x2452, r24	; 0x802452 <start>
    8b6c:	90 93 53 24 	sts	0x2453, r25	; 0x802453 <start+0x1>
    8b70:	0e 94 30 4f 	call	0x9e60	; 0x9e60 <startMeasurement>
    8b74:	76 01       	movw	r14, r12
    8b76:	03 2d       	mov	r16, r3
    8b78:	14 2d       	mov	r17, r4
    8b7a:	25 2d       	mov	r18, r5
    8b7c:	36 2d       	mov	r19, r6
    8b7e:	ae 01       	movw	r20, r28
    8b80:	4f 5f       	subi	r20, 0xFF	; 255
    8b82:	5f 4f       	sbci	r21, 0xFF	; 255
    8b84:	be 01       	movw	r22, r28
    8b86:	6f 57       	subi	r22, 0x7F	; 127
    8b88:	7d 4f       	sbci	r23, 0xFD	; 253
    8b8a:	c5 01       	movw	r24, r10
    8b8c:	0e 94 f3 34 	call	0x69e6	; 0x69e6 <encrypt_ksuba_4093>
    8b90:	ce 01       	movw	r24, r28
    8b92:	8f 5f       	subi	r24, 0xFF	; 255
    8b94:	9a 4f       	sbci	r25, 0xFA	; 250
    8b96:	0e 94 3f 4f 	call	0x9e7e	; 0x9e7e <stopMeasurement>
    8b9a:	0e 94 db 2e 	call	0x5db6	; 0x5db6 <endRAM>
    8b9e:	80 93 50 24 	sts	0x2450, r24	; 0x802450 <end>
    8ba2:	90 93 51 24 	sts	0x2451, r25	; 0x802451 <end+0x1>
    8ba6:	93 94       	inc	r9
    8ba8:	f4 e6       	ldi	r31, 0x64	; 100
    8baa:	9f 12       	cpse	r9, r31
    8bac:	c4 cf       	rjmp	.-120    	; 0x8b36 <do_measurement_karatsuba_4093+0x118>
    8bae:	60 91 52 24 	lds	r22, 0x2452	; 0x802452 <start>
    8bb2:	70 91 53 24 	lds	r23, 0x2453	; 0x802453 <start+0x1>
    8bb6:	68 1b       	sub	r22, r24
    8bb8:	79 0b       	sbc	r23, r25
    8bba:	44 ee       	ldi	r20, 0xE4	; 228
    8bbc:	50 e2       	ldi	r21, 0x20	; 32
    8bbe:	ce 01       	movw	r24, r28
    8bc0:	8f 5f       	subi	r24, 0xFF	; 255
    8bc2:	9a 4f       	sbci	r25, 0xFA	; 250
    8bc4:	0e 94 d8 4f 	call	0x9fb0	; 0x9fb0 <printResultRAM>
    8bc8:	84 e6       	ldi	r24, 0x64	; 100
    8bca:	48 2e       	mov	r4, r24
    8bcc:	51 2c       	mov	r5, r1
    8bce:	b6 01       	movw	r22, r12
    8bd0:	ce 01       	movw	r24, r28
    8bd2:	8f 57       	subi	r24, 0x7F	; 127
    8bd4:	9d 4f       	sbci	r25, 0xFD	; 253
    8bd6:	0e 94 09 4f 	call	0x9e12	; 0x9e12 <generateRandomPolyTable_4093>
    8bda:	b6 01       	movw	r22, r12
    8bdc:	ce 01       	movw	r24, r28
    8bde:	01 96       	adiw	r24, 0x01	; 1
    8be0:	0e 94 09 4f 	call	0x9e12	; 0x9e12 <generateRandomPolyTable_4093>
    8be4:	80 91 02 20 	lds	r24, 0x2002	; 0x802002 <__malloc_heap_start>
    8be8:	90 91 03 20 	lds	r25, 0x2003	; 0x802003 <__malloc_heap_start+0x1>
    8bec:	0e 94 c8 2e 	call	0x5d90	; 0x5d90 <startRAM>
    8bf0:	80 93 52 24 	sts	0x2452, r24	; 0x802452 <start>
    8bf4:	90 93 53 24 	sts	0x2453, r25	; 0x802453 <start+0x1>
    8bf8:	0e 94 30 4f 	call	0x9e60	; 0x9e60 <startMeasurement>
    8bfc:	86 01       	movw	r16, r12
    8bfe:	27 2d       	mov	r18, r7
    8c00:	38 2d       	mov	r19, r8
    8c02:	ae 01       	movw	r20, r28
    8c04:	4f 5f       	subi	r20, 0xFF	; 255
    8c06:	5f 4f       	sbci	r21, 0xFF	; 255
    8c08:	be 01       	movw	r22, r28
    8c0a:	6f 57       	subi	r22, 0x7F	; 127
    8c0c:	7d 4f       	sbci	r23, 0xFD	; 253
    8c0e:	c5 01       	movw	r24, r10
    8c10:	0e 94 a0 35 	call	0x6b40	; 0x6b40 <decrypt_ksuba_4093>
    8c14:	ce 01       	movw	r24, r28
    8c16:	8f 5f       	subi	r24, 0xFF	; 255
    8c18:	9a 4f       	sbci	r25, 0xFA	; 250
    8c1a:	0e 94 3f 4f 	call	0x9e7e	; 0x9e7e <stopMeasurement>
    8c1e:	0e 94 db 2e 	call	0x5db6	; 0x5db6 <endRAM>
    8c22:	9c 01       	movw	r18, r24
    8c24:	80 93 50 24 	sts	0x2450, r24	; 0x802450 <end>
    8c28:	90 93 51 24 	sts	0x2451, r25	; 0x802451 <end+0x1>
    8c2c:	81 e0       	ldi	r24, 0x01	; 1
    8c2e:	48 1a       	sub	r4, r24
    8c30:	51 08       	sbc	r5, r1
    8c32:	69 f6       	brne	.-102    	; 0x8bce <do_measurement_karatsuba_4093+0x1b0>
    8c34:	60 91 52 24 	lds	r22, 0x2452	; 0x802452 <start>
    8c38:	70 91 53 24 	lds	r23, 0x2453	; 0x802453 <start+0x1>
    8c3c:	62 1b       	sub	r22, r18
    8c3e:	73 0b       	sbc	r23, r19
    8c40:	42 ef       	ldi	r20, 0xF2	; 242
    8c42:	50 e2       	ldi	r21, 0x20	; 32
    8c44:	ce 01       	movw	r24, r28
    8c46:	8f 5f       	subi	r24, 0xFF	; 255
    8c48:	9a 4f       	sbci	r25, 0xFA	; 250
    8c4a:	0e 94 d8 4f 	call	0x9fb0	; 0x9fb0 <printResultRAM>
    8c4e:	86 e4       	ldi	r24, 0x46	; 70
    8c50:	90 e2       	ldi	r25, 0x20	; 32
    8c52:	9f 93       	push	r25
    8c54:	8f 93       	push	r24
    8c56:	0e 94 21 51 	call	0xa242	; 0xa242 <printf>
    8c5a:	0f 90       	pop	r0
    8c5c:	0f 90       	pop	r0
    8c5e:	c7 5f       	subi	r28, 0xF7	; 247
    8c60:	da 4f       	sbci	r29, 0xFA	; 250
    8c62:	e8 81       	ld	r30, Y
    8c64:	f9 81       	ldd	r31, Y+1	; 0x01
    8c66:	c9 50       	subi	r28, 0x09	; 9
    8c68:	d5 40       	sbci	r29, 0x05	; 5
    8c6a:	ed bf       	out	0x3d, r30	; 61
    8c6c:	fe bf       	out	0x3e, r31	; 62
    8c6e:	c6 5f       	subi	r28, 0xF6	; 246
    8c70:	da 4f       	sbci	r29, 0xFA	; 250
    8c72:	cd bf       	out	0x3d, r28	; 61
    8c74:	de bf       	out	0x3e, r29	; 62
    8c76:	df 91       	pop	r29
    8c78:	cf 91       	pop	r28
    8c7a:	1f 91       	pop	r17
    8c7c:	0f 91       	pop	r16
    8c7e:	ff 90       	pop	r15
    8c80:	ef 90       	pop	r14
    8c82:	df 90       	pop	r13
    8c84:	cf 90       	pop	r12
    8c86:	bf 90       	pop	r11
    8c88:	af 90       	pop	r10
    8c8a:	9f 90       	pop	r9
    8c8c:	8f 90       	pop	r8
    8c8e:	7f 90       	pop	r7
    8c90:	6f 90       	pop	r6
    8c92:	5f 90       	pop	r5
    8c94:	4f 90       	pop	r4
    8c96:	3f 90       	pop	r3
    8c98:	08 95       	ret

00008c9a <do_measurement_karatsuba_4096>:
    8c9a:	3f 92       	push	r3
    8c9c:	4f 92       	push	r4
    8c9e:	5f 92       	push	r5
    8ca0:	6f 92       	push	r6
    8ca2:	7f 92       	push	r7
    8ca4:	8f 92       	push	r8
    8ca6:	9f 92       	push	r9
    8ca8:	af 92       	push	r10
    8caa:	bf 92       	push	r11
    8cac:	cf 92       	push	r12
    8cae:	df 92       	push	r13
    8cb0:	ef 92       	push	r14
    8cb2:	ff 92       	push	r15
    8cb4:	0f 93       	push	r16
    8cb6:	1f 93       	push	r17
    8cb8:	cf 93       	push	r28
    8cba:	df 93       	push	r29
    8cbc:	cd b7       	in	r28, 0x3d	; 61
    8cbe:	de b7       	in	r29, 0x3e	; 62
    8cc0:	ca 50       	subi	r28, 0x0A	; 10
    8cc2:	d5 40       	sbci	r29, 0x05	; 5
    8cc4:	cd bf       	out	0x3d, r28	; 61
    8cc6:	de bf       	out	0x3e, r29	; 62
    8cc8:	6c 01       	movw	r12, r24
    8cca:	76 2e       	mov	r7, r22
    8ccc:	87 2e       	mov	r8, r23
    8cce:	34 2e       	mov	r3, r20
    8cd0:	45 2e       	mov	r4, r21
    8cd2:	52 2e       	mov	r5, r18
    8cd4:	63 2e       	mov	r6, r19
    8cd6:	2d b7       	in	r18, 0x3d	; 61
    8cd8:	3e b7       	in	r19, 0x3e	; 62
    8cda:	c7 5f       	subi	r28, 0xF7	; 247
    8cdc:	da 4f       	sbci	r29, 0xFA	; 250
    8cde:	28 83       	st	Y, r18
    8ce0:	39 83       	std	Y+1, r19	; 0x01
    8ce2:	c9 50       	subi	r28, 0x09	; 9
    8ce4:	d5 40       	sbci	r29, 0x05	; 5
    8ce6:	df 92       	push	r13
    8ce8:	8f 93       	push	r24
    8cea:	8f ef       	ldi	r24, 0xFF	; 255
    8cec:	90 e2       	ldi	r25, 0x20	; 32
    8cee:	9f 93       	push	r25
    8cf0:	8f 93       	push	r24
    8cf2:	0e 94 21 51 	call	0xa242	; 0xa242 <printf>
    8cf6:	85 e0       	ldi	r24, 0x05	; 5
    8cf8:	0e 94 fd 35 	call	0x6bfa	; 0x6bfa <set_max_recursion_stages4096>
    8cfc:	1f 92       	push	r1
    8cfe:	85 e0       	ldi	r24, 0x05	; 5
    8d00:	8f 93       	push	r24
    8d02:	8a e7       	ldi	r24, 0x7A	; 122
    8d04:	90 e2       	ldi	r25, 0x20	; 32
    8d06:	9f 93       	push	r25
    8d08:	8f 93       	push	r24
    8d0a:	0e 94 21 51 	call	0xa242	; 0xa242 <printf>
    8d0e:	cf 5f       	subi	r28, 0xFF	; 255
    8d10:	da 4f       	sbci	r29, 0xFA	; 250
    8d12:	18 82       	st	Y, r1
    8d14:	c1 50       	subi	r28, 0x01	; 1
    8d16:	d5 40       	sbci	r29, 0x05	; 5
    8d18:	ce 5f       	subi	r28, 0xFE	; 254
    8d1a:	da 4f       	sbci	r29, 0xFA	; 250
    8d1c:	18 82       	st	Y, r1
    8d1e:	c2 50       	subi	r28, 0x02	; 2
    8d20:	d5 40       	sbci	r29, 0x05	; 5
    8d22:	cd 5f       	subi	r28, 0xFD	; 253
    8d24:	da 4f       	sbci	r29, 0xFA	; 250
    8d26:	18 82       	st	Y, r1
    8d28:	c3 50       	subi	r28, 0x03	; 3
    8d2a:	d5 40       	sbci	r29, 0x05	; 5
    8d2c:	cc 5f       	subi	r28, 0xFC	; 252
    8d2e:	da 4f       	sbci	r29, 0xFA	; 250
    8d30:	18 82       	st	Y, r1
    8d32:	c4 50       	subi	r28, 0x04	; 4
    8d34:	d5 40       	sbci	r29, 0x05	; 5
    8d36:	cb 5f       	subi	r28, 0xFB	; 251
    8d38:	da 4f       	sbci	r29, 0xFA	; 250
    8d3a:	18 82       	st	Y, r1
    8d3c:	c5 50       	subi	r28, 0x05	; 5
    8d3e:	d5 40       	sbci	r29, 0x05	; 5
    8d40:	ca 5f       	subi	r28, 0xFA	; 250
    8d42:	da 4f       	sbci	r29, 0xFA	; 250
    8d44:	18 82       	st	Y, r1
    8d46:	c6 50       	subi	r28, 0x06	; 6
    8d48:	d5 40       	sbci	r29, 0x05	; 5
    8d4a:	c9 5f       	subi	r28, 0xF9	; 249
    8d4c:	da 4f       	sbci	r29, 0xFA	; 250
    8d4e:	18 82       	st	Y, r1
    8d50:	c7 50       	subi	r28, 0x07	; 7
    8d52:	d5 40       	sbci	r29, 0x05	; 5
    8d54:	c8 5f       	subi	r28, 0xF8	; 248
    8d56:	da 4f       	sbci	r29, 0xFA	; 250
    8d58:	18 82       	st	Y, r1
    8d5a:	c8 50       	subi	r28, 0x08	; 8
    8d5c:	d5 40       	sbci	r29, 0x05	; 5
    8d5e:	c6 01       	movw	r24, r12
    8d60:	ed b7       	in	r30, 0x3d	; 61
    8d62:	fe b7       	in	r31, 0x3e	; 62
    8d64:	38 96       	adiw	r30, 0x08	; 8
    8d66:	ed bf       	out	0x3d, r30	; 61
    8d68:	fe bf       	out	0x3e, r31	; 62
    8d6a:	d7 fc       	sbrc	r13, 7
    8d6c:	07 96       	adiw	r24, 0x07	; 7
    8d6e:	23 e0       	ldi	r18, 0x03	; 3
    8d70:	95 95       	asr	r25
    8d72:	87 95       	ror	r24
    8d74:	2a 95       	dec	r18
    8d76:	e1 f7       	brne	.-8      	; 0x8d70 <do_measurement_karatsuba_4096+0xd6>
    8d78:	01 96       	adiw	r24, 0x01	; 1
    8d7a:	2d b7       	in	r18, 0x3d	; 61
    8d7c:	3e b7       	in	r19, 0x3e	; 62
    8d7e:	28 1b       	sub	r18, r24
    8d80:	39 0b       	sbc	r19, r25
    8d82:	2d bf       	out	0x3d, r18	; 61
    8d84:	3e bf       	out	0x3e, r19	; 62
    8d86:	8d b7       	in	r24, 0x3d	; 61
    8d88:	9e b7       	in	r25, 0x3e	; 62
    8d8a:	01 96       	adiw	r24, 0x01	; 1
    8d8c:	5c 01       	movw	r10, r24
    8d8e:	62 ea       	ldi	r22, 0xA2	; 162
    8d90:	70 e2       	ldi	r23, 0x20	; 32
    8d92:	90 ec       	ldi	r25, 0xC0	; 192
    8d94:	c9 16       	cp	r12, r25
    8d96:	d1 04       	cpc	r13, r1
    8d98:	41 f0       	breq	.+16     	; 0x8daa <do_measurement_karatsuba_4096+0x110>
    8d9a:	66 e7       	ldi	r22, 0x76	; 118
    8d9c:	72 e2       	ldi	r23, 0x22	; 34
    8d9e:	c1 14       	cp	r12, r1
    8da0:	e1 e0       	ldi	r30, 0x01	; 1
    8da2:	de 06       	cpc	r13, r30
    8da4:	11 f0       	breq	.+4      	; 0x8daa <do_measurement_karatsuba_4096+0x110>
    8da6:	6b eb       	ldi	r22, 0xBB	; 187
    8da8:	70 e2       	ldi	r23, 0x20	; 32
    8daa:	c5 01       	movw	r24, r10
    8dac:	0e 94 1a 51 	call	0xa234	; 0xa234 <strcpy>
    8db0:	91 2c       	mov	r9, r1
    8db2:	b6 01       	movw	r22, r12
    8db4:	ce 01       	movw	r24, r28
    8db6:	8f 57       	subi	r24, 0x7F	; 127
    8db8:	9d 4f       	sbci	r25, 0xFD	; 253
    8dba:	0e 94 17 4f 	call	0x9e2e	; 0x9e2e <generateRandomPolyTable_4096>
    8dbe:	b6 01       	movw	r22, r12
    8dc0:	ce 01       	movw	r24, r28
    8dc2:	01 96       	adiw	r24, 0x01	; 1
    8dc4:	0e 94 17 4f 	call	0x9e2e	; 0x9e2e <generateRandomPolyTable_4096>
    8dc8:	f5 01       	movw	r30, r10
    8dca:	90 82       	st	Z, r9
    8dcc:	8a e0       	ldi	r24, 0x0A	; 10
    8dce:	89 0d       	add	r24, r9
    8dd0:	81 83       	std	Z+1, r24	; 0x01
    8dd2:	87 e3       	ldi	r24, 0x37	; 55
    8dd4:	89 0d       	add	r24, r9
    8dd6:	82 83       	std	Z+2, r24	; 0x02
    8dd8:	80 91 02 20 	lds	r24, 0x2002	; 0x802002 <__malloc_heap_start>
    8ddc:	90 91 03 20 	lds	r25, 0x2003	; 0x802003 <__malloc_heap_start+0x1>
    8de0:	0e 94 c8 2e 	call	0x5d90	; 0x5d90 <startRAM>
    8de4:	80 93 56 24 	sts	0x2456, r24	; 0x802456 <start>
    8de8:	90 93 57 24 	sts	0x2457, r25	; 0x802457 <start+0x1>
    8dec:	0e 94 30 4f 	call	0x9e60	; 0x9e60 <startMeasurement>
    8df0:	76 01       	movw	r14, r12
    8df2:	03 2d       	mov	r16, r3
    8df4:	14 2d       	mov	r17, r4
    8df6:	25 2d       	mov	r18, r5
    8df8:	36 2d       	mov	r19, r6
    8dfa:	ae 01       	movw	r20, r28
    8dfc:	4f 5f       	subi	r20, 0xFF	; 255
    8dfe:	5f 4f       	sbci	r21, 0xFF	; 255
    8e00:	be 01       	movw	r22, r28
    8e02:	6f 57       	subi	r22, 0x7F	; 127
    8e04:	7d 4f       	sbci	r23, 0xFD	; 253
    8e06:	c5 01       	movw	r24, r10
    8e08:	0e 94 d8 38 	call	0x71b0	; 0x71b0 <encrypt_ksuba_4096>
    8e0c:	ce 01       	movw	r24, r28
    8e0e:	8f 5f       	subi	r24, 0xFF	; 255
    8e10:	9a 4f       	sbci	r25, 0xFA	; 250
    8e12:	0e 94 3f 4f 	call	0x9e7e	; 0x9e7e <stopMeasurement>
    8e16:	0e 94 db 2e 	call	0x5db6	; 0x5db6 <endRAM>
    8e1a:	80 93 54 24 	sts	0x2454, r24	; 0x802454 <end>
    8e1e:	90 93 55 24 	sts	0x2455, r25	; 0x802455 <end+0x1>
    8e22:	93 94       	inc	r9
    8e24:	f4 e6       	ldi	r31, 0x64	; 100
    8e26:	9f 12       	cpse	r9, r31
    8e28:	c4 cf       	rjmp	.-120    	; 0x8db2 <do_measurement_karatsuba_4096+0x118>
    8e2a:	60 91 56 24 	lds	r22, 0x2456	; 0x802456 <start>
    8e2e:	70 91 57 24 	lds	r23, 0x2457	; 0x802457 <start+0x1>
    8e32:	68 1b       	sub	r22, r24
    8e34:	79 0b       	sbc	r23, r25
    8e36:	44 ee       	ldi	r20, 0xE4	; 228
    8e38:	50 e2       	ldi	r21, 0x20	; 32
    8e3a:	ce 01       	movw	r24, r28
    8e3c:	8f 5f       	subi	r24, 0xFF	; 255
    8e3e:	9a 4f       	sbci	r25, 0xFA	; 250
    8e40:	0e 94 d8 4f 	call	0x9fb0	; 0x9fb0 <printResultRAM>
    8e44:	84 e6       	ldi	r24, 0x64	; 100
    8e46:	48 2e       	mov	r4, r24
    8e48:	51 2c       	mov	r5, r1
    8e4a:	b6 01       	movw	r22, r12
    8e4c:	ce 01       	movw	r24, r28
    8e4e:	8f 57       	subi	r24, 0x7F	; 127
    8e50:	9d 4f       	sbci	r25, 0xFD	; 253
    8e52:	0e 94 17 4f 	call	0x9e2e	; 0x9e2e <generateRandomPolyTable_4096>
    8e56:	b6 01       	movw	r22, r12
    8e58:	ce 01       	movw	r24, r28
    8e5a:	01 96       	adiw	r24, 0x01	; 1
    8e5c:	0e 94 17 4f 	call	0x9e2e	; 0x9e2e <generateRandomPolyTable_4096>
    8e60:	80 91 02 20 	lds	r24, 0x2002	; 0x802002 <__malloc_heap_start>
    8e64:	90 91 03 20 	lds	r25, 0x2003	; 0x802003 <__malloc_heap_start+0x1>
    8e68:	0e 94 c8 2e 	call	0x5d90	; 0x5d90 <startRAM>
    8e6c:	80 93 56 24 	sts	0x2456, r24	; 0x802456 <start>
    8e70:	90 93 57 24 	sts	0x2457, r25	; 0x802457 <start+0x1>
    8e74:	0e 94 30 4f 	call	0x9e60	; 0x9e60 <startMeasurement>
    8e78:	86 01       	movw	r16, r12
    8e7a:	27 2d       	mov	r18, r7
    8e7c:	38 2d       	mov	r19, r8
    8e7e:	ae 01       	movw	r20, r28
    8e80:	4f 5f       	subi	r20, 0xFF	; 255
    8e82:	5f 4f       	sbci	r21, 0xFF	; 255
    8e84:	be 01       	movw	r22, r28
    8e86:	6f 57       	subi	r22, 0x7F	; 127
    8e88:	7d 4f       	sbci	r23, 0xFD	; 253
    8e8a:	c5 01       	movw	r24, r10
    8e8c:	0e 94 84 39 	call	0x7308	; 0x7308 <decrypt_ksuba_4096>
    8e90:	ce 01       	movw	r24, r28
    8e92:	8f 5f       	subi	r24, 0xFF	; 255
    8e94:	9a 4f       	sbci	r25, 0xFA	; 250
    8e96:	0e 94 3f 4f 	call	0x9e7e	; 0x9e7e <stopMeasurement>
    8e9a:	0e 94 db 2e 	call	0x5db6	; 0x5db6 <endRAM>
    8e9e:	9c 01       	movw	r18, r24
    8ea0:	80 93 54 24 	sts	0x2454, r24	; 0x802454 <end>
    8ea4:	90 93 55 24 	sts	0x2455, r25	; 0x802455 <end+0x1>
    8ea8:	81 e0       	ldi	r24, 0x01	; 1
    8eaa:	48 1a       	sub	r4, r24
    8eac:	51 08       	sbc	r5, r1
    8eae:	69 f6       	brne	.-102    	; 0x8e4a <do_measurement_karatsuba_4096+0x1b0>
    8eb0:	60 91 56 24 	lds	r22, 0x2456	; 0x802456 <start>
    8eb4:	70 91 57 24 	lds	r23, 0x2457	; 0x802457 <start+0x1>
    8eb8:	62 1b       	sub	r22, r18
    8eba:	73 0b       	sbc	r23, r19
    8ebc:	42 ef       	ldi	r20, 0xF2	; 242
    8ebe:	50 e2       	ldi	r21, 0x20	; 32
    8ec0:	ce 01       	movw	r24, r28
    8ec2:	8f 5f       	subi	r24, 0xFF	; 255
    8ec4:	9a 4f       	sbci	r25, 0xFA	; 250
    8ec6:	0e 94 d8 4f 	call	0x9fb0	; 0x9fb0 <printResultRAM>
    8eca:	86 e4       	ldi	r24, 0x46	; 70
    8ecc:	90 e2       	ldi	r25, 0x20	; 32
    8ece:	9f 93       	push	r25
    8ed0:	8f 93       	push	r24
    8ed2:	0e 94 21 51 	call	0xa242	; 0xa242 <printf>
    8ed6:	0f 90       	pop	r0
    8ed8:	0f 90       	pop	r0
    8eda:	c7 5f       	subi	r28, 0xF7	; 247
    8edc:	da 4f       	sbci	r29, 0xFA	; 250
    8ede:	e8 81       	ld	r30, Y
    8ee0:	f9 81       	ldd	r31, Y+1	; 0x01
    8ee2:	c9 50       	subi	r28, 0x09	; 9
    8ee4:	d5 40       	sbci	r29, 0x05	; 5
    8ee6:	ed bf       	out	0x3d, r30	; 61
    8ee8:	fe bf       	out	0x3e, r31	; 62
    8eea:	c6 5f       	subi	r28, 0xF6	; 246
    8eec:	da 4f       	sbci	r29, 0xFA	; 250
    8eee:	cd bf       	out	0x3d, r28	; 61
    8ef0:	de bf       	out	0x3e, r29	; 62
    8ef2:	df 91       	pop	r29
    8ef4:	cf 91       	pop	r28
    8ef6:	1f 91       	pop	r17
    8ef8:	0f 91       	pop	r16
    8efa:	ff 90       	pop	r15
    8efc:	ef 90       	pop	r14
    8efe:	df 90       	pop	r13
    8f00:	cf 90       	pop	r12
    8f02:	bf 90       	pop	r11
    8f04:	af 90       	pop	r10
    8f06:	9f 90       	pop	r9
    8f08:	8f 90       	pop	r8
    8f0a:	7f 90       	pop	r7
    8f0c:	6f 90       	pop	r6
    8f0e:	5f 90       	pop	r5
    8f10:	4f 90       	pop	r4
    8f12:	3f 90       	pop	r3
    8f14:	08 95       	ret

00008f16 <do_measurement_12289_512>:
    8f16:	ff 92       	push	r15
    8f18:	0f 93       	push	r16
    8f1a:	1f 93       	push	r17
    8f1c:	cf 93       	push	r28
    8f1e:	df 93       	push	r29
    8f20:	cd b7       	in	r28, 0x3d	; 61
    8f22:	de b7       	in	r29, 0x3e	; 62
    8f24:	c9 54       	subi	r28, 0x49	; 73
    8f26:	d8 40       	sbci	r29, 0x08	; 8
    8f28:	cd bf       	out	0x3d, r28	; 61
    8f2a:	de bf       	out	0x3e, r29	; 62
    8f2c:	80 e3       	ldi	r24, 0x30	; 48
    8f2e:	91 e2       	ldi	r25, 0x21	; 33
    8f30:	9f 93       	push	r25
    8f32:	8f 93       	push	r24
    8f34:	0e 94 21 51 	call	0xa242	; 0xa242 <printf>
    8f38:	cf 5f       	subi	r28, 0xFF	; 255
    8f3a:	d7 4f       	sbci	r29, 0xF7	; 247
    8f3c:	18 82       	st	Y, r1
    8f3e:	c1 50       	subi	r28, 0x01	; 1
    8f40:	d8 40       	sbci	r29, 0x08	; 8
    8f42:	ce 5f       	subi	r28, 0xFE	; 254
    8f44:	d7 4f       	sbci	r29, 0xF7	; 247
    8f46:	18 82       	st	Y, r1
    8f48:	c2 50       	subi	r28, 0x02	; 2
    8f4a:	d8 40       	sbci	r29, 0x08	; 8
    8f4c:	cd 5f       	subi	r28, 0xFD	; 253
    8f4e:	d7 4f       	sbci	r29, 0xF7	; 247
    8f50:	18 82       	st	Y, r1
    8f52:	c3 50       	subi	r28, 0x03	; 3
    8f54:	d8 40       	sbci	r29, 0x08	; 8
    8f56:	cc 5f       	subi	r28, 0xFC	; 252
    8f58:	d7 4f       	sbci	r29, 0xF7	; 247
    8f5a:	18 82       	st	Y, r1
    8f5c:	c4 50       	subi	r28, 0x04	; 4
    8f5e:	d8 40       	sbci	r29, 0x08	; 8
    8f60:	cb 5f       	subi	r28, 0xFB	; 251
    8f62:	d7 4f       	sbci	r29, 0xF7	; 247
    8f64:	18 82       	st	Y, r1
    8f66:	c5 50       	subi	r28, 0x05	; 5
    8f68:	d8 40       	sbci	r29, 0x08	; 8
    8f6a:	ca 5f       	subi	r28, 0xFA	; 250
    8f6c:	d7 4f       	sbci	r29, 0xF7	; 247
    8f6e:	18 82       	st	Y, r1
    8f70:	c6 50       	subi	r28, 0x06	; 6
    8f72:	d8 40       	sbci	r29, 0x08	; 8
    8f74:	c9 5f       	subi	r28, 0xF9	; 249
    8f76:	d7 4f       	sbci	r29, 0xF7	; 247
    8f78:	18 82       	st	Y, r1
    8f7a:	c7 50       	subi	r28, 0x07	; 7
    8f7c:	d8 40       	sbci	r29, 0x08	; 8
    8f7e:	c8 5f       	subi	r28, 0xF8	; 248
    8f80:	d7 4f       	sbci	r29, 0xF7	; 247
    8f82:	18 82       	st	Y, r1
    8f84:	c8 50       	subi	r28, 0x08	; 8
    8f86:	d8 40       	sbci	r29, 0x08	; 8
    8f88:	0f 90       	pop	r0
    8f8a:	0f 90       	pop	r0
    8f8c:	04 e6       	ldi	r16, 0x64	; 100
    8f8e:	10 e0       	ldi	r17, 0x00	; 0
    8f90:	ce 01       	movw	r24, r28
    8f92:	8f 5f       	subi	r24, 0xFF	; 255
    8f94:	9b 4f       	sbci	r25, 0xFB	; 251
    8f96:	0e 94 f5 4e 	call	0x9dea	; 0x9dea <generateRandomPolyTable_12289_512>
    8f9a:	0e 94 30 4f 	call	0x9e60	; 0x9e60 <startMeasurement>
    8f9e:	64 eb       	ldi	r22, 0xB4	; 180
    8fa0:	7a e4       	ldi	r23, 0x4A	; 74
    8fa2:	ce 01       	movw	r24, r28
    8fa4:	8f 5f       	subi	r24, 0xFF	; 255
    8fa6:	9b 4f       	sbci	r25, 0xFB	; 251
    8fa8:	0e 94 1d 42 	call	0x843a	; 0x843a <ntt_CT_no_to_bo_incl_psi_12289_512>
    8fac:	ce 01       	movw	r24, r28
    8fae:	8f 5f       	subi	r24, 0xFF	; 255
    8fb0:	97 4f       	sbci	r25, 0xF7	; 247
    8fb2:	0e 94 3f 4f 	call	0x9e7e	; 0x9e7e <stopMeasurement>
    8fb6:	01 50       	subi	r16, 0x01	; 1
    8fb8:	11 09       	sbc	r17, r1
    8fba:	51 f7       	brne	.-44     	; 0x8f90 <do_measurement_12289_512+0x7a>
    8fbc:	6a e5       	ldi	r22, 0x5A	; 90
    8fbe:	71 e2       	ldi	r23, 0x21	; 33
    8fc0:	ce 01       	movw	r24, r28
    8fc2:	8f 5f       	subi	r24, 0xFF	; 255
    8fc4:	97 4f       	sbci	r25, 0xF7	; 247
    8fc6:	0e 94 84 4f 	call	0x9f08	; 0x9f08 <printResult>
    8fca:	04 e6       	ldi	r16, 0x64	; 100
    8fcc:	10 e0       	ldi	r17, 0x00	; 0
    8fce:	ce 01       	movw	r24, r28
    8fd0:	8f 5f       	subi	r24, 0xFF	; 255
    8fd2:	9b 4f       	sbci	r25, 0xFB	; 251
    8fd4:	0e 94 f5 4e 	call	0x9dea	; 0x9dea <generateRandomPolyTable_12289_512>
    8fd8:	0e 94 30 4f 	call	0x9e60	; 0x9e60 <startMeasurement>
    8fdc:	64 eb       	ldi	r22, 0xB4	; 180
    8fde:	76 e4       	ldi	r23, 0x46	; 70
    8fe0:	ce 01       	movw	r24, r28
    8fe2:	8f 5f       	subi	r24, 0xFF	; 255
    8fe4:	9b 4f       	sbci	r25, 0xFB	; 251
    8fe6:	0e 94 00 40 	call	0x8000	; 0x8000 <ntt_GS_bo_to_no_incl_invpsi_12289_512>
    8fea:	ce 01       	movw	r24, r28
    8fec:	8f 5f       	subi	r24, 0xFF	; 255
    8fee:	97 4f       	sbci	r25, 0xF7	; 247
    8ff0:	0e 94 3f 4f 	call	0x9e7e	; 0x9e7e <stopMeasurement>
    8ff4:	01 50       	subi	r16, 0x01	; 1
    8ff6:	11 09       	sbc	r17, r1
    8ff8:	51 f7       	brne	.-44     	; 0x8fce <do_measurement_12289_512+0xb8>
    8ffa:	66 e8       	ldi	r22, 0x86	; 134
    8ffc:	71 e2       	ldi	r23, 0x21	; 33
    8ffe:	ce 01       	movw	r24, r28
    9000:	8f 5f       	subi	r24, 0xFF	; 255
    9002:	97 4f       	sbci	r25, 0xF7	; 247
    9004:	0e 94 84 4f 	call	0x9f08	; 0x9f08 <printResult>
    9008:	04 e6       	ldi	r16, 0x64	; 100
    900a:	10 e0       	ldi	r17, 0x00	; 0
    900c:	ce 01       	movw	r24, r28
    900e:	8f 5f       	subi	r24, 0xFF	; 255
    9010:	9b 4f       	sbci	r25, 0xFB	; 251
    9012:	0e 94 f5 4e 	call	0x9dea	; 0x9dea <generateRandomPolyTable_12289_512>
    9016:	0e 94 30 4f 	call	0x9e60	; 0x9e60 <startMeasurement>
    901a:	64 eb       	ldi	r22, 0xB4	; 180
    901c:	7a e4       	ldi	r23, 0x4A	; 74
    901e:	ce 01       	movw	r24, r28
    9020:	8f 5f       	subi	r24, 0xFF	; 255
    9022:	9b 4f       	sbci	r25, 0xFB	; 251
    9024:	0e 94 60 41 	call	0x82c0	; 0x82c0 <ntt_CT_no_to_bo_incl_psi_12289_512_nolookup>
    9028:	ce 01       	movw	r24, r28
    902a:	8f 5f       	subi	r24, 0xFF	; 255
    902c:	97 4f       	sbci	r25, 0xF7	; 247
    902e:	0e 94 3f 4f 	call	0x9e7e	; 0x9e7e <stopMeasurement>
    9032:	01 50       	subi	r16, 0x01	; 1
    9034:	11 09       	sbc	r17, r1
    9036:	51 f7       	brne	.-44     	; 0x900c <do_measurement_12289_512+0xf6>
    9038:	65 eb       	ldi	r22, 0xB5	; 181
    903a:	71 e2       	ldi	r23, 0x21	; 33
    903c:	ce 01       	movw	r24, r28
    903e:	8f 5f       	subi	r24, 0xFF	; 255
    9040:	97 4f       	sbci	r25, 0xF7	; 247
    9042:	0e 94 84 4f 	call	0x9f08	; 0x9f08 <printResult>
    9046:	04 e6       	ldi	r16, 0x64	; 100
    9048:	10 e0       	ldi	r17, 0x00	; 0
    904a:	ce 01       	movw	r24, r28
    904c:	8f 5f       	subi	r24, 0xFF	; 255
    904e:	9b 4f       	sbci	r25, 0xFB	; 251
    9050:	0e 94 f5 4e 	call	0x9dea	; 0x9dea <generateRandomPolyTable_12289_512>
    9054:	80 91 02 20 	lds	r24, 0x2002	; 0x802002 <__malloc_heap_start>
    9058:	90 91 03 20 	lds	r25, 0x2003	; 0x802003 <__malloc_heap_start+0x1>
    905c:	0e 94 c8 2e 	call	0x5d90	; 0x5d90 <startRAM>
    9060:	80 93 5a 24 	sts	0x245A, r24	; 0x80245a <start>
    9064:	90 93 5b 24 	sts	0x245B, r25	; 0x80245b <start+0x1>
    9068:	0e 94 30 4f 	call	0x9e60	; 0x9e60 <startMeasurement>
    906c:	64 eb       	ldi	r22, 0xB4	; 180
    906e:	76 e4       	ldi	r23, 0x46	; 70
    9070:	ce 01       	movw	r24, r28
    9072:	8f 5f       	subi	r24, 0xFF	; 255
    9074:	9b 4f       	sbci	r25, 0xFB	; 251
    9076:	0e 94 07 43 	call	0x860e	; 0x860e <pw_mul_flash_12289_512>
    907a:	ce 01       	movw	r24, r28
    907c:	8f 5f       	subi	r24, 0xFF	; 255
    907e:	97 4f       	sbci	r25, 0xF7	; 247
    9080:	0e 94 3f 4f 	call	0x9e7e	; 0x9e7e <stopMeasurement>
    9084:	0e 94 db 2e 	call	0x5db6	; 0x5db6 <endRAM>
    9088:	80 93 58 24 	sts	0x2458, r24	; 0x802458 <end>
    908c:	90 93 59 24 	sts	0x2459, r25	; 0x802459 <end+0x1>
    9090:	01 50       	subi	r16, 0x01	; 1
    9092:	11 09       	sbc	r17, r1
    9094:	d1 f6       	brne	.-76     	; 0x904a <do_measurement_12289_512+0x134>
    9096:	60 91 5a 24 	lds	r22, 0x245A	; 0x80245a <start>
    909a:	70 91 5b 24 	lds	r23, 0x245B	; 0x80245b <start+0x1>
    909e:	68 1b       	sub	r22, r24
    90a0:	79 0b       	sbc	r23, r25
    90a2:	4a ee       	ldi	r20, 0xEA	; 234
    90a4:	51 e2       	ldi	r21, 0x21	; 33
    90a6:	ce 01       	movw	r24, r28
    90a8:	8f 5f       	subi	r24, 0xFF	; 255
    90aa:	97 4f       	sbci	r25, 0xF7	; 247
    90ac:	0e 94 d8 4f 	call	0x9fb0	; 0x9fb0 <printResultRAM>
    90b0:	04 e6       	ldi	r16, 0x64	; 100
    90b2:	10 e0       	ldi	r17, 0x00	; 0
    90b4:	ce 01       	movw	r24, r28
    90b6:	8f 5f       	subi	r24, 0xFF	; 255
    90b8:	9b 4f       	sbci	r25, 0xFB	; 251
    90ba:	0e 94 f5 4e 	call	0x9dea	; 0x9dea <generateRandomPolyTable_12289_512>
    90be:	80 91 02 20 	lds	r24, 0x2002	; 0x802002 <__malloc_heap_start>
    90c2:	90 91 03 20 	lds	r25, 0x2003	; 0x802003 <__malloc_heap_start+0x1>
    90c6:	0e 94 c8 2e 	call	0x5d90	; 0x5d90 <startRAM>
    90ca:	80 93 5a 24 	sts	0x245A, r24	; 0x80245a <start>
    90ce:	90 93 5b 24 	sts	0x245B, r25	; 0x80245b <start+0x1>
    90d2:	0e 94 30 4f 	call	0x9e60	; 0x9e60 <startMeasurement>
    90d6:	41 e3       	ldi	r20, 0x31	; 49
    90d8:	50 e0       	ldi	r21, 0x00	; 0
    90da:	61 e0       	ldi	r22, 0x01	; 1
    90dc:	70 e0       	ldi	r23, 0x00	; 0
    90de:	ce 01       	movw	r24, r28
    90e0:	8f 5f       	subi	r24, 0xFF	; 255
    90e2:	9b 4f       	sbci	r25, 0xFB	; 251
    90e4:	0e 94 df 42 	call	0x85be	; 0x85be <pw_psi_12289>
    90e8:	ce 01       	movw	r24, r28
    90ea:	8f 5f       	subi	r24, 0xFF	; 255
    90ec:	97 4f       	sbci	r25, 0xF7	; 247
    90ee:	0e 94 3f 4f 	call	0x9e7e	; 0x9e7e <stopMeasurement>
    90f2:	0e 94 db 2e 	call	0x5db6	; 0x5db6 <endRAM>
    90f6:	80 93 58 24 	sts	0x2458, r24	; 0x802458 <end>
    90fa:	90 93 59 24 	sts	0x2459, r25	; 0x802459 <end+0x1>
    90fe:	01 50       	subi	r16, 0x01	; 1
    9100:	11 09       	sbc	r17, r1
    9102:	c1 f6       	brne	.-80     	; 0x90b4 <do_measurement_12289_512+0x19e>
    9104:	60 91 5a 24 	lds	r22, 0x245A	; 0x80245a <start>
    9108:	70 91 5b 24 	lds	r23, 0x245B	; 0x80245b <start+0x1>
    910c:	68 1b       	sub	r22, r24
    910e:	79 0b       	sbc	r23, r25
    9110:	49 ef       	ldi	r20, 0xF9	; 249
    9112:	51 e2       	ldi	r21, 0x21	; 33
    9114:	ce 01       	movw	r24, r28
    9116:	8f 5f       	subi	r24, 0xFF	; 255
    9118:	97 4f       	sbci	r25, 0xF7	; 247
    911a:	0e 94 d8 4f 	call	0x9fb0	; 0x9fb0 <printResultRAM>
    911e:	04 e6       	ldi	r16, 0x64	; 100
    9120:	10 e0       	ldi	r17, 0x00	; 0
    9122:	ce 01       	movw	r24, r28
    9124:	8f 5f       	subi	r24, 0xFF	; 255
    9126:	9b 4f       	sbci	r25, 0xFB	; 251
    9128:	0e 94 f5 4e 	call	0x9dea	; 0x9dea <generateRandomPolyTable_12289_512>
    912c:	ce 01       	movw	r24, r28
    912e:	01 96       	adiw	r24, 0x01	; 1
    9130:	0e 94 f5 4e 	call	0x9dea	; 0x9dea <generateRandomPolyTable_12289_512>
    9134:	80 91 02 20 	lds	r24, 0x2002	; 0x802002 <__malloc_heap_start>
    9138:	90 91 03 20 	lds	r25, 0x2003	; 0x802003 <__malloc_heap_start+0x1>
    913c:	0e 94 c8 2e 	call	0x5d90	; 0x5d90 <startRAM>
    9140:	80 93 5a 24 	sts	0x245A, r24	; 0x80245a <start>
    9144:	90 93 5b 24 	sts	0x245B, r25	; 0x80245b <start+0x1>
    9148:	0e 94 30 4f 	call	0x9e60	; 0x9e60 <startMeasurement>
    914c:	ae 01       	movw	r20, r28
    914e:	4f 5f       	subi	r20, 0xFF	; 255
    9150:	5b 4f       	sbci	r21, 0xFB	; 251
    9152:	be 01       	movw	r22, r28
    9154:	6f 5f       	subi	r22, 0xFF	; 255
    9156:	7f 4f       	sbci	r23, 0xFF	; 255
    9158:	ca 01       	movw	r24, r20
    915a:	0e 94 29 43 	call	0x8652	; 0x8652 <add_12289>
    915e:	ce 01       	movw	r24, r28
    9160:	8f 5f       	subi	r24, 0xFF	; 255
    9162:	97 4f       	sbci	r25, 0xF7	; 247
    9164:	0e 94 3f 4f 	call	0x9e7e	; 0x9e7e <stopMeasurement>
    9168:	0e 94 db 2e 	call	0x5db6	; 0x5db6 <endRAM>
    916c:	80 93 58 24 	sts	0x2458, r24	; 0x802458 <end>
    9170:	90 93 59 24 	sts	0x2459, r25	; 0x802459 <end+0x1>
    9174:	01 50       	subi	r16, 0x01	; 1
    9176:	11 09       	sbc	r17, r1
    9178:	a1 f6       	brne	.-88     	; 0x9122 <do_measurement_12289_512+0x20c>
    917a:	60 91 5a 24 	lds	r22, 0x245A	; 0x80245a <start>
    917e:	70 91 5b 24 	lds	r23, 0x245B	; 0x80245b <start+0x1>
    9182:	68 1b       	sub	r22, r24
    9184:	79 0b       	sbc	r23, r25
    9186:	46 e0       	ldi	r20, 0x06	; 6
    9188:	52 e2       	ldi	r21, 0x22	; 34
    918a:	ce 01       	movw	r24, r28
    918c:	8f 5f       	subi	r24, 0xFF	; 255
    918e:	97 4f       	sbci	r25, 0xF7	; 247
    9190:	0e 94 d8 4f 	call	0x9fb0	; 0x9fb0 <printResultRAM>
    9194:	cf 5f       	subi	r28, 0xFF	; 255
    9196:	d7 4f       	sbci	r29, 0xF7	; 247
    9198:	18 82       	st	Y, r1
    919a:	c1 50       	subi	r28, 0x01	; 1
    919c:	d8 40       	sbci	r29, 0x08	; 8
    919e:	ce 5f       	subi	r28, 0xFE	; 254
    91a0:	d7 4f       	sbci	r29, 0xF7	; 247
    91a2:	18 82       	st	Y, r1
    91a4:	c2 50       	subi	r28, 0x02	; 2
    91a6:	d8 40       	sbci	r29, 0x08	; 8
    91a8:	cd 5f       	subi	r28, 0xFD	; 253
    91aa:	d7 4f       	sbci	r29, 0xF7	; 247
    91ac:	18 82       	st	Y, r1
    91ae:	c3 50       	subi	r28, 0x03	; 3
    91b0:	d8 40       	sbci	r29, 0x08	; 8
    91b2:	cc 5f       	subi	r28, 0xFC	; 252
    91b4:	d7 4f       	sbci	r29, 0xF7	; 247
    91b6:	18 82       	st	Y, r1
    91b8:	c4 50       	subi	r28, 0x04	; 4
    91ba:	d8 40       	sbci	r29, 0x08	; 8
    91bc:	cb 5f       	subi	r28, 0xFB	; 251
    91be:	d7 4f       	sbci	r29, 0xF7	; 247
    91c0:	18 82       	st	Y, r1
    91c2:	c5 50       	subi	r28, 0x05	; 5
    91c4:	d8 40       	sbci	r29, 0x08	; 8
    91c6:	ca 5f       	subi	r28, 0xFA	; 250
    91c8:	d7 4f       	sbci	r29, 0xF7	; 247
    91ca:	18 82       	st	Y, r1
    91cc:	c6 50       	subi	r28, 0x06	; 6
    91ce:	d8 40       	sbci	r29, 0x08	; 8
    91d0:	c9 5f       	subi	r28, 0xF9	; 249
    91d2:	d7 4f       	sbci	r29, 0xF7	; 247
    91d4:	18 82       	st	Y, r1
    91d6:	c7 50       	subi	r28, 0x07	; 7
    91d8:	d8 40       	sbci	r29, 0x08	; 8
    91da:	c8 5f       	subi	r28, 0xF8	; 248
    91dc:	d7 4f       	sbci	r29, 0xF7	; 247
    91de:	18 82       	st	Y, r1
    91e0:	c8 50       	subi	r28, 0x08	; 8
    91e2:	d8 40       	sbci	r29, 0x08	; 8
    91e4:	04 e6       	ldi	r16, 0x64	; 100
    91e6:	10 e0       	ldi	r17, 0x00	; 0
    91e8:	80 91 02 20 	lds	r24, 0x2002	; 0x802002 <__malloc_heap_start>
    91ec:	90 91 03 20 	lds	r25, 0x2003	; 0x802003 <__malloc_heap_start+0x1>
    91f0:	0e 94 c8 2e 	call	0x5d90	; 0x5d90 <startRAM>
    91f4:	80 93 5a 24 	sts	0x245A, r24	; 0x80245a <start>
    91f8:	90 93 5b 24 	sts	0x245B, r25	; 0x80245b <start+0x1>
    91fc:	0e 94 30 4f 	call	0x9e60	; 0x9e60 <startMeasurement>
    9200:	70 e0       	ldi	r23, 0x00	; 0
    9202:	60 e0       	ldi	r22, 0x00	; 0
    9204:	ce 01       	movw	r24, r28
    9206:	8f 5f       	subi	r24, 0xFF	; 255
    9208:	9b 4f       	sbci	r25, 0xFB	; 251
    920a:	0e 94 24 3f 	call	0x7e48	; 0x7e48 <get_gauss_poly_12289_512>
    920e:	ce 01       	movw	r24, r28
    9210:	8f 5f       	subi	r24, 0xFF	; 255
    9212:	97 4f       	sbci	r25, 0xF7	; 247
    9214:	0e 94 3f 4f 	call	0x9e7e	; 0x9e7e <stopMeasurement>
    9218:	0e 94 db 2e 	call	0x5db6	; 0x5db6 <endRAM>
    921c:	80 93 58 24 	sts	0x2458, r24	; 0x802458 <end>
    9220:	90 93 59 24 	sts	0x2459, r25	; 0x802459 <end+0x1>
    9224:	01 50       	subi	r16, 0x01	; 1
    9226:	11 09       	sbc	r17, r1
    9228:	f9 f6       	brne	.-66     	; 0x91e8 <do_measurement_12289_512+0x2d2>
    922a:	60 91 5a 24 	lds	r22, 0x245A	; 0x80245a <start>
    922e:	70 91 5b 24 	lds	r23, 0x245B	; 0x80245b <start+0x1>
    9232:	68 1b       	sub	r22, r24
    9234:	79 0b       	sbc	r23, r25
    9236:	4c e0       	ldi	r20, 0x0C	; 12
    9238:	52 e2       	ldi	r21, 0x22	; 34
    923a:	ce 01       	movw	r24, r28
    923c:	8f 5f       	subi	r24, 0xFF	; 255
    923e:	97 4f       	sbci	r25, 0xF7	; 247
    9240:	0e 94 d8 4f 	call	0x9fb0	; 0x9fb0 <printResultRAM>
    9244:	04 e6       	ldi	r16, 0x64	; 100
    9246:	10 e0       	ldi	r17, 0x00	; 0
    9248:	80 91 02 20 	lds	r24, 0x2002	; 0x802002 <__malloc_heap_start>
    924c:	90 91 03 20 	lds	r25, 0x2003	; 0x802003 <__malloc_heap_start+0x1>
    9250:	0e 94 c8 2e 	call	0x5d90	; 0x5d90 <startRAM>
    9254:	80 93 5a 24 	sts	0x245A, r24	; 0x80245a <start>
    9258:	90 93 5b 24 	sts	0x245B, r25	; 0x80245b <start+0x1>
    925c:	0e 94 30 4f 	call	0x9e60	; 0x9e60 <startMeasurement>
    9260:	ce 01       	movw	r24, r28
    9262:	8f 5f       	subi	r24, 0xFF	; 255
    9264:	9b 4f       	sbci	r25, 0xFB	; 251
    9266:	0e 94 f5 4e 	call	0x9dea	; 0x9dea <generateRandomPolyTable_12289_512>
    926a:	ce 01       	movw	r24, r28
    926c:	8f 5f       	subi	r24, 0xFF	; 255
    926e:	97 4f       	sbci	r25, 0xF7	; 247
    9270:	0e 94 3f 4f 	call	0x9e7e	; 0x9e7e <stopMeasurement>
    9274:	0e 94 db 2e 	call	0x5db6	; 0x5db6 <endRAM>
    9278:	80 93 58 24 	sts	0x2458, r24	; 0x802458 <end>
    927c:	90 93 59 24 	sts	0x2459, r25	; 0x802459 <end+0x1>
    9280:	01 50       	subi	r16, 0x01	; 1
    9282:	11 09       	sbc	r17, r1
    9284:	09 f7       	brne	.-62     	; 0x9248 <do_measurement_12289_512+0x332>
    9286:	60 91 5a 24 	lds	r22, 0x245A	; 0x80245a <start>
    928a:	70 91 5b 24 	lds	r23, 0x245B	; 0x80245b <start+0x1>
    928e:	68 1b       	sub	r22, r24
    9290:	79 0b       	sbc	r23, r25
    9292:	47 e2       	ldi	r20, 0x27	; 39
    9294:	52 e2       	ldi	r21, 0x22	; 34
    9296:	ce 01       	movw	r24, r28
    9298:	8f 5f       	subi	r24, 0xFF	; 255
    929a:	97 4f       	sbci	r25, 0xF7	; 247
    929c:	0e 94 d8 4f 	call	0x9fb0	; 0x9fb0 <printResultRAM>
    92a0:	ce 5b       	subi	r28, 0xBE	; 190
    92a2:	d7 4f       	sbci	r29, 0xF7	; 247
    92a4:	18 82       	st	Y, r1
    92a6:	c2 54       	subi	r28, 0x42	; 66
    92a8:	d8 40       	sbci	r29, 0x08	; 8
    92aa:	cd 5b       	subi	r28, 0xBD	; 189
    92ac:	d7 4f       	sbci	r29, 0xF7	; 247
    92ae:	18 82       	st	Y, r1
    92b0:	c3 54       	subi	r28, 0x43	; 67
    92b2:	d8 40       	sbci	r29, 0x08	; 8
    92b4:	cc 5b       	subi	r28, 0xBC	; 188
    92b6:	d7 4f       	sbci	r29, 0xF7	; 247
    92b8:	18 82       	st	Y, r1
    92ba:	c4 54       	subi	r28, 0x44	; 68
    92bc:	d8 40       	sbci	r29, 0x08	; 8
    92be:	cb 5b       	subi	r28, 0xBB	; 187
    92c0:	d7 4f       	sbci	r29, 0xF7	; 247
    92c2:	18 82       	st	Y, r1
    92c4:	c5 54       	subi	r28, 0x45	; 69
    92c6:	d8 40       	sbci	r29, 0x08	; 8
    92c8:	ca 5b       	subi	r28, 0xBA	; 186
    92ca:	d7 4f       	sbci	r29, 0xF7	; 247
    92cc:	18 82       	st	Y, r1
    92ce:	c6 54       	subi	r28, 0x46	; 70
    92d0:	d8 40       	sbci	r29, 0x08	; 8
    92d2:	c9 5b       	subi	r28, 0xB9	; 185
    92d4:	d7 4f       	sbci	r29, 0xF7	; 247
    92d6:	18 82       	st	Y, r1
    92d8:	c7 54       	subi	r28, 0x47	; 71
    92da:	d8 40       	sbci	r29, 0x08	; 8
    92dc:	c8 5b       	subi	r28, 0xB8	; 184
    92de:	d7 4f       	sbci	r29, 0xF7	; 247
    92e0:	18 82       	st	Y, r1
    92e2:	c8 54       	subi	r28, 0x48	; 72
    92e4:	d8 40       	sbci	r29, 0x08	; 8
    92e6:	c7 5b       	subi	r28, 0xB7	; 183
    92e8:	d7 4f       	sbci	r29, 0xF7	; 247
    92ea:	18 82       	st	Y, r1
    92ec:	c9 54       	subi	r28, 0x49	; 73
    92ee:	d8 40       	sbci	r29, 0x08	; 8
    92f0:	81 e4       	ldi	r24, 0x41	; 65
    92f2:	e6 e5       	ldi	r30, 0x56	; 86
    92f4:	f2 e2       	ldi	r31, 0x22	; 34
    92f6:	de 01       	movw	r26, r28
    92f8:	af 5f       	subi	r26, 0xFF	; 255
    92fa:	b7 4f       	sbci	r27, 0xF7	; 247
    92fc:	01 90       	ld	r0, Z+
    92fe:	0d 92       	st	X+, r0
    9300:	8a 95       	dec	r24
    9302:	e1 f7       	brne	.-8      	; 0x92fc <do_measurement_12289_512+0x3e6>
    9304:	f1 2c       	mov	r15, r1
    9306:	ce 01       	movw	r24, r28
    9308:	8f 5f       	subi	r24, 0xFF	; 255
    930a:	9b 4f       	sbci	r25, 0xFB	; 251
    930c:	0e 94 f5 4e 	call	0x9dea	; 0x9dea <generateRandomPolyTable_12289_512>
    9310:	ce 01       	movw	r24, r28
    9312:	01 96       	adiw	r24, 0x01	; 1
    9314:	0e 94 f5 4e 	call	0x9dea	; 0x9dea <generateRandomPolyTable_12289_512>
    9318:	cf 5f       	subi	r28, 0xFF	; 255
    931a:	d7 4f       	sbci	r29, 0xF7	; 247
    931c:	f8 82       	st	Y, r15
    931e:	c1 50       	subi	r28, 0x01	; 1
    9320:	d8 40       	sbci	r29, 0x08	; 8
    9322:	8a e0       	ldi	r24, 0x0A	; 10
    9324:	8f 0d       	add	r24, r15
    9326:	ce 5f       	subi	r28, 0xFE	; 254
    9328:	d7 4f       	sbci	r29, 0xF7	; 247
    932a:	88 83       	st	Y, r24
    932c:	c2 50       	subi	r28, 0x02	; 2
    932e:	d8 40       	sbci	r29, 0x08	; 8
    9330:	87 e3       	ldi	r24, 0x37	; 55
    9332:	8f 0d       	add	r24, r15
    9334:	cd 5f       	subi	r28, 0xFD	; 253
    9336:	d7 4f       	sbci	r29, 0xF7	; 247
    9338:	88 83       	st	Y, r24
    933a:	c3 50       	subi	r28, 0x03	; 3
    933c:	d8 40       	sbci	r29, 0x08	; 8
    933e:	80 91 02 20 	lds	r24, 0x2002	; 0x802002 <__malloc_heap_start>
    9342:	90 91 03 20 	lds	r25, 0x2003	; 0x802003 <__malloc_heap_start+0x1>
    9346:	0e 94 c8 2e 	call	0x5d90	; 0x5d90 <startRAM>
    934a:	80 93 5a 24 	sts	0x245A, r24	; 0x80245a <start>
    934e:	90 93 5b 24 	sts	0x245B, r25	; 0x80245b <start+0x1>
    9352:	0e 94 30 4f 	call	0x9e60	; 0x9e60 <startMeasurement>
    9356:	04 eb       	ldi	r16, 0xB4	; 180
    9358:	1e e3       	ldi	r17, 0x3E	; 62
    935a:	24 eb       	ldi	r18, 0xB4	; 180
    935c:	3a e3       	ldi	r19, 0x3A	; 58
    935e:	ae 01       	movw	r20, r28
    9360:	4f 5f       	subi	r20, 0xFF	; 255
    9362:	5f 4f       	sbci	r21, 0xFF	; 255
    9364:	be 01       	movw	r22, r28
    9366:	6f 5f       	subi	r22, 0xFF	; 255
    9368:	7b 4f       	sbci	r23, 0xFB	; 251
    936a:	ce 01       	movw	r24, r28
    936c:	8f 5f       	subi	r24, 0xFF	; 255
    936e:	97 4f       	sbci	r25, 0xF7	; 247
    9370:	0e 94 84 43 	call	0x8708	; 0x8708 <encrypt_12289_512>
    9374:	ce 01       	movw	r24, r28
    9376:	8e 5b       	subi	r24, 0xBE	; 190
    9378:	97 4f       	sbci	r25, 0xF7	; 247
    937a:	0e 94 3f 4f 	call	0x9e7e	; 0x9e7e <stopMeasurement>
    937e:	0e 94 db 2e 	call	0x5db6	; 0x5db6 <endRAM>
    9382:	9c 01       	movw	r18, r24
    9384:	80 93 58 24 	sts	0x2458, r24	; 0x802458 <end>
    9388:	90 93 59 24 	sts	0x2459, r25	; 0x802459 <end+0x1>
    938c:	f3 94       	inc	r15
    938e:	84 e6       	ldi	r24, 0x64	; 100
    9390:	f8 12       	cpse	r15, r24
    9392:	b9 cf       	rjmp	.-142    	; 0x9306 <do_measurement_12289_512+0x3f0>
    9394:	60 91 5a 24 	lds	r22, 0x245A	; 0x80245a <start>
    9398:	70 91 5b 24 	lds	r23, 0x245B	; 0x80245b <start+0x1>
    939c:	62 1b       	sub	r22, r18
    939e:	73 0b       	sbc	r23, r19
    93a0:	45 ee       	ldi	r20, 0xE5	; 229
    93a2:	50 e2       	ldi	r21, 0x20	; 32
    93a4:	ce 01       	movw	r24, r28
    93a6:	8e 5b       	subi	r24, 0xBE	; 190
    93a8:	97 4f       	sbci	r25, 0xF7	; 247
    93aa:	0e 94 d8 4f 	call	0x9fb0	; 0x9fb0 <printResultRAM>
    93ae:	04 e6       	ldi	r16, 0x64	; 100
    93b0:	10 e0       	ldi	r17, 0x00	; 0
    93b2:	ce 01       	movw	r24, r28
    93b4:	8f 5f       	subi	r24, 0xFF	; 255
    93b6:	9b 4f       	sbci	r25, 0xFB	; 251
    93b8:	0e 94 ff 4e 	call	0x9dfe	; 0x9dfe <generateRandomPolyTable_7681_256>
    93bc:	ce 01       	movw	r24, r28
    93be:	01 96       	adiw	r24, 0x01	; 1
    93c0:	0e 94 ff 4e 	call	0x9dfe	; 0x9dfe <generateRandomPolyTable_7681_256>
    93c4:	80 91 02 20 	lds	r24, 0x2002	; 0x802002 <__malloc_heap_start>
    93c8:	90 91 03 20 	lds	r25, 0x2003	; 0x802003 <__malloc_heap_start+0x1>
    93cc:	0e 94 c8 2e 	call	0x5d90	; 0x5d90 <startRAM>
    93d0:	80 93 5a 24 	sts	0x245A, r24	; 0x80245a <start>
    93d4:	90 93 5b 24 	sts	0x245B, r25	; 0x80245b <start+0x1>
    93d8:	0e 94 30 4f 	call	0x9e60	; 0x9e60 <startMeasurement>
    93dc:	24 eb       	ldi	r18, 0xB4	; 180
    93de:	32 e4       	ldi	r19, 0x42	; 66
    93e0:	ae 01       	movw	r20, r28
    93e2:	4f 5f       	subi	r20, 0xFF	; 255
    93e4:	5f 4f       	sbci	r21, 0xFF	; 255
    93e6:	be 01       	movw	r22, r28
    93e8:	6f 5f       	subi	r22, 0xFF	; 255
    93ea:	7b 4f       	sbci	r23, 0xFB	; 251
    93ec:	ce 01       	movw	r24, r28
    93ee:	8f 5f       	subi	r24, 0xFF	; 255
    93f0:	97 4f       	sbci	r25, 0xF7	; 247
    93f2:	0e 94 2c 44 	call	0x8858	; 0x8858 <decrypt_12289_512>
    93f6:	ce 01       	movw	r24, r28
    93f8:	8e 5b       	subi	r24, 0xBE	; 190
    93fa:	97 4f       	sbci	r25, 0xF7	; 247
    93fc:	0e 94 3f 4f 	call	0x9e7e	; 0x9e7e <stopMeasurement>
    9400:	0e 94 db 2e 	call	0x5db6	; 0x5db6 <endRAM>
    9404:	80 93 58 24 	sts	0x2458, r24	; 0x802458 <end>
    9408:	90 93 59 24 	sts	0x2459, r25	; 0x802459 <end+0x1>
    940c:	01 50       	subi	r16, 0x01	; 1
    940e:	11 09       	sbc	r17, r1
    9410:	81 f6       	brne	.-96     	; 0x93b2 <do_measurement_12289_512+0x49c>
    9412:	60 91 5a 24 	lds	r22, 0x245A	; 0x80245a <start>
    9416:	70 91 5b 24 	lds	r23, 0x245B	; 0x80245b <start+0x1>
    941a:	68 1b       	sub	r22, r24
    941c:	79 0b       	sbc	r23, r25
    941e:	42 ef       	ldi	r20, 0xF2	; 242
    9420:	50 e2       	ldi	r21, 0x20	; 32
    9422:	ce 01       	movw	r24, r28
    9424:	8e 5b       	subi	r24, 0xBE	; 190
    9426:	97 4f       	sbci	r25, 0xF7	; 247
    9428:	0e 94 d8 4f 	call	0x9fb0	; 0x9fb0 <printResultRAM>
    942c:	10 e0       	ldi	r17, 0x00	; 0
    942e:	cf 5f       	subi	r28, 0xFF	; 255
    9430:	d7 4f       	sbci	r29, 0xF7	; 247
    9432:	18 83       	st	Y, r17
    9434:	c1 50       	subi	r28, 0x01	; 1
    9436:	d8 40       	sbci	r29, 0x08	; 8
    9438:	8a e0       	ldi	r24, 0x0A	; 10
    943a:	81 0f       	add	r24, r17
    943c:	ce 5f       	subi	r28, 0xFE	; 254
    943e:	d7 4f       	sbci	r29, 0xF7	; 247
    9440:	88 83       	st	Y, r24
    9442:	c2 50       	subi	r28, 0x02	; 2
    9444:	d8 40       	sbci	r29, 0x08	; 8
    9446:	87 e3       	ldi	r24, 0x37	; 55
    9448:	81 0f       	add	r24, r17
    944a:	cd 5f       	subi	r28, 0xFD	; 253
    944c:	d7 4f       	sbci	r29, 0xF7	; 247
    944e:	88 83       	st	Y, r24
    9450:	c3 50       	subi	r28, 0x03	; 3
    9452:	d8 40       	sbci	r29, 0x08	; 8
    9454:	80 91 02 20 	lds	r24, 0x2002	; 0x802002 <__malloc_heap_start>
    9458:	90 91 03 20 	lds	r25, 0x2003	; 0x802003 <__malloc_heap_start+0x1>
    945c:	0e 94 c8 2e 	call	0x5d90	; 0x5d90 <startRAM>
    9460:	80 93 5a 24 	sts	0x245A, r24	; 0x80245a <start>
    9464:	90 93 5b 24 	sts	0x245B, r25	; 0x80245b <start+0x1>
    9468:	0e 94 30 4f 	call	0x9e60	; 0x9e60 <startMeasurement>
    946c:	be 01       	movw	r22, r28
    946e:	6f 5f       	subi	r22, 0xFF	; 255
    9470:	7b 4f       	sbci	r23, 0xFB	; 251
    9472:	ce 01       	movw	r24, r28
    9474:	8f 5f       	subi	r24, 0xFF	; 255
    9476:	97 4f       	sbci	r25, 0xF7	; 247
    9478:	0e 94 55 43 	call	0x86aa	; 0x86aa <add_encode_12289_512>
    947c:	ce 01       	movw	r24, r28
    947e:	8e 5b       	subi	r24, 0xBE	; 190
    9480:	97 4f       	sbci	r25, 0xF7	; 247
    9482:	0e 94 3f 4f 	call	0x9e7e	; 0x9e7e <stopMeasurement>
    9486:	0e 94 db 2e 	call	0x5db6	; 0x5db6 <endRAM>
    948a:	80 93 58 24 	sts	0x2458, r24	; 0x802458 <end>
    948e:	90 93 59 24 	sts	0x2459, r25	; 0x802459 <end+0x1>
    9492:	1f 5f       	subi	r17, 0xFF	; 255
    9494:	14 36       	cpi	r17, 0x64	; 100
    9496:	59 f6       	brne	.-106    	; 0x942e <do_measurement_12289_512+0x518>
    9498:	60 91 5a 24 	lds	r22, 0x245A	; 0x80245a <start>
    949c:	70 91 5b 24 	lds	r23, 0x245B	; 0x80245b <start+0x1>
    94a0:	68 1b       	sub	r22, r24
    94a2:	79 0b       	sbc	r23, r25
    94a4:	40 e4       	ldi	r20, 0x40	; 64
    94a6:	52 e2       	ldi	r21, 0x22	; 34
    94a8:	ce 01       	movw	r24, r28
    94aa:	8e 5b       	subi	r24, 0xBE	; 190
    94ac:	97 4f       	sbci	r25, 0xF7	; 247
    94ae:	0e 94 d8 4f 	call	0x9fb0	; 0x9fb0 <printResultRAM>
    94b2:	04 e6       	ldi	r16, 0x64	; 100
    94b4:	10 e0       	ldi	r17, 0x00	; 0
    94b6:	ce 01       	movw	r24, r28
    94b8:	8f 5f       	subi	r24, 0xFF	; 255
    94ba:	9b 4f       	sbci	r25, 0xFB	; 251
    94bc:	0e 94 f5 4e 	call	0x9dea	; 0x9dea <generateRandomPolyTable_12289_512>
    94c0:	80 91 02 20 	lds	r24, 0x2002	; 0x802002 <__malloc_heap_start>
    94c4:	90 91 03 20 	lds	r25, 0x2003	; 0x802003 <__malloc_heap_start+0x1>
    94c8:	0e 94 c8 2e 	call	0x5d90	; 0x5d90 <startRAM>
    94cc:	80 93 5a 24 	sts	0x245A, r24	; 0x80245a <start>
    94d0:	90 93 5b 24 	sts	0x245B, r25	; 0x80245b <start+0x1>
    94d4:	0e 94 30 4f 	call	0x9e60	; 0x9e60 <startMeasurement>
    94d8:	be 01       	movw	r22, r28
    94da:	6f 5f       	subi	r22, 0xFF	; 255
    94dc:	77 4f       	sbci	r23, 0xF7	; 247
    94de:	ce 01       	movw	r24, r28
    94e0:	8f 5f       	subi	r24, 0xFF	; 255
    94e2:	9b 4f       	sbci	r25, 0xFB	; 251
    94e4:	0e 94 02 44 	call	0x8804	; 0x8804 <decode_12289_512>
    94e8:	ce 01       	movw	r24, r28
    94ea:	8e 5b       	subi	r24, 0xBE	; 190
    94ec:	97 4f       	sbci	r25, 0xF7	; 247
    94ee:	0e 94 3f 4f 	call	0x9e7e	; 0x9e7e <stopMeasurement>
    94f2:	0e 94 db 2e 	call	0x5db6	; 0x5db6 <endRAM>
    94f6:	80 93 58 24 	sts	0x2458, r24	; 0x802458 <end>
    94fa:	90 93 59 24 	sts	0x2459, r25	; 0x802459 <end+0x1>
    94fe:	01 50       	subi	r16, 0x01	; 1
    9500:	11 09       	sbc	r17, r1
    9502:	c9 f6       	brne	.-78     	; 0x94b6 <do_measurement_12289_512+0x5a0>
    9504:	60 91 5a 24 	lds	r22, 0x245A	; 0x80245a <start>
    9508:	70 91 5b 24 	lds	r23, 0x245B	; 0x80245b <start+0x1>
    950c:	68 1b       	sub	r22, r24
    950e:	79 0b       	sbc	r23, r25
    9510:	4b e4       	ldi	r20, 0x4B	; 75
    9512:	52 e2       	ldi	r21, 0x22	; 34
    9514:	ce 01       	movw	r24, r28
    9516:	8e 5b       	subi	r24, 0xBE	; 190
    9518:	97 4f       	sbci	r25, 0xF7	; 247
    951a:	0e 94 d8 4f 	call	0x9fb0	; 0x9fb0 <printResultRAM>
    951e:	8a e0       	ldi	r24, 0x0A	; 10
    9520:	90 e0       	ldi	r25, 0x00	; 0
    9522:	0e 94 33 51 	call	0xa266	; 0xa266 <putchar>
    9526:	c7 5b       	subi	r28, 0xB7	; 183
    9528:	d7 4f       	sbci	r29, 0xF7	; 247
    952a:	cd bf       	out	0x3d, r28	; 61
    952c:	de bf       	out	0x3e, r29	; 62
    952e:	df 91       	pop	r29
    9530:	cf 91       	pop	r28
    9532:	1f 91       	pop	r17
    9534:	0f 91       	pop	r16
    9536:	ff 90       	pop	r15
    9538:	08 95       	ret

0000953a <do_measurement_7681_256>:
    953a:	4f 92       	push	r4
    953c:	5f 92       	push	r5
    953e:	6f 92       	push	r6
    9540:	7f 92       	push	r7
    9542:	8f 92       	push	r8
    9544:	9f 92       	push	r9
    9546:	af 92       	push	r10
    9548:	bf 92       	push	r11
    954a:	cf 92       	push	r12
    954c:	df 92       	push	r13
    954e:	ef 92       	push	r14
    9550:	ff 92       	push	r15
    9552:	0f 93       	push	r16
    9554:	1f 93       	push	r17
    9556:	cf 93       	push	r28
    9558:	df 93       	push	r29
    955a:	cd b7       	in	r28, 0x3d	; 61
    955c:	de b7       	in	r29, 0x3e	; 62
    955e:	cd 52       	subi	r28, 0x2D	; 45
    9560:	d4 40       	sbci	r29, 0x04	; 4
    9562:	cd bf       	out	0x3d, r28	; 61
    9564:	de bf       	out	0x3e, r29	; 62
    9566:	87 e9       	ldi	r24, 0x97	; 151
    9568:	92 e2       	ldi	r25, 0x22	; 34
    956a:	9f 93       	push	r25
    956c:	8f 93       	push	r24
    956e:	0e 94 21 51 	call	0xa242	; 0xa242 <printf>
    9572:	7e 01       	movw	r14, r28
    9574:	8f ef       	ldi	r24, 0xFF	; 255
    9576:	e8 1a       	sub	r14, r24
    9578:	8b ef       	ldi	r24, 0xFB	; 251
    957a:	f8 0a       	sbc	r15, r24
    957c:	f7 01       	movw	r30, r14
    957e:	10 82       	st	Z, r1
    9580:	11 82       	std	Z+1, r1	; 0x01
    9582:	12 82       	std	Z+2, r1	; 0x02
    9584:	13 82       	std	Z+3, r1	; 0x03
    9586:	14 82       	std	Z+4, r1	; 0x04
    9588:	15 82       	std	Z+5, r1	; 0x05
    958a:	16 82       	std	Z+6, r1	; 0x06
    958c:	17 82       	std	Z+7, r1	; 0x07
    958e:	0f 90       	pop	r0
    9590:	0f 90       	pop	r0
    9592:	04 e6       	ldi	r16, 0x64	; 100
    9594:	10 e0       	ldi	r17, 0x00	; 0
    9596:	ce 01       	movw	r24, r28
    9598:	8f 5f       	subi	r24, 0xFF	; 255
    959a:	9d 4f       	sbci	r25, 0xFD	; 253
    959c:	0e 94 ff 4e 	call	0x9dfe	; 0x9dfe <generateRandomPolyTable_7681_256>
    95a0:	0e 94 30 4f 	call	0x9e60	; 0x9e60 <startMeasurement>
    95a4:	64 eb       	ldi	r22, 0xB4	; 180
    95a6:	76 e5       	ldi	r23, 0x56	; 86
    95a8:	ce 01       	movw	r24, r28
    95aa:	8f 5f       	subi	r24, 0xFF	; 255
    95ac:	9d 4f       	sbci	r25, 0xFD	; 253
    95ae:	0e 94 da 3c 	call	0x79b4	; 0x79b4 <ntt_CT_no_to_bo_incl_psi_7681_256>
    95b2:	c7 01       	movw	r24, r14
    95b4:	0e 94 3f 4f 	call	0x9e7e	; 0x9e7e <stopMeasurement>
    95b8:	01 50       	subi	r16, 0x01	; 1
    95ba:	11 09       	sbc	r17, r1
    95bc:	61 f7       	brne	.-40     	; 0x9596 <do_measurement_7681_256+0x5c>
    95be:	6a e5       	ldi	r22, 0x5A	; 90
    95c0:	71 e2       	ldi	r23, 0x21	; 33
    95c2:	c7 01       	movw	r24, r14
    95c4:	0e 94 84 4f 	call	0x9f08	; 0x9f08 <printResult>
    95c8:	04 e6       	ldi	r16, 0x64	; 100
    95ca:	10 e0       	ldi	r17, 0x00	; 0
    95cc:	ce 01       	movw	r24, r28
    95ce:	8f 5f       	subi	r24, 0xFF	; 255
    95d0:	9d 4f       	sbci	r25, 0xFD	; 253
    95d2:	0e 94 ff 4e 	call	0x9dfe	; 0x9dfe <generateRandomPolyTable_7681_256>
    95d6:	0e 94 30 4f 	call	0x9e60	; 0x9e60 <startMeasurement>
    95da:	64 eb       	ldi	r22, 0xB4	; 180
    95dc:	76 e5       	ldi	r23, 0x56	; 86
    95de:	ce 01       	movw	r24, r28
    95e0:	8f 5f       	subi	r24, 0xFF	; 255
    95e2:	9d 4f       	sbci	r25, 0xFD	; 253
    95e4:	0e 94 1d 3c 	call	0x783a	; 0x783a <ntt_CT_no_to_bo_incl_psi_7681_256_nolookup>
    95e8:	c7 01       	movw	r24, r14
    95ea:	0e 94 3f 4f 	call	0x9e7e	; 0x9e7e <stopMeasurement>
    95ee:	01 50       	subi	r16, 0x01	; 1
    95f0:	11 09       	sbc	r17, r1
    95f2:	61 f7       	brne	.-40     	; 0x95cc <do_measurement_7681_256+0x92>
    95f4:	65 eb       	ldi	r22, 0xB5	; 181
    95f6:	71 e2       	ldi	r23, 0x21	; 33
    95f8:	c7 01       	movw	r24, r14
    95fa:	0e 94 84 4f 	call	0x9f08	; 0x9f08 <printResult>
    95fe:	04 e6       	ldi	r16, 0x64	; 100
    9600:	10 e0       	ldi	r17, 0x00	; 0
    9602:	ce 01       	movw	r24, r28
    9604:	8f 5f       	subi	r24, 0xFF	; 255
    9606:	9d 4f       	sbci	r25, 0xFD	; 253
    9608:	0e 94 ff 4e 	call	0x9dfe	; 0x9dfe <generateRandomPolyTable_7681_256>
    960c:	0e 94 30 4f 	call	0x9e60	; 0x9e60 <startMeasurement>
    9610:	64 eb       	ldi	r22, 0xB4	; 180
    9612:	74 e5       	ldi	r23, 0x54	; 84
    9614:	ce 01       	movw	r24, r28
    9616:	8f 5f       	subi	r24, 0xFF	; 255
    9618:	9d 4f       	sbci	r25, 0xFD	; 253
    961a:	0e 94 bc 3a 	call	0x7578	; 0x7578 <ntt_GS_bo_to_no_incl_invpsi_7681_256>
    961e:	c7 01       	movw	r24, r14
    9620:	0e 94 3f 4f 	call	0x9e7e	; 0x9e7e <stopMeasurement>
    9624:	01 50       	subi	r16, 0x01	; 1
    9626:	11 09       	sbc	r17, r1
    9628:	61 f7       	brne	.-40     	; 0x9602 <do_measurement_7681_256+0xc8>
    962a:	66 e8       	ldi	r22, 0x86	; 134
    962c:	71 e2       	ldi	r23, 0x21	; 33
    962e:	c7 01       	movw	r24, r14
    9630:	0e 94 84 4f 	call	0x9f08	; 0x9f08 <printResult>
    9634:	04 e6       	ldi	r16, 0x64	; 100
    9636:	10 e0       	ldi	r17, 0x00	; 0
    9638:	ce 01       	movw	r24, r28
    963a:	8f 5f       	subi	r24, 0xFF	; 255
    963c:	9d 4f       	sbci	r25, 0xFD	; 253
    963e:	0e 94 ff 4e 	call	0x9dfe	; 0x9dfe <generateRandomPolyTable_7681_256>
    9642:	ce 01       	movw	r24, r28
    9644:	01 96       	adiw	r24, 0x01	; 1
    9646:	0e 94 ff 4e 	call	0x9dfe	; 0x9dfe <generateRandomPolyTable_7681_256>
    964a:	0e 94 30 4f 	call	0x9e60	; 0x9e60 <startMeasurement>
    964e:	be 01       	movw	r22, r28
    9650:	6f 5f       	subi	r22, 0xFF	; 255
    9652:	7f 4f       	sbci	r23, 0xFF	; 255
    9654:	ce 01       	movw	r24, r28
    9656:	8f 5f       	subi	r24, 0xFF	; 255
    9658:	9d 4f       	sbci	r25, 0xFD	; 253
    965a:	0e 94 c4 3d 	call	0x7b88	; 0x7b88 <pw_mul_flash_7681_256>
    965e:	c7 01       	movw	r24, r14
    9660:	0e 94 3f 4f 	call	0x9e7e	; 0x9e7e <stopMeasurement>
    9664:	01 50       	subi	r16, 0x01	; 1
    9666:	11 09       	sbc	r17, r1
    9668:	39 f7       	brne	.-50     	; 0x9638 <do_measurement_7681_256+0xfe>
    966a:	6a ee       	ldi	r22, 0xEA	; 234
    966c:	71 e2       	ldi	r23, 0x21	; 33
    966e:	c7 01       	movw	r24, r14
    9670:	0e 94 84 4f 	call	0x9f08	; 0x9f08 <printResult>
    9674:	84 e6       	ldi	r24, 0x64	; 100
    9676:	c8 2e       	mov	r12, r24
    9678:	d1 2c       	mov	r13, r1
    967a:	94 eb       	ldi	r25, 0xB4	; 180
    967c:	a9 2e       	mov	r10, r25
    967e:	94 e5       	ldi	r25, 0x54	; 84
    9680:	b9 2e       	mov	r11, r25
    9682:	44 24       	eor	r4, r4
    9684:	43 94       	inc	r4
    9686:	2e e1       	ldi	r18, 0x1E	; 30
    9688:	52 2e       	mov	r5, r18
    968a:	61 2c       	mov	r6, r1
    968c:	71 2c       	mov	r7, r1
    968e:	ce 01       	movw	r24, r28
    9690:	8f 5f       	subi	r24, 0xFF	; 255
    9692:	9d 4f       	sbci	r25, 0xFD	; 253
    9694:	0e 94 ff 4e 	call	0x9dfe	; 0x9dfe <generateRandomPolyTable_7681_256>
    9698:	0e 94 30 4f 	call	0x9e60	; 0x9e60 <startMeasurement>
    969c:	8e 01       	movw	r16, r28
    969e:	0f 5f       	subi	r16, 0xFF	; 255
    96a0:	1d 4f       	sbci	r17, 0xFD	; 253
    96a2:	f8 01       	movw	r30, r16
    96a4:	21 91       	ld	r18, Z+
    96a6:	31 91       	ld	r19, Z+
    96a8:	8f 01       	movw	r16, r30
    96aa:	f5 01       	movw	r30, r10
    96ac:	a5 91       	lpm	r26, Z+
    96ae:	b4 91       	lpm	r27, Z
    96b0:	48 01       	movw	r8, r16
    96b2:	f2 e0       	ldi	r31, 0x02	; 2
    96b4:	8f 1a       	sub	r8, r31
    96b6:	91 08       	sbc	r9, r1
    96b8:	0e 94 9a 50 	call	0xa134	; 0xa134 <__umulhisi3>
    96bc:	a3 01       	movw	r20, r6
    96be:	92 01       	movw	r18, r4
    96c0:	0e 94 78 50 	call	0xa0f0	; 0xa0f0 <__udivmodsi4>
    96c4:	c6 5d       	subi	r28, 0xD6	; 214
    96c6:	db 4f       	sbci	r29, 0xFB	; 251
    96c8:	68 83       	st	Y, r22
    96ca:	79 83       	std	Y+1, r23	; 0x01
    96cc:	8a 83       	std	Y+2, r24	; 0x02
    96ce:	9b 83       	std	Y+3, r25	; 0x03
    96d0:	ca 52       	subi	r28, 0x2A	; 42
    96d2:	d4 40       	sbci	r29, 0x04	; 4
    96d4:	c6 5d       	subi	r28, 0xD6	; 214
    96d6:	db 4f       	sbci	r29, 0xFB	; 251
    96d8:	88 81       	ld	r24, Y
    96da:	99 81       	ldd	r25, Y+1	; 0x01
    96dc:	ca 52       	subi	r28, 0x2A	; 42
    96de:	d4 40       	sbci	r29, 0x04	; 4
    96e0:	f4 01       	movw	r30, r8
    96e2:	80 83       	st	Z, r24
    96e4:	91 83       	std	Z+1, r25	; 0x01
    96e6:	0e 15       	cp	r16, r14
    96e8:	1f 05       	cpc	r17, r15
    96ea:	d9 f6       	brne	.-74     	; 0x96a2 <do_measurement_7681_256+0x168>
    96ec:	c7 01       	movw	r24, r14
    96ee:	0e 94 3f 4f 	call	0x9e7e	; 0x9e7e <stopMeasurement>
    96f2:	91 e0       	ldi	r25, 0x01	; 1
    96f4:	c9 1a       	sub	r12, r25
    96f6:	d1 08       	sbc	r13, r1
    96f8:	51 f6       	brne	.-108    	; 0x968e <do_measurement_7681_256+0x154>
    96fa:	60 ec       	ldi	r22, 0xC0	; 192
    96fc:	72 e2       	ldi	r23, 0x22	; 34
    96fe:	c7 01       	movw	r24, r14
    9700:	0e 94 84 4f 	call	0x9f08	; 0x9f08 <printResult>
    9704:	04 e6       	ldi	r16, 0x64	; 100
    9706:	10 e0       	ldi	r17, 0x00	; 0
    9708:	ce 01       	movw	r24, r28
    970a:	8f 5f       	subi	r24, 0xFF	; 255
    970c:	9d 4f       	sbci	r25, 0xFD	; 253
    970e:	0e 94 ff 4e 	call	0x9dfe	; 0x9dfe <generateRandomPolyTable_7681_256>
    9712:	80 91 02 20 	lds	r24, 0x2002	; 0x802002 <__malloc_heap_start>
    9716:	90 91 03 20 	lds	r25, 0x2003	; 0x802003 <__malloc_heap_start+0x1>
    971a:	0e 94 c8 2e 	call	0x5d90	; 0x5d90 <startRAM>
    971e:	80 93 5e 24 	sts	0x245E, r24	; 0x80245e <start>
    9722:	90 93 5f 24 	sts	0x245F, r25	; 0x80245f <start+0x1>
    9726:	0e 94 30 4f 	call	0x9e60	; 0x9e60 <startMeasurement>
    972a:	4e e3       	ldi	r20, 0x3E	; 62
    972c:	50 e0       	ldi	r21, 0x00	; 0
    972e:	61 e0       	ldi	r22, 0x01	; 1
    9730:	70 e0       	ldi	r23, 0x00	; 0
    9732:	ce 01       	movw	r24, r28
    9734:	8f 5f       	subi	r24, 0xFF	; 255
    9736:	9d 4f       	sbci	r25, 0xFD	; 253
    9738:	0e 94 9c 3d 	call	0x7b38	; 0x7b38 <pw_psi_7681>
    973c:	c7 01       	movw	r24, r14
    973e:	0e 94 3f 4f 	call	0x9e7e	; 0x9e7e <stopMeasurement>
    9742:	0e 94 db 2e 	call	0x5db6	; 0x5db6 <endRAM>
    9746:	80 93 5c 24 	sts	0x245C, r24	; 0x80245c <end>
    974a:	90 93 5d 24 	sts	0x245D, r25	; 0x80245d <end+0x1>
    974e:	01 50       	subi	r16, 0x01	; 1
    9750:	11 09       	sbc	r17, r1
    9752:	d1 f6       	brne	.-76     	; 0x9708 <do_measurement_7681_256+0x1ce>
    9754:	60 91 5e 24 	lds	r22, 0x245E	; 0x80245e <start>
    9758:	70 91 5f 24 	lds	r23, 0x245F	; 0x80245f <start+0x1>
    975c:	68 1b       	sub	r22, r24
    975e:	79 0b       	sbc	r23, r25
    9760:	49 ef       	ldi	r20, 0xF9	; 249
    9762:	51 e2       	ldi	r21, 0x21	; 33
    9764:	c7 01       	movw	r24, r14
    9766:	0e 94 d8 4f 	call	0x9fb0	; 0x9fb0 <printResultRAM>
    976a:	04 e6       	ldi	r16, 0x64	; 100
    976c:	10 e0       	ldi	r17, 0x00	; 0
    976e:	ce 01       	movw	r24, r28
    9770:	8f 5f       	subi	r24, 0xFF	; 255
    9772:	9d 4f       	sbci	r25, 0xFD	; 253
    9774:	0e 94 ff 4e 	call	0x9dfe	; 0x9dfe <generateRandomPolyTable_7681_256>
    9778:	ce 01       	movw	r24, r28
    977a:	01 96       	adiw	r24, 0x01	; 1
    977c:	0e 94 ff 4e 	call	0x9dfe	; 0x9dfe <generateRandomPolyTable_7681_256>
    9780:	0e 94 30 4f 	call	0x9e60	; 0x9e60 <startMeasurement>
    9784:	ae 01       	movw	r20, r28
    9786:	4f 5f       	subi	r20, 0xFF	; 255
    9788:	5d 4f       	sbci	r21, 0xFD	; 253
    978a:	be 01       	movw	r22, r28
    978c:	6f 5f       	subi	r22, 0xFF	; 255
    978e:	7f 4f       	sbci	r23, 0xFF	; 255
    9790:	ca 01       	movw	r24, r20
    9792:	0e 94 e6 3d 	call	0x7bcc	; 0x7bcc <add_7681>
    9796:	c7 01       	movw	r24, r14
    9798:	0e 94 3f 4f 	call	0x9e7e	; 0x9e7e <stopMeasurement>
    979c:	01 50       	subi	r16, 0x01	; 1
    979e:	11 09       	sbc	r17, r1
    97a0:	31 f7       	brne	.-52     	; 0x976e <do_measurement_7681_256+0x234>
    97a2:	66 e0       	ldi	r22, 0x06	; 6
    97a4:	72 e2       	ldi	r23, 0x22	; 34
    97a6:	c7 01       	movw	r24, r14
    97a8:	0e 94 84 4f 	call	0x9f08	; 0x9f08 <printResult>
    97ac:	f7 01       	movw	r30, r14
    97ae:	10 82       	st	Z, r1
    97b0:	11 82       	std	Z+1, r1	; 0x01
    97b2:	12 82       	std	Z+2, r1	; 0x02
    97b4:	13 82       	std	Z+3, r1	; 0x03
    97b6:	14 82       	std	Z+4, r1	; 0x04
    97b8:	15 82       	std	Z+5, r1	; 0x05
    97ba:	16 82       	std	Z+6, r1	; 0x06
    97bc:	17 82       	std	Z+7, r1	; 0x07
    97be:	04 e6       	ldi	r16, 0x64	; 100
    97c0:	10 e0       	ldi	r17, 0x00	; 0
    97c2:	0e 94 30 4f 	call	0x9e60	; 0x9e60 <startMeasurement>
    97c6:	70 e0       	ldi	r23, 0x00	; 0
    97c8:	60 e0       	ldi	r22, 0x00	; 0
    97ca:	ce 01       	movw	r24, r28
    97cc:	8f 5f       	subi	r24, 0xFF	; 255
    97ce:	9d 4f       	sbci	r25, 0xFD	; 253
    97d0:	0e 94 e0 39 	call	0x73c0	; 0x73c0 <get_gauss_poly_7681_256>
    97d4:	c7 01       	movw	r24, r14
    97d6:	0e 94 3f 4f 	call	0x9e7e	; 0x9e7e <stopMeasurement>
    97da:	01 50       	subi	r16, 0x01	; 1
    97dc:	11 09       	sbc	r17, r1
    97de:	89 f7       	brne	.-30     	; 0x97c2 <do_measurement_7681_256+0x288>
    97e0:	6c e0       	ldi	r22, 0x0C	; 12
    97e2:	72 e2       	ldi	r23, 0x22	; 34
    97e4:	c7 01       	movw	r24, r14
    97e6:	0e 94 84 4f 	call	0x9f08	; 0x9f08 <printResult>
    97ea:	04 e6       	ldi	r16, 0x64	; 100
    97ec:	10 e0       	ldi	r17, 0x00	; 0
    97ee:	0e 94 30 4f 	call	0x9e60	; 0x9e60 <startMeasurement>
    97f2:	ce 01       	movw	r24, r28
    97f4:	8f 5f       	subi	r24, 0xFF	; 255
    97f6:	9d 4f       	sbci	r25, 0xFD	; 253
    97f8:	0e 94 ff 4e 	call	0x9dfe	; 0x9dfe <generateRandomPolyTable_7681_256>
    97fc:	c7 01       	movw	r24, r14
    97fe:	0e 94 3f 4f 	call	0x9e7e	; 0x9e7e <stopMeasurement>
    9802:	01 50       	subi	r16, 0x01	; 1
    9804:	11 09       	sbc	r17, r1
    9806:	99 f7       	brne	.-26     	; 0x97ee <do_measurement_7681_256+0x2b4>
    9808:	67 e2       	ldi	r22, 0x27	; 39
    980a:	72 e2       	ldi	r23, 0x22	; 34
    980c:	c7 01       	movw	r24, r14
    980e:	0e 94 84 4f 	call	0x9f08	; 0x9f08 <printResult>
    9812:	ce 5d       	subi	r28, 0xDE	; 222
    9814:	db 4f       	sbci	r29, 0xFB	; 251
    9816:	18 82       	st	Y, r1
    9818:	c2 52       	subi	r28, 0x22	; 34
    981a:	d4 40       	sbci	r29, 0x04	; 4
    981c:	cd 5d       	subi	r28, 0xDD	; 221
    981e:	db 4f       	sbci	r29, 0xFB	; 251
    9820:	18 82       	st	Y, r1
    9822:	c3 52       	subi	r28, 0x23	; 35
    9824:	d4 40       	sbci	r29, 0x04	; 4
    9826:	cc 5d       	subi	r28, 0xDC	; 220
    9828:	db 4f       	sbci	r29, 0xFB	; 251
    982a:	18 82       	st	Y, r1
    982c:	c4 52       	subi	r28, 0x24	; 36
    982e:	d4 40       	sbci	r29, 0x04	; 4
    9830:	cb 5d       	subi	r28, 0xDB	; 219
    9832:	db 4f       	sbci	r29, 0xFB	; 251
    9834:	18 82       	st	Y, r1
    9836:	c5 52       	subi	r28, 0x25	; 37
    9838:	d4 40       	sbci	r29, 0x04	; 4
    983a:	ca 5d       	subi	r28, 0xDA	; 218
    983c:	db 4f       	sbci	r29, 0xFB	; 251
    983e:	18 82       	st	Y, r1
    9840:	c6 52       	subi	r28, 0x26	; 38
    9842:	d4 40       	sbci	r29, 0x04	; 4
    9844:	c9 5d       	subi	r28, 0xD9	; 217
    9846:	db 4f       	sbci	r29, 0xFB	; 251
    9848:	18 82       	st	Y, r1
    984a:	c7 52       	subi	r28, 0x27	; 39
    984c:	d4 40       	sbci	r29, 0x04	; 4
    984e:	c8 5d       	subi	r28, 0xD8	; 216
    9850:	db 4f       	sbci	r29, 0xFB	; 251
    9852:	18 82       	st	Y, r1
    9854:	c8 52       	subi	r28, 0x28	; 40
    9856:	d4 40       	sbci	r29, 0x04	; 4
    9858:	c7 5d       	subi	r28, 0xD7	; 215
    985a:	db 4f       	sbci	r29, 0xFB	; 251
    985c:	18 82       	st	Y, r1
    985e:	c9 52       	subi	r28, 0x29	; 41
    9860:	d4 40       	sbci	r29, 0x04	; 4
    9862:	81 e2       	ldi	r24, 0x21	; 33
    9864:	e6 e7       	ldi	r30, 0x76	; 118
    9866:	f2 e2       	ldi	r31, 0x22	; 34
    9868:	d7 01       	movw	r26, r14
    986a:	01 90       	ld	r0, Z+
    986c:	0d 92       	st	X+, r0
    986e:	8a 95       	dec	r24
    9870:	e1 f7       	brne	.-8      	; 0x986a <do_measurement_7681_256+0x330>
    9872:	d1 2c       	mov	r13, r1
    9874:	ce 01       	movw	r24, r28
    9876:	8f 5f       	subi	r24, 0xFF	; 255
    9878:	9d 4f       	sbci	r25, 0xFD	; 253
    987a:	0e 94 ff 4e 	call	0x9dfe	; 0x9dfe <generateRandomPolyTable_7681_256>
    987e:	ce 01       	movw	r24, r28
    9880:	01 96       	adiw	r24, 0x01	; 1
    9882:	0e 94 ff 4e 	call	0x9dfe	; 0x9dfe <generateRandomPolyTable_7681_256>
    9886:	f7 01       	movw	r30, r14
    9888:	d0 82       	st	Z, r13
    988a:	8a e0       	ldi	r24, 0x0A	; 10
    988c:	8d 0d       	add	r24, r13
    988e:	81 83       	std	Z+1, r24	; 0x01
    9890:	87 e3       	ldi	r24, 0x37	; 55
    9892:	8d 0d       	add	r24, r13
    9894:	82 83       	std	Z+2, r24	; 0x02
    9896:	80 91 02 20 	lds	r24, 0x2002	; 0x802002 <__malloc_heap_start>
    989a:	90 91 03 20 	lds	r25, 0x2003	; 0x802003 <__malloc_heap_start+0x1>
    989e:	0e 94 c8 2e 	call	0x5d90	; 0x5d90 <startRAM>
    98a2:	80 93 5e 24 	sts	0x245E, r24	; 0x80245e <start>
    98a6:	90 93 5f 24 	sts	0x245F, r25	; 0x80245f <start+0x1>
    98aa:	0e 94 30 4f 	call	0x9e60	; 0x9e60 <startMeasurement>
    98ae:	04 eb       	ldi	r16, 0xB4	; 180
    98b0:	10 e5       	ldi	r17, 0x50	; 80
    98b2:	24 eb       	ldi	r18, 0xB4	; 180
    98b4:	3e e4       	ldi	r19, 0x4E	; 78
    98b6:	ae 01       	movw	r20, r28
    98b8:	4f 5f       	subi	r20, 0xFF	; 255
    98ba:	5f 4f       	sbci	r21, 0xFF	; 255
    98bc:	be 01       	movw	r22, r28
    98be:	6f 5f       	subi	r22, 0xFF	; 255
    98c0:	7d 4f       	sbci	r23, 0xFD	; 253
    98c2:	c7 01       	movw	r24, r14
    98c4:	0e 94 d2 3e 	call	0x7da4	; 0x7da4 <encrypt_7681_256>
    98c8:	ce 01       	movw	r24, r28
    98ca:	8e 5d       	subi	r24, 0xDE	; 222
    98cc:	9b 4f       	sbci	r25, 0xFB	; 251
    98ce:	0e 94 3f 4f 	call	0x9e7e	; 0x9e7e <stopMeasurement>
    98d2:	0e 94 db 2e 	call	0x5db6	; 0x5db6 <endRAM>
    98d6:	80 93 5c 24 	sts	0x245C, r24	; 0x80245c <end>
    98da:	90 93 5d 24 	sts	0x245D, r25	; 0x80245d <end+0x1>
    98de:	d3 94       	inc	r13
    98e0:	f4 e6       	ldi	r31, 0x64	; 100
    98e2:	df 12       	cpse	r13, r31
    98e4:	c7 cf       	rjmp	.-114    	; 0x9874 <do_measurement_7681_256+0x33a>
    98e6:	60 91 5e 24 	lds	r22, 0x245E	; 0x80245e <start>
    98ea:	70 91 5f 24 	lds	r23, 0x245F	; 0x80245f <start+0x1>
    98ee:	68 1b       	sub	r22, r24
    98f0:	79 0b       	sbc	r23, r25
    98f2:	45 ee       	ldi	r20, 0xE5	; 229
    98f4:	50 e2       	ldi	r21, 0x20	; 32
    98f6:	ce 01       	movw	r24, r28
    98f8:	8e 5d       	subi	r24, 0xDE	; 222
    98fa:	9b 4f       	sbci	r25, 0xFB	; 251
    98fc:	0e 94 d8 4f 	call	0x9fb0	; 0x9fb0 <printResultRAM>
    9900:	04 e6       	ldi	r16, 0x64	; 100
    9902:	10 e0       	ldi	r17, 0x00	; 0
    9904:	ce 01       	movw	r24, r28
    9906:	8f 5f       	subi	r24, 0xFF	; 255
    9908:	9d 4f       	sbci	r25, 0xFD	; 253
    990a:	0e 94 ff 4e 	call	0x9dfe	; 0x9dfe <generateRandomPolyTable_7681_256>
    990e:	ce 01       	movw	r24, r28
    9910:	01 96       	adiw	r24, 0x01	; 1
    9912:	0e 94 ff 4e 	call	0x9dfe	; 0x9dfe <generateRandomPolyTable_7681_256>
    9916:	80 91 02 20 	lds	r24, 0x2002	; 0x802002 <__malloc_heap_start>
    991a:	90 91 03 20 	lds	r25, 0x2003	; 0x802003 <__malloc_heap_start+0x1>
    991e:	0e 94 c8 2e 	call	0x5d90	; 0x5d90 <startRAM>
    9922:	80 93 5e 24 	sts	0x245E, r24	; 0x80245e <start>
    9926:	90 93 5f 24 	sts	0x245F, r25	; 0x80245f <start+0x1>
    992a:	0e 94 30 4f 	call	0x9e60	; 0x9e60 <startMeasurement>
    992e:	24 eb       	ldi	r18, 0xB4	; 180
    9930:	32 e5       	ldi	r19, 0x52	; 82
    9932:	ae 01       	movw	r20, r28
    9934:	4f 5f       	subi	r20, 0xFF	; 255
    9936:	5f 4f       	sbci	r21, 0xFF	; 255
    9938:	be 01       	movw	r22, r28
    993a:	6f 5f       	subi	r22, 0xFF	; 255
    993c:	7d 4f       	sbci	r23, 0xFD	; 253
    993e:	c7 01       	movw	r24, r14
    9940:	0e 94 12 3f 	call	0x7e24	; 0x7e24 <decrypt_7681_256>
    9944:	ce 01       	movw	r24, r28
    9946:	8e 5d       	subi	r24, 0xDE	; 222
    9948:	9b 4f       	sbci	r25, 0xFB	; 251
    994a:	0e 94 3f 4f 	call	0x9e7e	; 0x9e7e <stopMeasurement>
    994e:	0e 94 db 2e 	call	0x5db6	; 0x5db6 <endRAM>
    9952:	80 93 5c 24 	sts	0x245C, r24	; 0x80245c <end>
    9956:	90 93 5d 24 	sts	0x245D, r25	; 0x80245d <end+0x1>
    995a:	01 50       	subi	r16, 0x01	; 1
    995c:	11 09       	sbc	r17, r1
    995e:	91 f6       	brne	.-92     	; 0x9904 <do_measurement_7681_256+0x3ca>
    9960:	60 91 5e 24 	lds	r22, 0x245E	; 0x80245e <start>
    9964:	70 91 5f 24 	lds	r23, 0x245F	; 0x80245f <start+0x1>
    9968:	68 1b       	sub	r22, r24
    996a:	79 0b       	sbc	r23, r25
    996c:	42 ef       	ldi	r20, 0xF2	; 242
    996e:	50 e2       	ldi	r21, 0x20	; 32
    9970:	ce 01       	movw	r24, r28
    9972:	8e 5d       	subi	r24, 0xDE	; 222
    9974:	9b 4f       	sbci	r25, 0xFB	; 251
    9976:	0e 94 d8 4f 	call	0x9fb0	; 0x9fb0 <printResultRAM>
    997a:	10 e0       	ldi	r17, 0x00	; 0
    997c:	f7 01       	movw	r30, r14
    997e:	10 83       	st	Z, r17
    9980:	8a e0       	ldi	r24, 0x0A	; 10
    9982:	81 0f       	add	r24, r17
    9984:	81 83       	std	Z+1, r24	; 0x01
    9986:	87 e3       	ldi	r24, 0x37	; 55
    9988:	81 0f       	add	r24, r17
    998a:	82 83       	std	Z+2, r24	; 0x02
    998c:	0e 94 30 4f 	call	0x9e60	; 0x9e60 <startMeasurement>
    9990:	be 01       	movw	r22, r28
    9992:	6f 5f       	subi	r22, 0xFF	; 255
    9994:	7d 4f       	sbci	r23, 0xFD	; 253
    9996:	c7 01       	movw	r24, r14
    9998:	0e 94 a4 3e 	call	0x7d48	; 0x7d48 <add_encode_7681_256>
    999c:	ce 01       	movw	r24, r28
    999e:	8e 5d       	subi	r24, 0xDE	; 222
    99a0:	9b 4f       	sbci	r25, 0xFB	; 251
    99a2:	0e 94 3f 4f 	call	0x9e7e	; 0x9e7e <stopMeasurement>
    99a6:	1f 5f       	subi	r17, 0xFF	; 255
    99a8:	14 36       	cpi	r17, 0x64	; 100
    99aa:	41 f7       	brne	.-48     	; 0x997c <do_measurement_7681_256+0x442>
    99ac:	60 e4       	ldi	r22, 0x40	; 64
    99ae:	72 e2       	ldi	r23, 0x22	; 34
    99b0:	ce 01       	movw	r24, r28
    99b2:	8e 5d       	subi	r24, 0xDE	; 222
    99b4:	9b 4f       	sbci	r25, 0xFB	; 251
    99b6:	0e 94 84 4f 	call	0x9f08	; 0x9f08 <printResult>
    99ba:	04 e6       	ldi	r16, 0x64	; 100
    99bc:	10 e0       	ldi	r17, 0x00	; 0
    99be:	ce 01       	movw	r24, r28
    99c0:	8f 5f       	subi	r24, 0xFF	; 255
    99c2:	9d 4f       	sbci	r25, 0xFD	; 253
    99c4:	0e 94 ff 4e 	call	0x9dfe	; 0x9dfe <generateRandomPolyTable_7681_256>
    99c8:	0e 94 30 4f 	call	0x9e60	; 0x9e60 <startMeasurement>
    99cc:	b7 01       	movw	r22, r14
    99ce:	ce 01       	movw	r24, r28
    99d0:	8f 5f       	subi	r24, 0xFF	; 255
    99d2:	9d 4f       	sbci	r25, 0xFD	; 253
    99d4:	0e 94 e8 3e 	call	0x7dd0	; 0x7dd0 <decode_7681_256>
    99d8:	ce 01       	movw	r24, r28
    99da:	8e 5d       	subi	r24, 0xDE	; 222
    99dc:	9b 4f       	sbci	r25, 0xFB	; 251
    99de:	0e 94 3f 4f 	call	0x9e7e	; 0x9e7e <stopMeasurement>
    99e2:	01 50       	subi	r16, 0x01	; 1
    99e4:	11 09       	sbc	r17, r1
    99e6:	59 f7       	brne	.-42     	; 0x99be <do_measurement_7681_256+0x484>
    99e8:	6b e4       	ldi	r22, 0x4B	; 75
    99ea:	72 e2       	ldi	r23, 0x22	; 34
    99ec:	ce 01       	movw	r24, r28
    99ee:	8e 5d       	subi	r24, 0xDE	; 222
    99f0:	9b 4f       	sbci	r25, 0xFB	; 251
    99f2:	0e 94 84 4f 	call	0x9f08	; 0x9f08 <printResult>
    99f6:	0e 94 6e 3b 	call	0x76dc	; 0x76dc <print_counter>
    99fa:	86 e4       	ldi	r24, 0x46	; 70
    99fc:	90 e2       	ldi	r25, 0x20	; 32
    99fe:	9f 93       	push	r25
    9a00:	8f 93       	push	r24
    9a02:	0e 94 21 51 	call	0xa242	; 0xa242 <printf>
    9a06:	0f 90       	pop	r0
    9a08:	0f 90       	pop	r0
    9a0a:	c3 5d       	subi	r28, 0xD3	; 211
    9a0c:	db 4f       	sbci	r29, 0xFB	; 251
    9a0e:	cd bf       	out	0x3d, r28	; 61
    9a10:	de bf       	out	0x3e, r29	; 62
    9a12:	df 91       	pop	r29
    9a14:	cf 91       	pop	r28
    9a16:	1f 91       	pop	r17
    9a18:	0f 91       	pop	r16
    9a1a:	ff 90       	pop	r15
    9a1c:	ef 90       	pop	r14
    9a1e:	df 90       	pop	r13
    9a20:	cf 90       	pop	r12
    9a22:	bf 90       	pop	r11
    9a24:	af 90       	pop	r10
    9a26:	9f 90       	pop	r9
    9a28:	8f 90       	pop	r8
    9a2a:	7f 90       	pop	r7
    9a2c:	6f 90       	pop	r6
    9a2e:	5f 90       	pop	r5
    9a30:	4f 90       	pop	r4
    9a32:	08 95       	ret

00009a34 <do_measurement_reduction_7681_c>:
    9a34:	4f 92       	push	r4
    9a36:	5f 92       	push	r5
    9a38:	6f 92       	push	r6
    9a3a:	7f 92       	push	r7
    9a3c:	af 92       	push	r10
    9a3e:	bf 92       	push	r11
    9a40:	cf 92       	push	r12
    9a42:	df 92       	push	r13
    9a44:	ef 92       	push	r14
    9a46:	ff 92       	push	r15
    9a48:	0f 93       	push	r16
    9a4a:	1f 93       	push	r17
    9a4c:	cf 93       	push	r28
    9a4e:	df 93       	push	r29
    9a50:	cd b7       	in	r28, 0x3d	; 61
    9a52:	de b7       	in	r29, 0x3e	; 62
    9a54:	2e 97       	sbiw	r28, 0x0e	; 14
    9a56:	cd bf       	out	0x3d, r28	; 61
    9a58:	de bf       	out	0x3e, r29	; 62
    9a5a:	19 82       	std	Y+1, r1	; 0x01
    9a5c:	1a 82       	std	Y+2, r1	; 0x02
    9a5e:	1b 82       	std	Y+3, r1	; 0x03
    9a60:	1c 82       	std	Y+4, r1	; 0x04
    9a62:	1d 82       	std	Y+5, r1	; 0x05
    9a64:	1e 82       	std	Y+6, r1	; 0x06
    9a66:	1f 82       	std	Y+7, r1	; 0x07
    9a68:	18 86       	std	Y+8, r1	; 0x08
    9a6a:	87 ed       	ldi	r24, 0xD7	; 215
    9a6c:	92 e2       	ldi	r25, 0x22	; 34
    9a6e:	9f 93       	push	r25
    9a70:	8f 93       	push	r24
    9a72:	0e 94 21 51 	call	0xa242	; 0xa242 <printf>
    9a76:	0f 90       	pop	r0
    9a78:	0f 90       	pop	r0
    9a7a:	04 e6       	ldi	r16, 0x64	; 100
    9a7c:	10 e0       	ldi	r17, 0x00	; 0
    9a7e:	81 e6       	ldi	r24, 0x61	; 97
    9a80:	a8 2e       	mov	r10, r24
    9a82:	8d e1       	ldi	r24, 0x1D	; 29
    9a84:	b8 2e       	mov	r11, r24
    9a86:	44 24       	eor	r4, r4
    9a88:	43 94       	inc	r4
    9a8a:	9e e1       	ldi	r25, 0x1E	; 30
    9a8c:	59 2e       	mov	r5, r25
    9a8e:	61 2c       	mov	r6, r1
    9a90:	71 2c       	mov	r7, r1
    9a92:	a9 86       	std	Y+9, r10	; 0x09
    9a94:	ba 86       	std	Y+10, r11	; 0x0a
    9a96:	69 e3       	ldi	r22, 0x39	; 57
    9a98:	75 e0       	ldi	r23, 0x05	; 5
    9a9a:	80 e0       	ldi	r24, 0x00	; 0
    9a9c:	9f e0       	ldi	r25, 0x0F	; 15
    9a9e:	0e 94 90 2c 	call	0x5920	; 0x5920 <mm7681>
    9aa2:	7c 01       	movw	r14, r24
    9aa4:	69 85       	ldd	r22, Y+9	; 0x09
    9aa6:	7a 85       	ldd	r23, Y+10	; 0x0a
    9aa8:	80 e0       	ldi	r24, 0x00	; 0
    9aaa:	9f e0       	ldi	r25, 0x0F	; 15
    9aac:	0e 94 90 2c 	call	0x5920	; 0x5920 <mm7681>
    9ab0:	6c 01       	movw	r12, r24
    9ab2:	0e 94 30 4f 	call	0x9e60	; 0x9e60 <startMeasurement>
    9ab6:	96 01       	movw	r18, r12
    9ab8:	d7 01       	movw	r26, r14
    9aba:	0e 94 9a 50 	call	0xa134	; 0xa134 <__umulhisi3>
    9abe:	a3 01       	movw	r20, r6
    9ac0:	92 01       	movw	r18, r4
    9ac2:	0e 94 78 50 	call	0xa0f0	; 0xa0f0 <__udivmodsi4>
    9ac6:	6b 87       	std	Y+11, r22	; 0x0b
    9ac8:	7c 87       	std	Y+12, r23	; 0x0c
    9aca:	8d 87       	std	Y+13, r24	; 0x0d
    9acc:	9e 87       	std	Y+14, r25	; 0x0e
    9ace:	8b 85       	ldd	r24, Y+11	; 0x0b
    9ad0:	9c 85       	ldd	r25, Y+12	; 0x0c
    9ad2:	89 87       	std	Y+9, r24	; 0x09
    9ad4:	9a 87       	std	Y+10, r25	; 0x0a
    9ad6:	ce 01       	movw	r24, r28
    9ad8:	01 96       	adiw	r24, 0x01	; 1
    9ada:	0e 94 3f 4f 	call	0x9e7e	; 0x9e7e <stopMeasurement>
    9ade:	01 50       	subi	r16, 0x01	; 1
    9ae0:	11 09       	sbc	r17, r1
    9ae2:	b9 f6       	brne	.-82     	; 0x9a92 <do_measurement_reduction_7681_c+0x5e>
    9ae4:	68 ef       	ldi	r22, 0xF8	; 248
    9ae6:	72 e2       	ldi	r23, 0x22	; 34
    9ae8:	ce 01       	movw	r24, r28
    9aea:	01 96       	adiw	r24, 0x01	; 1
    9aec:	0e 94 84 4f 	call	0x9f08	; 0x9f08 <printResult>
    9af0:	89 85       	ldd	r24, Y+9	; 0x09
    9af2:	9a 85       	ldd	r25, Y+10	; 0x0a
    9af4:	2e 96       	adiw	r28, 0x0e	; 14
    9af6:	cd bf       	out	0x3d, r28	; 61
    9af8:	de bf       	out	0x3e, r29	; 62
    9afa:	df 91       	pop	r29
    9afc:	cf 91       	pop	r28
    9afe:	1f 91       	pop	r17
    9b00:	0f 91       	pop	r16
    9b02:	ff 90       	pop	r15
    9b04:	ef 90       	pop	r14
    9b06:	df 90       	pop	r13
    9b08:	cf 90       	pop	r12
    9b0a:	bf 90       	pop	r11
    9b0c:	af 90       	pop	r10
    9b0e:	7f 90       	pop	r7
    9b10:	6f 90       	pop	r6
    9b12:	5f 90       	pop	r5
    9b14:	4f 90       	pop	r4
    9b16:	08 95       	ret

00009b18 <do_measurement_reduction_7681_asm>:
    9b18:	6f 92       	push	r6
    9b1a:	7f 92       	push	r7
    9b1c:	8f 92       	push	r8
    9b1e:	9f 92       	push	r9
    9b20:	af 92       	push	r10
    9b22:	bf 92       	push	r11
    9b24:	cf 92       	push	r12
    9b26:	df 92       	push	r13
    9b28:	ef 92       	push	r14
    9b2a:	ff 92       	push	r15
    9b2c:	0f 93       	push	r16
    9b2e:	1f 93       	push	r17
    9b30:	cf 93       	push	r28
    9b32:	df 93       	push	r29
    9b34:	cd b7       	in	r28, 0x3d	; 61
    9b36:	de b7       	in	r29, 0x3e	; 62
    9b38:	62 97       	sbiw	r28, 0x12	; 18
    9b3a:	cd bf       	out	0x3d, r28	; 61
    9b3c:	de bf       	out	0x3e, r29	; 62
    9b3e:	19 86       	std	Y+9, r1	; 0x09
    9b40:	1a 86       	std	Y+10, r1	; 0x0a
    9b42:	1b 86       	std	Y+11, r1	; 0x0b
    9b44:	1c 86       	std	Y+12, r1	; 0x0c
    9b46:	1d 86       	std	Y+13, r1	; 0x0d
    9b48:	1e 86       	std	Y+14, r1	; 0x0e
    9b4a:	1f 86       	std	Y+15, r1	; 0x0f
    9b4c:	18 8a       	std	Y+16, r1	; 0x10
    9b4e:	19 82       	std	Y+1, r1	; 0x01
    9b50:	1a 82       	std	Y+2, r1	; 0x02
    9b52:	1b 82       	std	Y+3, r1	; 0x03
    9b54:	1c 82       	std	Y+4, r1	; 0x04
    9b56:	1d 82       	std	Y+5, r1	; 0x05
    9b58:	1e 82       	std	Y+6, r1	; 0x06
    9b5a:	1f 82       	std	Y+7, r1	; 0x07
    9b5c:	18 86       	std	Y+8, r1	; 0x08
    9b5e:	8c e0       	ldi	r24, 0x0C	; 12
    9b60:	93 e2       	ldi	r25, 0x23	; 35
    9b62:	9f 93       	push	r25
    9b64:	8f 93       	push	r24
    9b66:	0e 94 21 51 	call	0xa242	; 0xa242 <printf>
    9b6a:	0f 90       	pop	r0
    9b6c:	0f 90       	pop	r0
    9b6e:	04 e6       	ldi	r16, 0x64	; 100
    9b70:	10 e0       	ldi	r17, 0x00	; 0
    9b72:	0e 94 30 4f 	call	0x9e60	; 0x9e60 <startMeasurement>
    9b76:	69 e3       	ldi	r22, 0x39	; 57
    9b78:	75 e0       	ldi	r23, 0x05	; 5
    9b7a:	80 e0       	ldi	r24, 0x00	; 0
    9b7c:	9f e0       	ldi	r25, 0x0F	; 15
    9b7e:	0e 94 90 2c 	call	0x5920	; 0x5920 <mm7681>
    9b82:	89 8b       	std	Y+17, r24	; 0x11
    9b84:	9a 8b       	std	Y+18, r25	; 0x12
    9b86:	ce 01       	movw	r24, r28
    9b88:	09 96       	adiw	r24, 0x09	; 9
    9b8a:	0e 94 3f 4f 	call	0x9e7e	; 0x9e7e <stopMeasurement>
    9b8e:	89 89       	ldd	r24, Y+17	; 0x11
    9b90:	9a 89       	ldd	r25, Y+18	; 0x12
    9b92:	01 50       	subi	r16, 0x01	; 1
    9b94:	11 09       	sbc	r17, r1
    9b96:	69 f7       	brne	.-38     	; 0x9b72 <do_measurement_reduction_7681_asm+0x5a>
    9b98:	6f e2       	ldi	r22, 0x2F	; 47
    9b9a:	73 e2       	ldi	r23, 0x23	; 35
    9b9c:	ce 01       	movw	r24, r28
    9b9e:	09 96       	adiw	r24, 0x09	; 9
    9ba0:	0e 94 84 4f 	call	0x9f08	; 0x9f08 <printResult>
    9ba4:	04 e6       	ldi	r16, 0x64	; 100
    9ba6:	10 e0       	ldi	r17, 0x00	; 0
    9ba8:	0e 94 30 4f 	call	0x9e60	; 0x9e60 <startMeasurement>
    9bac:	69 e4       	ldi	r22, 0x49	; 73
    9bae:	7c e2       	ldi	r23, 0x2C	; 44
    9bb0:	80 e0       	ldi	r24, 0x00	; 0
    9bb2:	9f e0       	ldi	r25, 0x0F	; 15
    9bb4:	0e 94 c1 2c 	call	0x5982	; 0x5982 <mm12289>
    9bb8:	89 8b       	std	Y+17, r24	; 0x11
    9bba:	9a 8b       	std	Y+18, r25	; 0x12
    9bbc:	ce 01       	movw	r24, r28
    9bbe:	09 96       	adiw	r24, 0x09	; 9
    9bc0:	0e 94 3f 4f 	call	0x9e7e	; 0x9e7e <stopMeasurement>
    9bc4:	89 89       	ldd	r24, Y+17	; 0x11
    9bc6:	9a 89       	ldd	r25, Y+18	; 0x12
    9bc8:	01 50       	subi	r16, 0x01	; 1
    9bca:	11 09       	sbc	r17, r1
    9bcc:	69 f7       	brne	.-38     	; 0x9ba8 <do_measurement_reduction_7681_asm+0x90>
    9bce:	6a e4       	ldi	r22, 0x4A	; 74
    9bd0:	73 e2       	ldi	r23, 0x23	; 35
    9bd2:	ce 01       	movw	r24, r28
    9bd4:	09 96       	adiw	r24, 0x09	; 9
    9bd6:	0e 94 84 4f 	call	0x9f08	; 0x9f08 <printResult>
    9bda:	04 e6       	ldi	r16, 0x64	; 100
    9bdc:	10 e0       	ldi	r17, 0x00	; 0
    9bde:	0e 94 30 4f 	call	0x9e60	; 0x9e60 <startMeasurement>
    9be2:	69 e4       	ldi	r22, 0x49	; 73
    9be4:	7c e2       	ldi	r23, 0x2C	; 44
    9be6:	80 e1       	ldi	r24, 0x10	; 16
    9be8:	96 e3       	ldi	r25, 0x36	; 54
    9bea:	0e 94 fb 2e 	call	0x5df6	; 0x5df6 <mm24578>
    9bee:	89 8b       	std	Y+17, r24	; 0x11
    9bf0:	9a 8b       	std	Y+18, r25	; 0x12
    9bf2:	ce 01       	movw	r24, r28
    9bf4:	09 96       	adiw	r24, 0x09	; 9
    9bf6:	0e 94 3f 4f 	call	0x9e7e	; 0x9e7e <stopMeasurement>
    9bfa:	89 89       	ldd	r24, Y+17	; 0x11
    9bfc:	9a 89       	ldd	r25, Y+18	; 0x12
    9bfe:	01 50       	subi	r16, 0x01	; 1
    9c00:	11 09       	sbc	r17, r1
    9c02:	69 f7       	brne	.-38     	; 0x9bde <do_measurement_reduction_7681_asm+0xc6>
    9c04:	66 e6       	ldi	r22, 0x66	; 102
    9c06:	73 e2       	ldi	r23, 0x23	; 35
    9c08:	ce 01       	movw	r24, r28
    9c0a:	09 96       	adiw	r24, 0x09	; 9
    9c0c:	0e 94 84 4f 	call	0x9f08	; 0x9f08 <printResult>
    9c10:	34 e6       	ldi	r19, 0x64	; 100
    9c12:	83 2e       	mov	r8, r19
    9c14:	91 2c       	mov	r9, r1
    9c16:	0e 94 30 4f 	call	0x9e60	; 0x9e60 <startMeasurement>
    9c1a:	ce 01       	movw	r24, r28
    9c1c:	09 96       	adiw	r24, 0x09	; 9
    9c1e:	0e 94 3f 4f 	call	0x9e7e	; 0x9e7e <stopMeasurement>
    9c22:	89 89       	ldd	r24, Y+17	; 0x11
    9c24:	9a 89       	ldd	r25, Y+18	; 0x12
    9c26:	81 e0       	ldi	r24, 0x01	; 1
    9c28:	88 1a       	sub	r8, r24
    9c2a:	91 08       	sbc	r9, r1
    9c2c:	a1 f7       	brne	.-24     	; 0x9c16 <do_measurement_reduction_7681_asm+0xfe>
    9c2e:	62 e8       	ldi	r22, 0x82	; 130
    9c30:	73 e2       	ldi	r23, 0x23	; 35
    9c32:	ce 01       	movw	r24, r28
    9c34:	09 96       	adiw	r24, 0x09	; 9
    9c36:	0e 94 84 4f 	call	0x9f08	; 0x9f08 <printResult>
    9c3a:	24 e6       	ldi	r18, 0x64	; 100
    9c3c:	62 2e       	mov	r6, r18
    9c3e:	71 2c       	mov	r7, r1
    9c40:	0e 94 30 4f 	call	0x9e60	; 0x9e60 <startMeasurement>
    9c44:	60 e0       	ldi	r22, 0x00	; 0
    9c46:	7e e1       	ldi	r23, 0x1E	; 30
    9c48:	80 e0       	ldi	r24, 0x00	; 0
    9c4a:	9e e1       	ldi	r25, 0x1E	; 30
    9c4c:	0e 94 90 2c 	call	0x5920	; 0x5920 <mm7681>
    9c50:	89 8b       	std	Y+17, r24	; 0x11
    9c52:	9a 8b       	std	Y+18, r25	; 0x12
    9c54:	ce 01       	movw	r24, r28
    9c56:	01 96       	adiw	r24, 0x01	; 1
    9c58:	0e 94 3f 4f 	call	0x9e7e	; 0x9e7e <stopMeasurement>
    9c5c:	f9 81       	ldd	r31, Y+1	; 0x01
    9c5e:	ea 81       	ldd	r30, Y+2	; 0x02
    9c60:	cb 80       	ldd	r12, Y+3	; 0x03
    9c62:	dc 80       	ldd	r13, Y+4	; 0x04
    9c64:	ed 80       	ldd	r14, Y+5	; 0x05
    9c66:	fe 80       	ldd	r15, Y+6	; 0x06
    9c68:	0f 81       	ldd	r16, Y+7	; 0x07
    9c6a:	18 85       	ldd	r17, Y+8	; 0x08
    9c6c:	94 01       	movw	r18, r8
    9c6e:	40 e0       	ldi	r20, 0x00	; 0
    9c70:	50 e0       	ldi	r21, 0x00	; 0
    9c72:	60 e0       	ldi	r22, 0x00	; 0
    9c74:	70 e0       	ldi	r23, 0x00	; 0
    9c76:	80 e0       	ldi	r24, 0x00	; 0
    9c78:	90 e0       	ldi	r25, 0x00	; 0
    9c7a:	af 2e       	mov	r10, r31
    9c7c:	be 2e       	mov	r11, r30
    9c7e:	0e 94 11 51 	call	0xa222	; 0xa222 <__cmpdi2>
    9c82:	18 f4       	brcc	.+6      	; 0x9c8a <do_measurement_reduction_7681_asm+0x172>
    9c84:	cf 01       	movw	r24, r30
    9c86:	89 2e       	mov	r8, r25
    9c88:	98 2e       	mov	r9, r24
    9c8a:	19 82       	std	Y+1, r1	; 0x01
    9c8c:	1a 82       	std	Y+2, r1	; 0x02
    9c8e:	1b 82       	std	Y+3, r1	; 0x03
    9c90:	1c 82       	std	Y+4, r1	; 0x04
    9c92:	1d 82       	std	Y+5, r1	; 0x05
    9c94:	1e 82       	std	Y+6, r1	; 0x06
    9c96:	1f 82       	std	Y+7, r1	; 0x07
    9c98:	18 86       	std	Y+8, r1	; 0x08
    9c9a:	89 89       	ldd	r24, Y+17	; 0x11
    9c9c:	9a 89       	ldd	r25, Y+18	; 0x12
    9c9e:	81 e0       	ldi	r24, 0x01	; 1
    9ca0:	68 1a       	sub	r6, r24
    9ca2:	71 08       	sbc	r7, r1
    9ca4:	69 f6       	brne	.-102    	; 0x9c40 <do_measurement_reduction_7681_asm+0x128>
    9ca6:	9f 92       	push	r9
    9ca8:	8f 92       	push	r8
    9caa:	89 e9       	ldi	r24, 0x99	; 153
    9cac:	93 e2       	ldi	r25, 0x23	; 35
    9cae:	9f 93       	push	r25
    9cb0:	8f 93       	push	r24
    9cb2:	0e 94 21 51 	call	0xa242	; 0xa242 <printf>
    9cb6:	0f 90       	pop	r0
    9cb8:	0f 90       	pop	r0
    9cba:	0f 90       	pop	r0
    9cbc:	0f 90       	pop	r0
    9cbe:	94 e6       	ldi	r25, 0x64	; 100
    9cc0:	89 2e       	mov	r8, r25
    9cc2:	91 2c       	mov	r9, r1
    9cc4:	0e 94 30 4f 	call	0x9e60	; 0x9e60 <startMeasurement>
    9cc8:	60 e0       	ldi	r22, 0x00	; 0
    9cca:	70 e3       	ldi	r23, 0x30	; 48
    9ccc:	80 e0       	ldi	r24, 0x00	; 0
    9cce:	90 e3       	ldi	r25, 0x30	; 48
    9cd0:	0e 94 c1 2c 	call	0x5982	; 0x5982 <mm12289>
    9cd4:	89 8b       	std	Y+17, r24	; 0x11
    9cd6:	9a 8b       	std	Y+18, r25	; 0x12
    9cd8:	ce 01       	movw	r24, r28
    9cda:	01 96       	adiw	r24, 0x01	; 1
    9cdc:	0e 94 3f 4f 	call	0x9e7e	; 0x9e7e <stopMeasurement>
    9ce0:	f9 81       	ldd	r31, Y+1	; 0x01
    9ce2:	ea 81       	ldd	r30, Y+2	; 0x02
    9ce4:	cb 80       	ldd	r12, Y+3	; 0x03
    9ce6:	dc 80       	ldd	r13, Y+4	; 0x04
    9ce8:	ed 80       	ldd	r14, Y+5	; 0x05
    9cea:	fe 80       	ldd	r15, Y+6	; 0x06
    9cec:	0f 81       	ldd	r16, Y+7	; 0x07
    9cee:	18 85       	ldd	r17, Y+8	; 0x08
    9cf0:	93 01       	movw	r18, r6
    9cf2:	40 e0       	ldi	r20, 0x00	; 0
    9cf4:	50 e0       	ldi	r21, 0x00	; 0
    9cf6:	60 e0       	ldi	r22, 0x00	; 0
    9cf8:	70 e0       	ldi	r23, 0x00	; 0
    9cfa:	80 e0       	ldi	r24, 0x00	; 0
    9cfc:	90 e0       	ldi	r25, 0x00	; 0
    9cfe:	af 2e       	mov	r10, r31
    9d00:	be 2e       	mov	r11, r30
    9d02:	0e 94 11 51 	call	0xa222	; 0xa222 <__cmpdi2>
    9d06:	18 f4       	brcc	.+6      	; 0x9d0e <do_measurement_reduction_7681_asm+0x1f6>
    9d08:	cf 01       	movw	r24, r30
    9d0a:	69 2e       	mov	r6, r25
    9d0c:	78 2e       	mov	r7, r24
    9d0e:	19 82       	std	Y+1, r1	; 0x01
    9d10:	1a 82       	std	Y+2, r1	; 0x02
    9d12:	1b 82       	std	Y+3, r1	; 0x03
    9d14:	1c 82       	std	Y+4, r1	; 0x04
    9d16:	1d 82       	std	Y+5, r1	; 0x05
    9d18:	1e 82       	std	Y+6, r1	; 0x06
    9d1a:	1f 82       	std	Y+7, r1	; 0x07
    9d1c:	18 86       	std	Y+8, r1	; 0x08
    9d1e:	89 89       	ldd	r24, Y+17	; 0x11
    9d20:	9a 89       	ldd	r25, Y+18	; 0x12
    9d22:	81 e0       	ldi	r24, 0x01	; 1
    9d24:	88 1a       	sub	r8, r24
    9d26:	91 08       	sbc	r9, r1
    9d28:	69 f6       	brne	.-102    	; 0x9cc4 <do_measurement_reduction_7681_asm+0x1ac>
    9d2a:	7f 92       	push	r7
    9d2c:	6f 92       	push	r6
    9d2e:	82 eb       	ldi	r24, 0xB2	; 178
    9d30:	93 e2       	ldi	r25, 0x23	; 35
    9d32:	9f 93       	push	r25
    9d34:	8f 93       	push	r24
    9d36:	0e 94 21 51 	call	0xa242	; 0xa242 <printf>
    9d3a:	0f 90       	pop	r0
    9d3c:	0f 90       	pop	r0
    9d3e:	0f 90       	pop	r0
    9d40:	0f 90       	pop	r0
    9d42:	84 e6       	ldi	r24, 0x64	; 100
    9d44:	68 2e       	mov	r6, r24
    9d46:	71 2c       	mov	r7, r1
    9d48:	0e 94 30 4f 	call	0x9e60	; 0x9e60 <startMeasurement>
    9d4c:	61 e0       	ldi	r22, 0x01	; 1
    9d4e:	70 e6       	ldi	r23, 0x60	; 96
    9d50:	81 e0       	ldi	r24, 0x01	; 1
    9d52:	90 e6       	ldi	r25, 0x60	; 96
    9d54:	0e 94 fb 2e 	call	0x5df6	; 0x5df6 <mm24578>
    9d58:	89 8b       	std	Y+17, r24	; 0x11
    9d5a:	9a 8b       	std	Y+18, r25	; 0x12
    9d5c:	ce 01       	movw	r24, r28
    9d5e:	01 96       	adiw	r24, 0x01	; 1
    9d60:	0e 94 3f 4f 	call	0x9e7e	; 0x9e7e <stopMeasurement>
    9d64:	f9 81       	ldd	r31, Y+1	; 0x01
    9d66:	ea 81       	ldd	r30, Y+2	; 0x02
    9d68:	cb 80       	ldd	r12, Y+3	; 0x03
    9d6a:	dc 80       	ldd	r13, Y+4	; 0x04
    9d6c:	ed 80       	ldd	r14, Y+5	; 0x05
    9d6e:	fe 80       	ldd	r15, Y+6	; 0x06
    9d70:	0f 81       	ldd	r16, Y+7	; 0x07
    9d72:	18 85       	ldd	r17, Y+8	; 0x08
    9d74:	94 01       	movw	r18, r8
    9d76:	40 e0       	ldi	r20, 0x00	; 0
    9d78:	50 e0       	ldi	r21, 0x00	; 0
    9d7a:	60 e0       	ldi	r22, 0x00	; 0
    9d7c:	70 e0       	ldi	r23, 0x00	; 0
    9d7e:	80 e0       	ldi	r24, 0x00	; 0
    9d80:	90 e0       	ldi	r25, 0x00	; 0
    9d82:	af 2e       	mov	r10, r31
    9d84:	be 2e       	mov	r11, r30
    9d86:	0e 94 11 51 	call	0xa222	; 0xa222 <__cmpdi2>
    9d8a:	18 f4       	brcc	.+6      	; 0x9d92 <do_measurement_reduction_7681_asm+0x27a>
    9d8c:	cf 01       	movw	r24, r30
    9d8e:	89 2e       	mov	r8, r25
    9d90:	98 2e       	mov	r9, r24
    9d92:	19 82       	std	Y+1, r1	; 0x01
    9d94:	1a 82       	std	Y+2, r1	; 0x02
    9d96:	1b 82       	std	Y+3, r1	; 0x03
    9d98:	1c 82       	std	Y+4, r1	; 0x04
    9d9a:	1d 82       	std	Y+5, r1	; 0x05
    9d9c:	1e 82       	std	Y+6, r1	; 0x06
    9d9e:	1f 82       	std	Y+7, r1	; 0x07
    9da0:	18 86       	std	Y+8, r1	; 0x08
    9da2:	89 89       	ldd	r24, Y+17	; 0x11
    9da4:	9a 89       	ldd	r25, Y+18	; 0x12
    9da6:	81 e0       	ldi	r24, 0x01	; 1
    9da8:	68 1a       	sub	r6, r24
    9daa:	71 08       	sbc	r7, r1
    9dac:	69 f6       	brne	.-102    	; 0x9d48 <do_measurement_reduction_7681_asm+0x230>
    9dae:	9f 92       	push	r9
    9db0:	8f 92       	push	r8
    9db2:	8c ec       	ldi	r24, 0xCC	; 204
    9db4:	93 e2       	ldi	r25, 0x23	; 35
    9db6:	9f 93       	push	r25
    9db8:	8f 93       	push	r24
    9dba:	0e 94 21 51 	call	0xa242	; 0xa242 <printf>
    9dbe:	0f 90       	pop	r0
    9dc0:	0f 90       	pop	r0
    9dc2:	0f 90       	pop	r0
    9dc4:	0f 90       	pop	r0
    9dc6:	62 96       	adiw	r28, 0x12	; 18
    9dc8:	cd bf       	out	0x3d, r28	; 61
    9dca:	de bf       	out	0x3e, r29	; 62
    9dcc:	df 91       	pop	r29
    9dce:	cf 91       	pop	r28
    9dd0:	1f 91       	pop	r17
    9dd2:	0f 91       	pop	r16
    9dd4:	ff 90       	pop	r15
    9dd6:	ef 90       	pop	r14
    9dd8:	df 90       	pop	r13
    9dda:	cf 90       	pop	r12
    9ddc:	bf 90       	pop	r11
    9dde:	af 90       	pop	r10
    9de0:	9f 90       	pop	r9
    9de2:	8f 90       	pop	r8
    9de4:	7f 90       	pop	r7
    9de6:	6f 90       	pop	r6
    9de8:	08 95       	ret

00009dea <generateRandomPolyTable_12289_512>:
    9dea:	fc 01       	movw	r30, r24
    9dec:	9c 5f       	subi	r25, 0xFC	; 252
    9dee:	23 e0       	ldi	r18, 0x03	; 3
    9df0:	30 e0       	ldi	r19, 0x00	; 0
    9df2:	21 93       	st	Z+, r18
    9df4:	31 93       	st	Z+, r19
    9df6:	e8 17       	cp	r30, r24
    9df8:	f9 07       	cpc	r31, r25
    9dfa:	d9 f7       	brne	.-10     	; 0x9df2 <generateRandomPolyTable_12289_512+0x8>
    9dfc:	08 95       	ret

00009dfe <generateRandomPolyTable_7681_256>:
    9dfe:	fc 01       	movw	r30, r24
    9e00:	9e 5f       	subi	r25, 0xFE	; 254
    9e02:	23 e0       	ldi	r18, 0x03	; 3
    9e04:	30 e0       	ldi	r19, 0x00	; 0
    9e06:	21 93       	st	Z+, r18
    9e08:	31 93       	st	Z+, r19
    9e0a:	e8 17       	cp	r30, r24
    9e0c:	f9 07       	cpc	r31, r25
    9e0e:	d9 f7       	brne	.-10     	; 0x9e06 <generateRandomPolyTable_7681_256+0x8>
    9e10:	08 95       	ret

00009e12 <generateRandomPolyTable_4093>:
    9e12:	9b 01       	movw	r18, r22
    9e14:	fc 01       	movw	r30, r24
    9e16:	90 e0       	ldi	r25, 0x00	; 0
    9e18:	80 e0       	ldi	r24, 0x00	; 0
    9e1a:	43 e0       	ldi	r20, 0x03	; 3
    9e1c:	50 e0       	ldi	r21, 0x00	; 0
    9e1e:	82 17       	cp	r24, r18
    9e20:	93 07       	cpc	r25, r19
    9e22:	09 f4       	brne	.+2      	; 0x9e26 <generateRandomPolyTable_4093+0x14>
    9e24:	08 95       	ret
    9e26:	41 93       	st	Z+, r20
    9e28:	51 93       	st	Z+, r21
    9e2a:	01 96       	adiw	r24, 0x01	; 1
    9e2c:	f8 cf       	rjmp	.-16     	; 0x9e1e <generateRandomPolyTable_4093+0xc>

00009e2e <generateRandomPolyTable_4096>:
    9e2e:	0c 94 09 4f 	jmp	0x9e12	; 0x9e12 <generateRandomPolyTable_4093>

00009e32 <initMeasurement>:
    9e32:	80 ec       	ldi	r24, 0xC0	; 192
    9e34:	80 93 81 01 	sts	0x0181, r24	; 0x800181 <__TEXT_REGION_LENGTH__+0x700181>
    9e38:	8f ef       	ldi	r24, 0xFF	; 255
    9e3a:	80 93 80 06 	sts	0x0680, r24	; 0x800680 <__TEXT_REGION_LENGTH__+0x700680>
    9e3e:	e0 e0       	ldi	r30, 0x00	; 0
    9e40:	f8 e0       	ldi	r31, 0x08	; 8
    9e42:	82 e0       	ldi	r24, 0x02	; 2
    9e44:	86 83       	std	Z+6, r24	; 0x06
    9e46:	2f ef       	ldi	r18, 0xFF	; 255
    9e48:	3f ef       	ldi	r19, 0xFF	; 255
    9e4a:	26 a3       	std	Z+38, r18	; 0x26
    9e4c:	37 a3       	std	Z+39, r19	; 0x27
    9e4e:	e0 e4       	ldi	r30, 0x40	; 64
    9e50:	f8 e0       	ldi	r31, 0x08	; 8
    9e52:	99 e0       	ldi	r25, 0x09	; 9
    9e54:	90 83       	st	Z, r25
    9e56:	26 a3       	std	Z+38, r18	; 0x26
    9e58:	37 a3       	std	Z+39, r19	; 0x27
    9e5a:	80 93 a2 00 	sts	0x00A2, r24	; 0x8000a2 <__TEXT_REGION_LENGTH__+0x7000a2>
    9e5e:	08 95       	ret

00009e60 <startMeasurement>:
    9e60:	10 92 60 24 	sts	0x2460, r1	; 0x802460 <ovfs>
    9e64:	10 92 61 24 	sts	0x2461, r1	; 0x802461 <ovfs+0x1>
    9e68:	e0 e0       	ldi	r30, 0x00	; 0
    9e6a:	f8 e0       	ldi	r31, 0x08	; 8
    9e6c:	10 a2       	std	Z+32, r1	; 0x20
    9e6e:	11 a2       	std	Z+33, r1	; 0x21
    9e70:	10 92 60 08 	sts	0x0860, r1	; 0x800860 <__TEXT_REGION_LENGTH__+0x700860>
    9e74:	10 92 61 08 	sts	0x0861, r1	; 0x800861 <__TEXT_REGION_LENGTH__+0x700861>
    9e78:	81 e0       	ldi	r24, 0x01	; 1
    9e7a:	80 83       	st	Z, r24
    9e7c:	08 95       	ret

00009e7e <stopMeasurement>:
    9e7e:	8f 92       	push	r8
    9e80:	9f 92       	push	r9
    9e82:	af 92       	push	r10
    9e84:	bf 92       	push	r11
    9e86:	cf 92       	push	r12
    9e88:	df 92       	push	r13
    9e8a:	ef 92       	push	r14
    9e8c:	ff 92       	push	r15
    9e8e:	0f 93       	push	r16
    9e90:	1f 93       	push	r17
    9e92:	fc 01       	movw	r30, r24
    9e94:	a0 e0       	ldi	r26, 0x00	; 0
    9e96:	b8 e0       	ldi	r27, 0x08	; 8
    9e98:	1c 92       	st	X, r1
    9e9a:	90 96       	adiw	r26, 0x20	; 32
    9e9c:	8d 91       	ld	r24, X+
    9e9e:	9c 91       	ld	r25, X
    9ea0:	80 90 60 08 	lds	r8, 0x0860	; 0x800860 <__TEXT_REGION_LENGTH__+0x700860>
    9ea4:	90 90 61 08 	lds	r9, 0x0861	; 0x800861 <__TEXT_REGION_LENGTH__+0x700861>
    9ea8:	b1 2c       	mov	r11, r1
    9eaa:	a1 2c       	mov	r10, r1
    9eac:	54 01       	movw	r10, r8
    9eae:	99 24       	eor	r9, r9
    9eb0:	88 24       	eor	r8, r8
    9eb2:	b0 e0       	ldi	r27, 0x00	; 0
    9eb4:	a0 e0       	ldi	r26, 0x00	; 0
    9eb6:	88 29       	or	r24, r8
    9eb8:	99 29       	or	r25, r9
    9eba:	aa 29       	or	r26, r10
    9ebc:	bb 29       	or	r27, r11
    9ebe:	4c 01       	movw	r8, r24
    9ec0:	5d 01       	movw	r10, r26
    9ec2:	94 01       	movw	r18, r8
    9ec4:	a5 01       	movw	r20, r10
    9ec6:	60 e0       	ldi	r22, 0x00	; 0
    9ec8:	70 e0       	ldi	r23, 0x00	; 0
    9eca:	80 e0       	ldi	r24, 0x00	; 0
    9ecc:	90 e0       	ldi	r25, 0x00	; 0
    9ece:	a0 80       	ld	r10, Z
    9ed0:	b1 80       	ldd	r11, Z+1	; 0x01
    9ed2:	c2 80       	ldd	r12, Z+2	; 0x02
    9ed4:	d3 80       	ldd	r13, Z+3	; 0x03
    9ed6:	e4 80       	ldd	r14, Z+4	; 0x04
    9ed8:	f5 80       	ldd	r15, Z+5	; 0x05
    9eda:	06 81       	ldd	r16, Z+6	; 0x06
    9edc:	17 81       	ldd	r17, Z+7	; 0x07
    9ede:	0e 94 08 51 	call	0xa210	; 0xa210 <__adddi3>
    9ee2:	20 83       	st	Z, r18
    9ee4:	31 83       	std	Z+1, r19	; 0x01
    9ee6:	42 83       	std	Z+2, r20	; 0x02
    9ee8:	53 83       	std	Z+3, r21	; 0x03
    9eea:	64 83       	std	Z+4, r22	; 0x04
    9eec:	75 83       	std	Z+5, r23	; 0x05
    9eee:	86 83       	std	Z+6, r24	; 0x06
    9ef0:	97 83       	std	Z+7, r25	; 0x07
    9ef2:	1f 91       	pop	r17
    9ef4:	0f 91       	pop	r16
    9ef6:	ff 90       	pop	r15
    9ef8:	ef 90       	pop	r14
    9efa:	df 90       	pop	r13
    9efc:	cf 90       	pop	r12
    9efe:	bf 90       	pop	r11
    9f00:	af 90       	pop	r10
    9f02:	9f 90       	pop	r9
    9f04:	8f 90       	pop	r8
    9f06:	08 95       	ret

00009f08 <printResult>:
    9f08:	af 92       	push	r10
    9f0a:	bf 92       	push	r11
    9f0c:	cf 92       	push	r12
    9f0e:	df 92       	push	r13
    9f10:	ef 92       	push	r14
    9f12:	ff 92       	push	r15
    9f14:	0f 93       	push	r16
    9f16:	1f 93       	push	r17
    9f18:	cf 93       	push	r28
    9f1a:	df 93       	push	r29
    9f1c:	ec 01       	movw	r28, r24
    9f1e:	7f 93       	push	r23
    9f20:	6f 93       	push	r22
    9f22:	86 ee       	ldi	r24, 0xE6	; 230
    9f24:	93 e2       	ldi	r25, 0x23	; 35
    9f26:	9f 93       	push	r25
    9f28:	8f 93       	push	r24
    9f2a:	0e 94 21 51 	call	0xa242	; 0xa242 <printf>
    9f2e:	28 81       	ld	r18, Y
    9f30:	39 81       	ldd	r19, Y+1	; 0x01
    9f32:	4a 81       	ldd	r20, Y+2	; 0x02
    9f34:	5b 81       	ldd	r21, Y+3	; 0x03
    9f36:	6c 81       	ldd	r22, Y+4	; 0x04
    9f38:	7d 81       	ldd	r23, Y+5	; 0x05
    9f3a:	84 e6       	ldi	r24, 0x64	; 100
    9f3c:	a8 2e       	mov	r10, r24
    9f3e:	b1 2c       	mov	r11, r1
    9f40:	c1 2c       	mov	r12, r1
    9f42:	d1 2c       	mov	r13, r1
    9f44:	e1 2c       	mov	r14, r1
    9f46:	f1 2c       	mov	r15, r1
    9f48:	00 e0       	ldi	r16, 0x00	; 0
    9f4a:	10 e0       	ldi	r17, 0x00	; 0
    9f4c:	8e 81       	ldd	r24, Y+6	; 0x06
    9f4e:	9f 81       	ldd	r25, Y+7	; 0x07
    9f50:	0e 94 ab 50 	call	0xa156	; 0xa156 <__udivdi3>
    9f54:	28 83       	st	Y, r18
    9f56:	39 83       	std	Y+1, r19	; 0x01
    9f58:	4a 83       	std	Y+2, r20	; 0x02
    9f5a:	5b 83       	std	Y+3, r21	; 0x03
    9f5c:	6c 83       	std	Y+4, r22	; 0x04
    9f5e:	7d 83       	std	Y+5, r23	; 0x05
    9f60:	8e 83       	std	Y+6, r24	; 0x06
    9f62:	9f 83       	std	Y+7, r25	; 0x07
    9f64:	5f 93       	push	r21
    9f66:	4f 93       	push	r20
    9f68:	3f 93       	push	r19
    9f6a:	2f 93       	push	r18
    9f6c:	89 ee       	ldi	r24, 0xE9	; 233
    9f6e:	93 e2       	ldi	r25, 0x23	; 35
    9f70:	9f 93       	push	r25
    9f72:	8f 93       	push	r24
    9f74:	0e 94 21 51 	call	0xa242	; 0xa242 <printf>
    9f78:	8e ee       	ldi	r24, 0xEE	; 238
    9f7a:	93 e2       	ldi	r25, 0x23	; 35
    9f7c:	0e 94 39 51 	call	0xa272	; 0xa272 <puts>
    9f80:	18 82       	st	Y, r1
    9f82:	19 82       	std	Y+1, r1	; 0x01
    9f84:	1a 82       	std	Y+2, r1	; 0x02
    9f86:	1b 82       	std	Y+3, r1	; 0x03
    9f88:	1c 82       	std	Y+4, r1	; 0x04
    9f8a:	1d 82       	std	Y+5, r1	; 0x05
    9f8c:	1e 82       	std	Y+6, r1	; 0x06
    9f8e:	1f 82       	std	Y+7, r1	; 0x07
    9f90:	8d b7       	in	r24, 0x3d	; 61
    9f92:	9e b7       	in	r25, 0x3e	; 62
    9f94:	0a 96       	adiw	r24, 0x0a	; 10
    9f96:	8d bf       	out	0x3d, r24	; 61
    9f98:	9e bf       	out	0x3e, r25	; 62
    9f9a:	df 91       	pop	r29
    9f9c:	cf 91       	pop	r28
    9f9e:	1f 91       	pop	r17
    9fa0:	0f 91       	pop	r16
    9fa2:	ff 90       	pop	r15
    9fa4:	ef 90       	pop	r14
    9fa6:	df 90       	pop	r13
    9fa8:	cf 90       	pop	r12
    9faa:	bf 90       	pop	r11
    9fac:	af 90       	pop	r10
    9fae:	08 95       	ret

00009fb0 <printResultRAM>:
    9fb0:	8f 92       	push	r8
    9fb2:	9f 92       	push	r9
    9fb4:	af 92       	push	r10
    9fb6:	bf 92       	push	r11
    9fb8:	cf 92       	push	r12
    9fba:	df 92       	push	r13
    9fbc:	ef 92       	push	r14
    9fbe:	ff 92       	push	r15
    9fc0:	0f 93       	push	r16
    9fc2:	1f 93       	push	r17
    9fc4:	cf 93       	push	r28
    9fc6:	df 93       	push	r29
    9fc8:	ec 01       	movw	r28, r24
    9fca:	96 2e       	mov	r9, r22
    9fcc:	87 2e       	mov	r8, r23
    9fce:	5f 93       	push	r21
    9fd0:	4f 93       	push	r20
    9fd2:	86 ee       	ldi	r24, 0xE6	; 230
    9fd4:	93 e2       	ldi	r25, 0x23	; 35
    9fd6:	9f 93       	push	r25
    9fd8:	8f 93       	push	r24
    9fda:	0e 94 21 51 	call	0xa242	; 0xa242 <printf>
    9fde:	28 81       	ld	r18, Y
    9fe0:	39 81       	ldd	r19, Y+1	; 0x01
    9fe2:	4a 81       	ldd	r20, Y+2	; 0x02
    9fe4:	5b 81       	ldd	r21, Y+3	; 0x03
    9fe6:	6c 81       	ldd	r22, Y+4	; 0x04
    9fe8:	7d 81       	ldd	r23, Y+5	; 0x05
    9fea:	84 e6       	ldi	r24, 0x64	; 100
    9fec:	a8 2e       	mov	r10, r24
    9fee:	b1 2c       	mov	r11, r1
    9ff0:	c1 2c       	mov	r12, r1
    9ff2:	d1 2c       	mov	r13, r1
    9ff4:	e1 2c       	mov	r14, r1
    9ff6:	f1 2c       	mov	r15, r1
    9ff8:	00 e0       	ldi	r16, 0x00	; 0
    9ffa:	10 e0       	ldi	r17, 0x00	; 0
    9ffc:	8e 81       	ldd	r24, Y+6	; 0x06
    9ffe:	9f 81       	ldd	r25, Y+7	; 0x07
    a000:	0e 94 ab 50 	call	0xa156	; 0xa156 <__udivdi3>
    a004:	28 83       	st	Y, r18
    a006:	39 83       	std	Y+1, r19	; 0x01
    a008:	4a 83       	std	Y+2, r20	; 0x02
    a00a:	5b 83       	std	Y+3, r21	; 0x03
    a00c:	6c 83       	std	Y+4, r22	; 0x04
    a00e:	7d 83       	std	Y+5, r23	; 0x05
    a010:	8e 83       	std	Y+6, r24	; 0x06
    a012:	9f 83       	std	Y+7, r25	; 0x07
    a014:	5f 93       	push	r21
    a016:	4f 93       	push	r20
    a018:	3f 93       	push	r19
    a01a:	2f 93       	push	r18
    a01c:	89 ee       	ldi	r24, 0xE9	; 233
    a01e:	93 e2       	ldi	r25, 0x23	; 35
    a020:	9f 93       	push	r25
    a022:	8f 93       	push	r24
    a024:	0e 94 21 51 	call	0xa242	; 0xa242 <printf>
    a028:	8f 92       	push	r8
    a02a:	9f 92       	push	r9
    a02c:	85 ef       	ldi	r24, 0xF5	; 245
    a02e:	93 e2       	ldi	r25, 0x23	; 35
    a030:	9f 93       	push	r25
    a032:	8f 93       	push	r24
    a034:	0e 94 21 51 	call	0xa242	; 0xa242 <printf>
    a038:	18 82       	st	Y, r1
    a03a:	19 82       	std	Y+1, r1	; 0x01
    a03c:	1a 82       	std	Y+2, r1	; 0x02
    a03e:	1b 82       	std	Y+3, r1	; 0x03
    a040:	1c 82       	std	Y+4, r1	; 0x04
    a042:	1d 82       	std	Y+5, r1	; 0x05
    a044:	1e 82       	std	Y+6, r1	; 0x06
    a046:	1f 82       	std	Y+7, r1	; 0x07
    a048:	8d b7       	in	r24, 0x3d	; 61
    a04a:	9e b7       	in	r25, 0x3e	; 62
    a04c:	0e 96       	adiw	r24, 0x0e	; 14
    a04e:	8d bf       	out	0x3d, r24	; 61
    a050:	9e bf       	out	0x3e, r25	; 62
    a052:	df 91       	pop	r29
    a054:	cf 91       	pop	r28
    a056:	1f 91       	pop	r17
    a058:	0f 91       	pop	r16
    a05a:	ff 90       	pop	r15
    a05c:	ef 90       	pop	r14
    a05e:	df 90       	pop	r13
    a060:	cf 90       	pop	r12
    a062:	bf 90       	pop	r11
    a064:	af 90       	pop	r10
    a066:	9f 90       	pop	r9
    a068:	8f 90       	pop	r8
    a06a:	08 95       	ret

0000a06c <__vector_20>:
    a06c:	1f 92       	push	r1
    a06e:	0f 92       	push	r0
    a070:	0f b6       	in	r0, 0x3f	; 63
    a072:	0f 92       	push	r0
    a074:	11 24       	eor	r1, r1
    a076:	08 b6       	in	r0, 0x38	; 56
    a078:	0f 92       	push	r0
    a07a:	18 be       	out	0x38, r1	; 56
    a07c:	09 b6       	in	r0, 0x39	; 57
    a07e:	0f 92       	push	r0
    a080:	19 be       	out	0x39, r1	; 57
    a082:	0b b6       	in	r0, 0x3b	; 59
    a084:	0f 92       	push	r0
    a086:	1b be       	out	0x3b, r1	; 59
    a088:	2f 93       	push	r18
    a08a:	3f 93       	push	r19
    a08c:	4f 93       	push	r20
    a08e:	5f 93       	push	r21
    a090:	6f 93       	push	r22
    a092:	7f 93       	push	r23
    a094:	8f 93       	push	r24
    a096:	9f 93       	push	r25
    a098:	af 93       	push	r26
    a09a:	bf 93       	push	r27
    a09c:	ef 93       	push	r30
    a09e:	ff 93       	push	r31
    a0a0:	8a e0       	ldi	r24, 0x0A	; 10
    a0a2:	94 e2       	ldi	r25, 0x24	; 36
    a0a4:	9f 93       	push	r25
    a0a6:	8f 93       	push	r24
    a0a8:	0e 94 21 51 	call	0xa242	; 0xa242 <printf>
    a0ac:	80 91 60 24 	lds	r24, 0x2460	; 0x802460 <ovfs>
    a0b0:	90 91 61 24 	lds	r25, 0x2461	; 0x802461 <ovfs+0x1>
    a0b4:	01 96       	adiw	r24, 0x01	; 1
    a0b6:	80 93 60 24 	sts	0x2460, r24	; 0x802460 <ovfs>
    a0ba:	90 93 61 24 	sts	0x2461, r25	; 0x802461 <ovfs+0x1>
    a0be:	0f 90       	pop	r0
    a0c0:	0f 90       	pop	r0
    a0c2:	ff 91       	pop	r31
    a0c4:	ef 91       	pop	r30
    a0c6:	bf 91       	pop	r27
    a0c8:	af 91       	pop	r26
    a0ca:	9f 91       	pop	r25
    a0cc:	8f 91       	pop	r24
    a0ce:	7f 91       	pop	r23
    a0d0:	6f 91       	pop	r22
    a0d2:	5f 91       	pop	r21
    a0d4:	4f 91       	pop	r20
    a0d6:	3f 91       	pop	r19
    a0d8:	2f 91       	pop	r18
    a0da:	0f 90       	pop	r0
    a0dc:	0b be       	out	0x3b, r0	; 59
    a0de:	0f 90       	pop	r0
    a0e0:	09 be       	out	0x39, r0	; 57
    a0e2:	0f 90       	pop	r0
    a0e4:	08 be       	out	0x38, r0	; 56
    a0e6:	0f 90       	pop	r0
    a0e8:	0f be       	out	0x3f, r0	; 63
    a0ea:	0f 90       	pop	r0
    a0ec:	1f 90       	pop	r1
    a0ee:	18 95       	reti

0000a0f0 <__udivmodsi4>:
    a0f0:	a1 e2       	ldi	r26, 0x21	; 33
    a0f2:	1a 2e       	mov	r1, r26
    a0f4:	aa 1b       	sub	r26, r26
    a0f6:	bb 1b       	sub	r27, r27
    a0f8:	fd 01       	movw	r30, r26
    a0fa:	0d c0       	rjmp	.+26     	; 0xa116 <__udivmodsi4_ep>

0000a0fc <__udivmodsi4_loop>:
    a0fc:	aa 1f       	adc	r26, r26
    a0fe:	bb 1f       	adc	r27, r27
    a100:	ee 1f       	adc	r30, r30
    a102:	ff 1f       	adc	r31, r31
    a104:	a2 17       	cp	r26, r18
    a106:	b3 07       	cpc	r27, r19
    a108:	e4 07       	cpc	r30, r20
    a10a:	f5 07       	cpc	r31, r21
    a10c:	20 f0       	brcs	.+8      	; 0xa116 <__udivmodsi4_ep>
    a10e:	a2 1b       	sub	r26, r18
    a110:	b3 0b       	sbc	r27, r19
    a112:	e4 0b       	sbc	r30, r20
    a114:	f5 0b       	sbc	r31, r21

0000a116 <__udivmodsi4_ep>:
    a116:	66 1f       	adc	r22, r22
    a118:	77 1f       	adc	r23, r23
    a11a:	88 1f       	adc	r24, r24
    a11c:	99 1f       	adc	r25, r25
    a11e:	1a 94       	dec	r1
    a120:	69 f7       	brne	.-38     	; 0xa0fc <__udivmodsi4_loop>
    a122:	60 95       	com	r22
    a124:	70 95       	com	r23
    a126:	80 95       	com	r24
    a128:	90 95       	com	r25
    a12a:	9b 01       	movw	r18, r22
    a12c:	ac 01       	movw	r20, r24
    a12e:	bd 01       	movw	r22, r26
    a130:	cf 01       	movw	r24, r30
    a132:	08 95       	ret

0000a134 <__umulhisi3>:
    a134:	a2 9f       	mul	r26, r18
    a136:	b0 01       	movw	r22, r0
    a138:	b3 9f       	mul	r27, r19
    a13a:	c0 01       	movw	r24, r0
    a13c:	a3 9f       	mul	r26, r19
    a13e:	70 0d       	add	r23, r0
    a140:	81 1d       	adc	r24, r1
    a142:	11 24       	eor	r1, r1
    a144:	91 1d       	adc	r25, r1
    a146:	b2 9f       	mul	r27, r18
    a148:	70 0d       	add	r23, r0
    a14a:	81 1d       	adc	r24, r1
    a14c:	11 24       	eor	r1, r1
    a14e:	91 1d       	adc	r25, r1
    a150:	08 95       	ret

0000a152 <__umoddi3>:
    a152:	68 94       	set
    a154:	01 c0       	rjmp	.+2      	; 0xa158 <__udivdi3_umoddi3>

0000a156 <__udivdi3>:
    a156:	e8 94       	clt

0000a158 <__udivdi3_umoddi3>:
    a158:	8f 92       	push	r8
    a15a:	9f 92       	push	r9
    a15c:	cf 93       	push	r28
    a15e:	df 93       	push	r29
    a160:	0e 94 b7 50 	call	0xa16e	; 0xa16e <__udivmod64>
    a164:	df 91       	pop	r29
    a166:	cf 91       	pop	r28
    a168:	9f 90       	pop	r9
    a16a:	8f 90       	pop	r8
    a16c:	08 95       	ret

0000a16e <__udivmod64>:
    a16e:	88 24       	eor	r8, r8
    a170:	99 24       	eor	r9, r9
    a172:	f4 01       	movw	r30, r8
    a174:	e4 01       	movw	r28, r8
    a176:	b0 e4       	ldi	r27, 0x40	; 64
    a178:	9f 93       	push	r25
    a17a:	aa 27       	eor	r26, r26
    a17c:	9a 15       	cp	r25, r10
    a17e:	8b 04       	cpc	r8, r11
    a180:	9c 04       	cpc	r9, r12
    a182:	ed 05       	cpc	r30, r13
    a184:	fe 05       	cpc	r31, r14
    a186:	cf 05       	cpc	r28, r15
    a188:	d0 07       	cpc	r29, r16
    a18a:	a1 07       	cpc	r26, r17
    a18c:	98 f4       	brcc	.+38     	; 0xa1b4 <__udivmod64+0x46>
    a18e:	ad 2f       	mov	r26, r29
    a190:	dc 2f       	mov	r29, r28
    a192:	cf 2f       	mov	r28, r31
    a194:	fe 2f       	mov	r31, r30
    a196:	e9 2d       	mov	r30, r9
    a198:	98 2c       	mov	r9, r8
    a19a:	89 2e       	mov	r8, r25
    a19c:	98 2f       	mov	r25, r24
    a19e:	87 2f       	mov	r24, r23
    a1a0:	76 2f       	mov	r23, r22
    a1a2:	65 2f       	mov	r22, r21
    a1a4:	54 2f       	mov	r21, r20
    a1a6:	43 2f       	mov	r20, r19
    a1a8:	32 2f       	mov	r19, r18
    a1aa:	22 27       	eor	r18, r18
    a1ac:	b8 50       	subi	r27, 0x08	; 8
    a1ae:	31 f7       	brne	.-52     	; 0xa17c <__udivmod64+0xe>
    a1b0:	bf 91       	pop	r27
    a1b2:	27 c0       	rjmp	.+78     	; 0xa202 <__udivmod64+0x94>
    a1b4:	1b 2e       	mov	r1, r27
    a1b6:	bf 91       	pop	r27
    a1b8:	bb 27       	eor	r27, r27
    a1ba:	22 0f       	add	r18, r18
    a1bc:	33 1f       	adc	r19, r19
    a1be:	44 1f       	adc	r20, r20
    a1c0:	55 1f       	adc	r21, r21
    a1c2:	66 1f       	adc	r22, r22
    a1c4:	77 1f       	adc	r23, r23
    a1c6:	88 1f       	adc	r24, r24
    a1c8:	99 1f       	adc	r25, r25
    a1ca:	88 1c       	adc	r8, r8
    a1cc:	99 1c       	adc	r9, r9
    a1ce:	ee 1f       	adc	r30, r30
    a1d0:	ff 1f       	adc	r31, r31
    a1d2:	cc 1f       	adc	r28, r28
    a1d4:	dd 1f       	adc	r29, r29
    a1d6:	aa 1f       	adc	r26, r26
    a1d8:	bb 1f       	adc	r27, r27
    a1da:	8a 14       	cp	r8, r10
    a1dc:	9b 04       	cpc	r9, r11
    a1de:	ec 05       	cpc	r30, r12
    a1e0:	fd 05       	cpc	r31, r13
    a1e2:	ce 05       	cpc	r28, r14
    a1e4:	df 05       	cpc	r29, r15
    a1e6:	a0 07       	cpc	r26, r16
    a1e8:	b1 07       	cpc	r27, r17
    a1ea:	48 f0       	brcs	.+18     	; 0xa1fe <__udivmod64+0x90>
    a1ec:	8a 18       	sub	r8, r10
    a1ee:	9b 08       	sbc	r9, r11
    a1f0:	ec 09       	sbc	r30, r12
    a1f2:	fd 09       	sbc	r31, r13
    a1f4:	ce 09       	sbc	r28, r14
    a1f6:	df 09       	sbc	r29, r15
    a1f8:	a0 0b       	sbc	r26, r16
    a1fa:	b1 0b       	sbc	r27, r17
    a1fc:	21 60       	ori	r18, 0x01	; 1
    a1fe:	1a 94       	dec	r1
    a200:	e1 f6       	brne	.-72     	; 0xa1ba <__udivmod64+0x4c>
    a202:	2e f4       	brtc	.+10     	; 0xa20e <__udivmod64+0xa0>
    a204:	94 01       	movw	r18, r8
    a206:	af 01       	movw	r20, r30
    a208:	be 01       	movw	r22, r28
    a20a:	cd 01       	movw	r24, r26
    a20c:	00 0c       	add	r0, r0
    a20e:	08 95       	ret

0000a210 <__adddi3>:
    a210:	2a 0d       	add	r18, r10
    a212:	3b 1d       	adc	r19, r11
    a214:	4c 1d       	adc	r20, r12
    a216:	5d 1d       	adc	r21, r13
    a218:	6e 1d       	adc	r22, r14
    a21a:	7f 1d       	adc	r23, r15
    a21c:	80 1f       	adc	r24, r16
    a21e:	91 1f       	adc	r25, r17
    a220:	08 95       	ret

0000a222 <__cmpdi2>:
    a222:	2a 15       	cp	r18, r10
    a224:	3b 05       	cpc	r19, r11
    a226:	4c 05       	cpc	r20, r12
    a228:	5d 05       	cpc	r21, r13
    a22a:	6e 05       	cpc	r22, r14
    a22c:	7f 05       	cpc	r23, r15
    a22e:	80 07       	cpc	r24, r16
    a230:	91 07       	cpc	r25, r17
    a232:	08 95       	ret

0000a234 <strcpy>:
    a234:	fb 01       	movw	r30, r22
    a236:	dc 01       	movw	r26, r24
    a238:	01 90       	ld	r0, Z+
    a23a:	0d 92       	st	X+, r0
    a23c:	00 20       	and	r0, r0
    a23e:	e1 f7       	brne	.-8      	; 0xa238 <strcpy+0x4>
    a240:	08 95       	ret

0000a242 <printf>:
    a242:	cf 93       	push	r28
    a244:	df 93       	push	r29
    a246:	cd b7       	in	r28, 0x3d	; 61
    a248:	de b7       	in	r29, 0x3e	; 62
    a24a:	fe 01       	movw	r30, r28
    a24c:	36 96       	adiw	r30, 0x06	; 6
    a24e:	61 91       	ld	r22, Z+
    a250:	71 91       	ld	r23, Z+
    a252:	af 01       	movw	r20, r30
    a254:	80 91 64 24 	lds	r24, 0x2464	; 0x802464 <__iob+0x2>
    a258:	90 91 65 24 	lds	r25, 0x2465	; 0x802465 <__iob+0x3>
    a25c:	0e 94 65 51 	call	0xa2ca	; 0xa2ca <vfprintf>
    a260:	df 91       	pop	r29
    a262:	cf 91       	pop	r28
    a264:	08 95       	ret

0000a266 <putchar>:
    a266:	60 91 64 24 	lds	r22, 0x2464	; 0x802464 <__iob+0x2>
    a26a:	70 91 65 24 	lds	r23, 0x2465	; 0x802465 <__iob+0x3>
    a26e:	0c 94 76 53 	jmp	0xa6ec	; 0xa6ec <fputc>

0000a272 <puts>:
    a272:	0f 93       	push	r16
    a274:	1f 93       	push	r17
    a276:	cf 93       	push	r28
    a278:	df 93       	push	r29
    a27a:	e0 91 64 24 	lds	r30, 0x2464	; 0x802464 <__iob+0x2>
    a27e:	f0 91 65 24 	lds	r31, 0x2465	; 0x802465 <__iob+0x3>
    a282:	23 81       	ldd	r18, Z+3	; 0x03
    a284:	10 e0       	ldi	r17, 0x00	; 0
    a286:	00 e0       	ldi	r16, 0x00	; 0
    a288:	21 fd       	sbrc	r18, 1
    a28a:	0e c0       	rjmp	.+28     	; 0xa2a8 <puts+0x36>
    a28c:	0f ef       	ldi	r16, 0xFF	; 255
    a28e:	1f ef       	ldi	r17, 0xFF	; 255
    a290:	c8 01       	movw	r24, r16
    a292:	df 91       	pop	r29
    a294:	cf 91       	pop	r28
    a296:	1f 91       	pop	r17
    a298:	0f 91       	pop	r16
    a29a:	08 95       	ret
    a29c:	19 95       	eicall
    a29e:	89 2b       	or	r24, r25
    a2a0:	11 f0       	breq	.+4      	; 0xa2a6 <puts+0x34>
    a2a2:	0f ef       	ldi	r16, 0xFF	; 255
    a2a4:	1f ef       	ldi	r17, 0xFF	; 255
    a2a6:	ce 01       	movw	r24, r28
    a2a8:	ec 01       	movw	r28, r24
    a2aa:	89 91       	ld	r24, Y+
    a2ac:	60 91 64 24 	lds	r22, 0x2464	; 0x802464 <__iob+0x2>
    a2b0:	70 91 65 24 	lds	r23, 0x2465	; 0x802465 <__iob+0x3>
    a2b4:	db 01       	movw	r26, r22
    a2b6:	18 96       	adiw	r26, 0x08	; 8
    a2b8:	ed 91       	ld	r30, X+
    a2ba:	fc 91       	ld	r31, X
    a2bc:	81 11       	cpse	r24, r1
    a2be:	ee cf       	rjmp	.-36     	; 0xa29c <puts+0x2a>
    a2c0:	8a e0       	ldi	r24, 0x0A	; 10
    a2c2:	19 95       	eicall
    a2c4:	89 2b       	or	r24, r25
    a2c6:	21 f3       	breq	.-56     	; 0xa290 <puts+0x1e>
    a2c8:	e1 cf       	rjmp	.-62     	; 0xa28c <puts+0x1a>

0000a2ca <vfprintf>:
    a2ca:	2f 92       	push	r2
    a2cc:	3f 92       	push	r3
    a2ce:	4f 92       	push	r4
    a2d0:	5f 92       	push	r5
    a2d2:	6f 92       	push	r6
    a2d4:	7f 92       	push	r7
    a2d6:	8f 92       	push	r8
    a2d8:	9f 92       	push	r9
    a2da:	af 92       	push	r10
    a2dc:	bf 92       	push	r11
    a2de:	cf 92       	push	r12
    a2e0:	df 92       	push	r13
    a2e2:	ef 92       	push	r14
    a2e4:	ff 92       	push	r15
    a2e6:	0f 93       	push	r16
    a2e8:	1f 93       	push	r17
    a2ea:	cf 93       	push	r28
    a2ec:	df 93       	push	r29
    a2ee:	cd b7       	in	r28, 0x3d	; 61
    a2f0:	de b7       	in	r29, 0x3e	; 62
    a2f2:	2f 97       	sbiw	r28, 0x0f	; 15
    a2f4:	cd bf       	out	0x3d, r28	; 61
    a2f6:	de bf       	out	0x3e, r29	; 62
    a2f8:	7c 01       	movw	r14, r24
    a2fa:	3b 01       	movw	r6, r22
    a2fc:	8a 01       	movw	r16, r20
    a2fe:	dc 01       	movw	r26, r24
    a300:	16 96       	adiw	r26, 0x06	; 6
    a302:	1d 92       	st	X+, r1
    a304:	1c 92       	st	X, r1
    a306:	17 97       	sbiw	r26, 0x07	; 7
    a308:	13 96       	adiw	r26, 0x03	; 3
    a30a:	8c 91       	ld	r24, X
    a30c:	81 ff       	sbrs	r24, 1
    a30e:	d5 c1       	rjmp	.+938    	; 0xa6ba <vfprintf+0x3f0>
    a310:	9a e0       	ldi	r25, 0x0A	; 10
    a312:	29 2e       	mov	r2, r25
    a314:	fe 01       	movw	r30, r28
    a316:	31 96       	adiw	r30, 0x01	; 1
    a318:	4f 01       	movw	r8, r30
    a31a:	d7 01       	movw	r26, r14
    a31c:	13 96       	adiw	r26, 0x03	; 3
    a31e:	9c 91       	ld	r25, X
    a320:	f3 01       	movw	r30, r6
    a322:	93 fd       	sbrc	r25, 3
    a324:	85 91       	lpm	r24, Z+
    a326:	93 ff       	sbrs	r25, 3
    a328:	81 91       	ld	r24, Z+
    a32a:	3f 01       	movw	r6, r30
    a32c:	88 23       	and	r24, r24
    a32e:	09 f4       	brne	.+2      	; 0xa332 <vfprintf+0x68>
    a330:	48 c1       	rjmp	.+656    	; 0xa5c2 <vfprintf+0x2f8>
    a332:	85 32       	cpi	r24, 0x25	; 37
    a334:	39 f4       	brne	.+14     	; 0xa344 <vfprintf+0x7a>
    a336:	93 fd       	sbrc	r25, 3
    a338:	85 91       	lpm	r24, Z+
    a33a:	93 ff       	sbrs	r25, 3
    a33c:	81 91       	ld	r24, Z+
    a33e:	3f 01       	movw	r6, r30
    a340:	85 32       	cpi	r24, 0x25	; 37
    a342:	29 f4       	brne	.+10     	; 0xa34e <vfprintf+0x84>
    a344:	b7 01       	movw	r22, r14
    a346:	90 e0       	ldi	r25, 0x00	; 0
    a348:	0e 94 76 53 	call	0xa6ec	; 0xa6ec <fputc>
    a34c:	e6 cf       	rjmp	.-52     	; 0xa31a <vfprintf+0x50>
    a34e:	b1 2c       	mov	r11, r1
    a350:	41 2c       	mov	r4, r1
    a352:	51 2c       	mov	r5, r1
    a354:	bf e1       	ldi	r27, 0x1F	; 31
    a356:	b5 15       	cp	r27, r5
    a358:	38 f0       	brcs	.+14     	; 0xa368 <vfprintf+0x9e>
    a35a:	8b 32       	cpi	r24, 0x2B	; 43
    a35c:	09 f1       	breq	.+66     	; 0xa3a0 <vfprintf+0xd6>
    a35e:	88 f4       	brcc	.+34     	; 0xa382 <vfprintf+0xb8>
    a360:	80 32       	cpi	r24, 0x20	; 32
    a362:	01 f1       	breq	.+64     	; 0xa3a4 <vfprintf+0xda>
    a364:	83 32       	cpi	r24, 0x23	; 35
    a366:	21 f1       	breq	.+72     	; 0xa3b0 <vfprintf+0xe6>
    a368:	57 fc       	sbrc	r5, 7
    a36a:	3a c0       	rjmp	.+116    	; 0xa3e0 <vfprintf+0x116>
    a36c:	20 ed       	ldi	r18, 0xD0	; 208
    a36e:	28 0f       	add	r18, r24
    a370:	2a 30       	cpi	r18, 0x0A	; 10
    a372:	40 f5       	brcc	.+80     	; 0xa3c4 <vfprintf+0xfa>
    a374:	56 fe       	sbrs	r5, 6
    a376:	1f c0       	rjmp	.+62     	; 0xa3b6 <vfprintf+0xec>
    a378:	b2 9c       	mul	r11, r2
    a37a:	20 0d       	add	r18, r0
    a37c:	11 24       	eor	r1, r1
    a37e:	b2 2e       	mov	r11, r18
    a380:	06 c0       	rjmp	.+12     	; 0xa38e <vfprintf+0xc4>
    a382:	8d 32       	cpi	r24, 0x2D	; 45
    a384:	91 f0       	breq	.+36     	; 0xa3aa <vfprintf+0xe0>
    a386:	80 33       	cpi	r24, 0x30	; 48
    a388:	79 f7       	brne	.-34     	; 0xa368 <vfprintf+0x9e>
    a38a:	68 94       	set
    a38c:	50 f8       	bld	r5, 0
    a38e:	f3 01       	movw	r30, r6
    a390:	93 fd       	sbrc	r25, 3
    a392:	85 91       	lpm	r24, Z+
    a394:	93 ff       	sbrs	r25, 3
    a396:	81 91       	ld	r24, Z+
    a398:	3f 01       	movw	r6, r30
    a39a:	81 11       	cpse	r24, r1
    a39c:	db cf       	rjmp	.-74     	; 0xa354 <vfprintf+0x8a>
    a39e:	20 c0       	rjmp	.+64     	; 0xa3e0 <vfprintf+0x116>
    a3a0:	68 94       	set
    a3a2:	51 f8       	bld	r5, 1
    a3a4:	68 94       	set
    a3a6:	52 f8       	bld	r5, 2
    a3a8:	f2 cf       	rjmp	.-28     	; 0xa38e <vfprintf+0xc4>
    a3aa:	68 94       	set
    a3ac:	53 f8       	bld	r5, 3
    a3ae:	ef cf       	rjmp	.-34     	; 0xa38e <vfprintf+0xc4>
    a3b0:	68 94       	set
    a3b2:	54 f8       	bld	r5, 4
    a3b4:	ec cf       	rjmp	.-40     	; 0xa38e <vfprintf+0xc4>
    a3b6:	42 9c       	mul	r4, r2
    a3b8:	20 0d       	add	r18, r0
    a3ba:	11 24       	eor	r1, r1
    a3bc:	42 2e       	mov	r4, r18
    a3be:	68 94       	set
    a3c0:	55 f8       	bld	r5, 5
    a3c2:	e5 cf       	rjmp	.-54     	; 0xa38e <vfprintf+0xc4>
    a3c4:	8e 32       	cpi	r24, 0x2E	; 46
    a3c6:	29 f4       	brne	.+10     	; 0xa3d2 <vfprintf+0x108>
    a3c8:	56 fc       	sbrc	r5, 6
    a3ca:	fb c0       	rjmp	.+502    	; 0xa5c2 <vfprintf+0x2f8>
    a3cc:	68 94       	set
    a3ce:	56 f8       	bld	r5, 6
    a3d0:	de cf       	rjmp	.-68     	; 0xa38e <vfprintf+0xc4>
    a3d2:	8c 36       	cpi	r24, 0x6C	; 108
    a3d4:	19 f4       	brne	.+6      	; 0xa3dc <vfprintf+0x112>
    a3d6:	68 94       	set
    a3d8:	57 f8       	bld	r5, 7
    a3da:	d9 cf       	rjmp	.-78     	; 0xa38e <vfprintf+0xc4>
    a3dc:	88 36       	cpi	r24, 0x68	; 104
    a3de:	b9 f2       	breq	.-82     	; 0xa38e <vfprintf+0xc4>
    a3e0:	98 2f       	mov	r25, r24
    a3e2:	9f 7d       	andi	r25, 0xDF	; 223
    a3e4:	95 54       	subi	r25, 0x45	; 69
    a3e6:	93 30       	cpi	r25, 0x03	; 3
    a3e8:	c0 f0       	brcs	.+48     	; 0xa41a <vfprintf+0x150>
    a3ea:	83 36       	cpi	r24, 0x63	; 99
    a3ec:	a1 f1       	breq	.+104    	; 0xa456 <vfprintf+0x18c>
    a3ee:	83 37       	cpi	r24, 0x73	; 115
    a3f0:	c1 f1       	breq	.+112    	; 0xa462 <vfprintf+0x198>
    a3f2:	83 35       	cpi	r24, 0x53	; 83
    a3f4:	09 f0       	breq	.+2      	; 0xa3f8 <vfprintf+0x12e>
    a3f6:	5b c0       	rjmp	.+182    	; 0xa4ae <vfprintf+0x1e4>
    a3f8:	d8 01       	movw	r26, r16
    a3fa:	cd 90       	ld	r12, X+
    a3fc:	dd 90       	ld	r13, X+
    a3fe:	8d 01       	movw	r16, r26
    a400:	6b 2d       	mov	r22, r11
    a402:	70 e0       	ldi	r23, 0x00	; 0
    a404:	56 fc       	sbrc	r5, 6
    a406:	02 c0       	rjmp	.+4      	; 0xa40c <vfprintf+0x142>
    a408:	6f ef       	ldi	r22, 0xFF	; 255
    a40a:	7f ef       	ldi	r23, 0xFF	; 255
    a40c:	c6 01       	movw	r24, r12
    a40e:	0e 94 60 53 	call	0xa6c0	; 0xa6c0 <strnlen_P>
    a412:	5c 01       	movw	r10, r24
    a414:	68 94       	set
    a416:	57 f8       	bld	r5, 7
    a418:	0a c0       	rjmp	.+20     	; 0xa42e <vfprintf+0x164>
    a41a:	0c 5f       	subi	r16, 0xFC	; 252
    a41c:	1f 4f       	sbci	r17, 0xFF	; 255
    a41e:	ef e3       	ldi	r30, 0x3F	; 63
    a420:	e9 83       	std	Y+1, r30	; 0x01
    a422:	aa 24       	eor	r10, r10
    a424:	a3 94       	inc	r10
    a426:	b1 2c       	mov	r11, r1
    a428:	64 01       	movw	r12, r8
    a42a:	e8 94       	clt
    a42c:	57 f8       	bld	r5, 7
    a42e:	53 fc       	sbrc	r5, 3
    a430:	04 c0       	rjmp	.+8      	; 0xa43a <vfprintf+0x170>
    a432:	4a 14       	cp	r4, r10
    a434:	1b 04       	cpc	r1, r11
    a436:	09 f0       	breq	.+2      	; 0xa43a <vfprintf+0x170>
    a438:	18 f5       	brcc	.+70     	; 0xa480 <vfprintf+0x1b6>
    a43a:	34 2c       	mov	r3, r4
    a43c:	a1 14       	cp	r10, r1
    a43e:	b1 04       	cpc	r11, r1
    a440:	31 f5       	brne	.+76     	; 0xa48e <vfprintf+0x1c4>
    a442:	33 20       	and	r3, r3
    a444:	09 f4       	brne	.+2      	; 0xa448 <vfprintf+0x17e>
    a446:	69 cf       	rjmp	.-302    	; 0xa31a <vfprintf+0x50>
    a448:	b7 01       	movw	r22, r14
    a44a:	80 e2       	ldi	r24, 0x20	; 32
    a44c:	90 e0       	ldi	r25, 0x00	; 0
    a44e:	0e 94 76 53 	call	0xa6ec	; 0xa6ec <fputc>
    a452:	3a 94       	dec	r3
    a454:	f6 cf       	rjmp	.-20     	; 0xa442 <vfprintf+0x178>
    a456:	d8 01       	movw	r26, r16
    a458:	8c 91       	ld	r24, X
    a45a:	89 83       	std	Y+1, r24	; 0x01
    a45c:	0e 5f       	subi	r16, 0xFE	; 254
    a45e:	1f 4f       	sbci	r17, 0xFF	; 255
    a460:	e0 cf       	rjmp	.-64     	; 0xa422 <vfprintf+0x158>
    a462:	f8 01       	movw	r30, r16
    a464:	c1 90       	ld	r12, Z+
    a466:	d1 90       	ld	r13, Z+
    a468:	8f 01       	movw	r16, r30
    a46a:	6b 2d       	mov	r22, r11
    a46c:	70 e0       	ldi	r23, 0x00	; 0
    a46e:	56 fc       	sbrc	r5, 6
    a470:	02 c0       	rjmp	.+4      	; 0xa476 <vfprintf+0x1ac>
    a472:	6f ef       	ldi	r22, 0xFF	; 255
    a474:	7f ef       	ldi	r23, 0xFF	; 255
    a476:	c6 01       	movw	r24, r12
    a478:	0e 94 6b 53 	call	0xa6d6	; 0xa6d6 <strnlen>
    a47c:	5c 01       	movw	r10, r24
    a47e:	d5 cf       	rjmp	.-86     	; 0xa42a <vfprintf+0x160>
    a480:	b7 01       	movw	r22, r14
    a482:	80 e2       	ldi	r24, 0x20	; 32
    a484:	90 e0       	ldi	r25, 0x00	; 0
    a486:	0e 94 76 53 	call	0xa6ec	; 0xa6ec <fputc>
    a48a:	4a 94       	dec	r4
    a48c:	d2 cf       	rjmp	.-92     	; 0xa432 <vfprintf+0x168>
    a48e:	f6 01       	movw	r30, r12
    a490:	57 fc       	sbrc	r5, 7
    a492:	85 91       	lpm	r24, Z+
    a494:	57 fe       	sbrs	r5, 7
    a496:	81 91       	ld	r24, Z+
    a498:	6f 01       	movw	r12, r30
    a49a:	b7 01       	movw	r22, r14
    a49c:	90 e0       	ldi	r25, 0x00	; 0
    a49e:	0e 94 76 53 	call	0xa6ec	; 0xa6ec <fputc>
    a4a2:	31 10       	cpse	r3, r1
    a4a4:	3a 94       	dec	r3
    a4a6:	b1 e0       	ldi	r27, 0x01	; 1
    a4a8:	ab 1a       	sub	r10, r27
    a4aa:	b1 08       	sbc	r11, r1
    a4ac:	c7 cf       	rjmp	.-114    	; 0xa43c <vfprintf+0x172>
    a4ae:	84 36       	cpi	r24, 0x64	; 100
    a4b0:	19 f0       	breq	.+6      	; 0xa4b8 <vfprintf+0x1ee>
    a4b2:	89 36       	cpi	r24, 0x69	; 105
    a4b4:	09 f0       	breq	.+2      	; 0xa4b8 <vfprintf+0x1ee>
    a4b6:	74 c0       	rjmp	.+232    	; 0xa5a0 <vfprintf+0x2d6>
    a4b8:	f8 01       	movw	r30, r16
    a4ba:	57 fe       	sbrs	r5, 7
    a4bc:	6a c0       	rjmp	.+212    	; 0xa592 <vfprintf+0x2c8>
    a4be:	61 91       	ld	r22, Z+
    a4c0:	71 91       	ld	r23, Z+
    a4c2:	81 91       	ld	r24, Z+
    a4c4:	91 91       	ld	r25, Z+
    a4c6:	8f 01       	movw	r16, r30
    a4c8:	e5 2d       	mov	r30, r5
    a4ca:	ef 76       	andi	r30, 0x6F	; 111
    a4cc:	de 2e       	mov	r13, r30
    a4ce:	97 ff       	sbrs	r25, 7
    a4d0:	09 c0       	rjmp	.+18     	; 0xa4e4 <vfprintf+0x21a>
    a4d2:	90 95       	com	r25
    a4d4:	80 95       	com	r24
    a4d6:	70 95       	com	r23
    a4d8:	61 95       	neg	r22
    a4da:	7f 4f       	sbci	r23, 0xFF	; 255
    a4dc:	8f 4f       	sbci	r24, 0xFF	; 255
    a4de:	9f 4f       	sbci	r25, 0xFF	; 255
    a4e0:	68 94       	set
    a4e2:	d7 f8       	bld	r13, 7
    a4e4:	2a e0       	ldi	r18, 0x0A	; 10
    a4e6:	30 e0       	ldi	r19, 0x00	; 0
    a4e8:	a4 01       	movw	r20, r8
    a4ea:	0e 94 a6 53 	call	0xa74c	; 0xa74c <__ultoa_invert>
    a4ee:	c8 2e       	mov	r12, r24
    a4f0:	c8 18       	sub	r12, r8
    a4f2:	ac 2c       	mov	r10, r12
    a4f4:	5d 2c       	mov	r5, r13
    a4f6:	d6 fe       	sbrs	r13, 6
    a4f8:	0c c0       	rjmp	.+24     	; 0xa512 <vfprintf+0x248>
    a4fa:	e8 94       	clt
    a4fc:	50 f8       	bld	r5, 0
    a4fe:	cb 14       	cp	r12, r11
    a500:	40 f4       	brcc	.+16     	; 0xa512 <vfprintf+0x248>
    a502:	d4 fe       	sbrs	r13, 4
    a504:	05 c0       	rjmp	.+10     	; 0xa510 <vfprintf+0x246>
    a506:	d2 fc       	sbrc	r13, 2
    a508:	03 c0       	rjmp	.+6      	; 0xa510 <vfprintf+0x246>
    a50a:	5d 2d       	mov	r21, r13
    a50c:	5e 7e       	andi	r21, 0xEE	; 238
    a50e:	55 2e       	mov	r5, r21
    a510:	ab 2c       	mov	r10, r11
    a512:	54 fe       	sbrs	r5, 4
    a514:	aa c0       	rjmp	.+340    	; 0xa66a <vfprintf+0x3a0>
    a516:	fe 01       	movw	r30, r28
    a518:	ec 0d       	add	r30, r12
    a51a:	f1 1d       	adc	r31, r1
    a51c:	80 81       	ld	r24, Z
    a51e:	80 33       	cpi	r24, 0x30	; 48
    a520:	09 f0       	breq	.+2      	; 0xa524 <vfprintf+0x25a>
    a522:	9c c0       	rjmp	.+312    	; 0xa65c <vfprintf+0x392>
    a524:	65 2d       	mov	r22, r5
    a526:	69 7e       	andi	r22, 0xE9	; 233
    a528:	56 2e       	mov	r5, r22
    a52a:	75 2d       	mov	r23, r5
    a52c:	78 70       	andi	r23, 0x08	; 8
    a52e:	37 2e       	mov	r3, r23
    a530:	53 fc       	sbrc	r5, 3
    a532:	aa c0       	rjmp	.+340    	; 0xa688 <vfprintf+0x3be>
    a534:	50 fe       	sbrs	r5, 0
    a536:	a4 c0       	rjmp	.+328    	; 0xa680 <vfprintf+0x3b6>
    a538:	bc 2c       	mov	r11, r12
    a53a:	a4 14       	cp	r10, r4
    a53c:	18 f4       	brcc	.+6      	; 0xa544 <vfprintf+0x27a>
    a53e:	4c 0c       	add	r4, r12
    a540:	b4 2c       	mov	r11, r4
    a542:	ba 18       	sub	r11, r10
    a544:	54 fe       	sbrs	r5, 4
    a546:	a6 c0       	rjmp	.+332    	; 0xa694 <vfprintf+0x3ca>
    a548:	b7 01       	movw	r22, r14
    a54a:	80 e3       	ldi	r24, 0x30	; 48
    a54c:	90 e0       	ldi	r25, 0x00	; 0
    a54e:	0e 94 76 53 	call	0xa6ec	; 0xa6ec <fputc>
    a552:	52 fe       	sbrs	r5, 2
    a554:	09 c0       	rjmp	.+18     	; 0xa568 <vfprintf+0x29e>
    a556:	88 e7       	ldi	r24, 0x78	; 120
    a558:	90 e0       	ldi	r25, 0x00	; 0
    a55a:	51 fe       	sbrs	r5, 1
    a55c:	02 c0       	rjmp	.+4      	; 0xa562 <vfprintf+0x298>
    a55e:	88 e5       	ldi	r24, 0x58	; 88
    a560:	90 e0       	ldi	r25, 0x00	; 0
    a562:	b7 01       	movw	r22, r14
    a564:	0e 94 76 53 	call	0xa6ec	; 0xa6ec <fputc>
    a568:	cb 14       	cp	r12, r11
    a56a:	08 f4       	brcc	.+2      	; 0xa56e <vfprintf+0x2a4>
    a56c:	9f c0       	rjmp	.+318    	; 0xa6ac <vfprintf+0x3e2>
    a56e:	ca 94       	dec	r12
    a570:	d1 2c       	mov	r13, r1
    a572:	8f ef       	ldi	r24, 0xFF	; 255
    a574:	c8 1a       	sub	r12, r24
    a576:	d8 0a       	sbc	r13, r24
    a578:	c8 0c       	add	r12, r8
    a57a:	d9 1c       	adc	r13, r9
    a57c:	d6 01       	movw	r26, r12
    a57e:	8e 91       	ld	r24, -X
    a580:	6d 01       	movw	r12, r26
    a582:	b7 01       	movw	r22, r14
    a584:	90 e0       	ldi	r25, 0x00	; 0
    a586:	0e 94 76 53 	call	0xa6ec	; 0xa6ec <fputc>
    a58a:	8c 14       	cp	r8, r12
    a58c:	9d 04       	cpc	r9, r13
    a58e:	b1 f7       	brne	.-20     	; 0xa57c <vfprintf+0x2b2>
    a590:	58 cf       	rjmp	.-336    	; 0xa442 <vfprintf+0x178>
    a592:	61 91       	ld	r22, Z+
    a594:	71 91       	ld	r23, Z+
    a596:	07 2e       	mov	r0, r23
    a598:	00 0c       	add	r0, r0
    a59a:	88 0b       	sbc	r24, r24
    a59c:	99 0b       	sbc	r25, r25
    a59e:	93 cf       	rjmp	.-218    	; 0xa4c6 <vfprintf+0x1fc>
    a5a0:	d5 2c       	mov	r13, r5
    a5a2:	e8 94       	clt
    a5a4:	d4 f8       	bld	r13, 4
    a5a6:	2a e0       	ldi	r18, 0x0A	; 10
    a5a8:	30 e0       	ldi	r19, 0x00	; 0
    a5aa:	85 37       	cpi	r24, 0x75	; 117
    a5ac:	c9 f1       	breq	.+114    	; 0xa620 <vfprintf+0x356>
    a5ae:	f5 2d       	mov	r31, r5
    a5b0:	f9 7f       	andi	r31, 0xF9	; 249
    a5b2:	df 2e       	mov	r13, r31
    a5b4:	80 37       	cpi	r24, 0x70	; 112
    a5b6:	39 f1       	breq	.+78     	; 0xa606 <vfprintf+0x33c>
    a5b8:	e8 f4       	brcc	.+58     	; 0xa5f4 <vfprintf+0x32a>
    a5ba:	88 35       	cpi	r24, 0x58	; 88
    a5bc:	39 f1       	breq	.+78     	; 0xa60c <vfprintf+0x342>
    a5be:	8f 36       	cpi	r24, 0x6F	; 111
    a5c0:	69 f1       	breq	.+90     	; 0xa61c <vfprintf+0x352>
    a5c2:	f7 01       	movw	r30, r14
    a5c4:	86 81       	ldd	r24, Z+6	; 0x06
    a5c6:	97 81       	ldd	r25, Z+7	; 0x07
    a5c8:	2f 96       	adiw	r28, 0x0f	; 15
    a5ca:	cd bf       	out	0x3d, r28	; 61
    a5cc:	de bf       	out	0x3e, r29	; 62
    a5ce:	df 91       	pop	r29
    a5d0:	cf 91       	pop	r28
    a5d2:	1f 91       	pop	r17
    a5d4:	0f 91       	pop	r16
    a5d6:	ff 90       	pop	r15
    a5d8:	ef 90       	pop	r14
    a5da:	df 90       	pop	r13
    a5dc:	cf 90       	pop	r12
    a5de:	bf 90       	pop	r11
    a5e0:	af 90       	pop	r10
    a5e2:	9f 90       	pop	r9
    a5e4:	8f 90       	pop	r8
    a5e6:	7f 90       	pop	r7
    a5e8:	6f 90       	pop	r6
    a5ea:	5f 90       	pop	r5
    a5ec:	4f 90       	pop	r4
    a5ee:	3f 90       	pop	r3
    a5f0:	2f 90       	pop	r2
    a5f2:	08 95       	ret
    a5f4:	88 37       	cpi	r24, 0x78	; 120
    a5f6:	29 f7       	brne	.-54     	; 0xa5c2 <vfprintf+0x2f8>
    a5f8:	d4 fe       	sbrs	r13, 4
    a5fa:	02 c0       	rjmp	.+4      	; 0xa600 <vfprintf+0x336>
    a5fc:	68 94       	set
    a5fe:	d2 f8       	bld	r13, 2
    a600:	20 e1       	ldi	r18, 0x10	; 16
    a602:	30 e0       	ldi	r19, 0x00	; 0
    a604:	0d c0       	rjmp	.+26     	; 0xa620 <vfprintf+0x356>
    a606:	68 94       	set
    a608:	d4 f8       	bld	r13, 4
    a60a:	f6 cf       	rjmp	.-20     	; 0xa5f8 <vfprintf+0x32e>
    a60c:	54 fe       	sbrs	r5, 4
    a60e:	03 c0       	rjmp	.+6      	; 0xa616 <vfprintf+0x34c>
    a610:	2f 2f       	mov	r18, r31
    a612:	26 60       	ori	r18, 0x06	; 6
    a614:	d2 2e       	mov	r13, r18
    a616:	20 e1       	ldi	r18, 0x10	; 16
    a618:	32 e0       	ldi	r19, 0x02	; 2
    a61a:	02 c0       	rjmp	.+4      	; 0xa620 <vfprintf+0x356>
    a61c:	28 e0       	ldi	r18, 0x08	; 8
    a61e:	30 e0       	ldi	r19, 0x00	; 0
    a620:	f8 01       	movw	r30, r16
    a622:	d7 fe       	sbrs	r13, 7
    a624:	15 c0       	rjmp	.+42     	; 0xa650 <vfprintf+0x386>
    a626:	41 91       	ld	r20, Z+
    a628:	51 91       	ld	r21, Z+
    a62a:	61 91       	ld	r22, Z+
    a62c:	71 91       	ld	r23, Z+
    a62e:	4c 87       	std	Y+12, r20	; 0x0c
    a630:	5d 87       	std	Y+13, r21	; 0x0d
    a632:	6e 87       	std	Y+14, r22	; 0x0e
    a634:	7f 87       	std	Y+15, r23	; 0x0f
    a636:	8f 01       	movw	r16, r30
    a638:	a4 01       	movw	r20, r8
    a63a:	6c 85       	ldd	r22, Y+12	; 0x0c
    a63c:	7d 85       	ldd	r23, Y+13	; 0x0d
    a63e:	8e 85       	ldd	r24, Y+14	; 0x0e
    a640:	9f 85       	ldd	r25, Y+15	; 0x0f
    a642:	0e 94 a6 53 	call	0xa74c	; 0xa74c <__ultoa_invert>
    a646:	c8 2e       	mov	r12, r24
    a648:	c8 18       	sub	r12, r8
    a64a:	e8 94       	clt
    a64c:	d7 f8       	bld	r13, 7
    a64e:	51 cf       	rjmp	.-350    	; 0xa4f2 <vfprintf+0x228>
    a650:	81 91       	ld	r24, Z+
    a652:	91 91       	ld	r25, Z+
    a654:	ac 01       	movw	r20, r24
    a656:	70 e0       	ldi	r23, 0x00	; 0
    a658:	60 e0       	ldi	r22, 0x00	; 0
    a65a:	e9 cf       	rjmp	.-46     	; 0xa62e <vfprintf+0x364>
    a65c:	52 fc       	sbrc	r5, 2
    a65e:	02 c0       	rjmp	.+4      	; 0xa664 <vfprintf+0x39a>
    a660:	a3 94       	inc	r10
    a662:	63 cf       	rjmp	.-314    	; 0xa52a <vfprintf+0x260>
    a664:	a3 94       	inc	r10
    a666:	a3 94       	inc	r10
    a668:	60 cf       	rjmp	.-320    	; 0xa52a <vfprintf+0x260>
    a66a:	85 2d       	mov	r24, r5
    a66c:	86 78       	andi	r24, 0x86	; 134
    a66e:	09 f4       	brne	.+2      	; 0xa672 <vfprintf+0x3a8>
    a670:	5c cf       	rjmp	.-328    	; 0xa52a <vfprintf+0x260>
    a672:	f6 cf       	rjmp	.-20     	; 0xa660 <vfprintf+0x396>
    a674:	b7 01       	movw	r22, r14
    a676:	80 e2       	ldi	r24, 0x20	; 32
    a678:	90 e0       	ldi	r25, 0x00	; 0
    a67a:	0e 94 76 53 	call	0xa6ec	; 0xa6ec <fputc>
    a67e:	a3 94       	inc	r10
    a680:	a4 14       	cp	r10, r4
    a682:	c0 f3       	brcs	.-16     	; 0xa674 <vfprintf+0x3aa>
    a684:	31 2c       	mov	r3, r1
    a686:	5e cf       	rjmp	.-324    	; 0xa544 <vfprintf+0x27a>
    a688:	34 2c       	mov	r3, r4
    a68a:	3a 18       	sub	r3, r10
    a68c:	a4 14       	cp	r10, r4
    a68e:	08 f4       	brcc	.+2      	; 0xa692 <vfprintf+0x3c8>
    a690:	59 cf       	rjmp	.-334    	; 0xa544 <vfprintf+0x27a>
    a692:	f8 cf       	rjmp	.-16     	; 0xa684 <vfprintf+0x3ba>
    a694:	85 2d       	mov	r24, r5
    a696:	86 78       	andi	r24, 0x86	; 134
    a698:	09 f4       	brne	.+2      	; 0xa69c <vfprintf+0x3d2>
    a69a:	66 cf       	rjmp	.-308    	; 0xa568 <vfprintf+0x29e>
    a69c:	8b e2       	ldi	r24, 0x2B	; 43
    a69e:	51 fe       	sbrs	r5, 1
    a6a0:	80 e2       	ldi	r24, 0x20	; 32
    a6a2:	57 fc       	sbrc	r5, 7
    a6a4:	8d e2       	ldi	r24, 0x2D	; 45
    a6a6:	b7 01       	movw	r22, r14
    a6a8:	90 e0       	ldi	r25, 0x00	; 0
    a6aa:	5c cf       	rjmp	.-328    	; 0xa564 <vfprintf+0x29a>
    a6ac:	b7 01       	movw	r22, r14
    a6ae:	80 e3       	ldi	r24, 0x30	; 48
    a6b0:	90 e0       	ldi	r25, 0x00	; 0
    a6b2:	0e 94 76 53 	call	0xa6ec	; 0xa6ec <fputc>
    a6b6:	ba 94       	dec	r11
    a6b8:	57 cf       	rjmp	.-338    	; 0xa568 <vfprintf+0x29e>
    a6ba:	8f ef       	ldi	r24, 0xFF	; 255
    a6bc:	9f ef       	ldi	r25, 0xFF	; 255
    a6be:	84 cf       	rjmp	.-248    	; 0xa5c8 <vfprintf+0x2fe>

0000a6c0 <strnlen_P>:
    a6c0:	fc 01       	movw	r30, r24
    a6c2:	05 90       	lpm	r0, Z+
    a6c4:	61 50       	subi	r22, 0x01	; 1
    a6c6:	70 40       	sbci	r23, 0x00	; 0
    a6c8:	01 10       	cpse	r0, r1
    a6ca:	d8 f7       	brcc	.-10     	; 0xa6c2 <strnlen_P+0x2>
    a6cc:	80 95       	com	r24
    a6ce:	90 95       	com	r25
    a6d0:	8e 0f       	add	r24, r30
    a6d2:	9f 1f       	adc	r25, r31
    a6d4:	08 95       	ret

0000a6d6 <strnlen>:
    a6d6:	fc 01       	movw	r30, r24
    a6d8:	61 50       	subi	r22, 0x01	; 1
    a6da:	70 40       	sbci	r23, 0x00	; 0
    a6dc:	01 90       	ld	r0, Z+
    a6de:	01 10       	cpse	r0, r1
    a6e0:	d8 f7       	brcc	.-10     	; 0xa6d8 <strnlen+0x2>
    a6e2:	80 95       	com	r24
    a6e4:	90 95       	com	r25
    a6e6:	8e 0f       	add	r24, r30
    a6e8:	9f 1f       	adc	r25, r31
    a6ea:	08 95       	ret

0000a6ec <fputc>:
    a6ec:	0f 93       	push	r16
    a6ee:	1f 93       	push	r17
    a6f0:	cf 93       	push	r28
    a6f2:	df 93       	push	r29
    a6f4:	18 2f       	mov	r17, r24
    a6f6:	09 2f       	mov	r16, r25
    a6f8:	eb 01       	movw	r28, r22
    a6fa:	8b 81       	ldd	r24, Y+3	; 0x03
    a6fc:	81 fd       	sbrc	r24, 1
    a6fe:	09 c0       	rjmp	.+18     	; 0xa712 <fputc+0x26>
    a700:	1f ef       	ldi	r17, 0xFF	; 255
    a702:	0f ef       	ldi	r16, 0xFF	; 255
    a704:	81 2f       	mov	r24, r17
    a706:	90 2f       	mov	r25, r16
    a708:	df 91       	pop	r29
    a70a:	cf 91       	pop	r28
    a70c:	1f 91       	pop	r17
    a70e:	0f 91       	pop	r16
    a710:	08 95       	ret
    a712:	82 ff       	sbrs	r24, 2
    a714:	14 c0       	rjmp	.+40     	; 0xa73e <fputc+0x52>
    a716:	2e 81       	ldd	r18, Y+6	; 0x06
    a718:	3f 81       	ldd	r19, Y+7	; 0x07
    a71a:	8c 81       	ldd	r24, Y+4	; 0x04
    a71c:	9d 81       	ldd	r25, Y+5	; 0x05
    a71e:	28 17       	cp	r18, r24
    a720:	39 07       	cpc	r19, r25
    a722:	3c f4       	brge	.+14     	; 0xa732 <fputc+0x46>
    a724:	e8 81       	ld	r30, Y
    a726:	f9 81       	ldd	r31, Y+1	; 0x01
    a728:	cf 01       	movw	r24, r30
    a72a:	01 96       	adiw	r24, 0x01	; 1
    a72c:	88 83       	st	Y, r24
    a72e:	99 83       	std	Y+1, r25	; 0x01
    a730:	10 83       	st	Z, r17
    a732:	8e 81       	ldd	r24, Y+6	; 0x06
    a734:	9f 81       	ldd	r25, Y+7	; 0x07
    a736:	01 96       	adiw	r24, 0x01	; 1
    a738:	8e 83       	std	Y+6, r24	; 0x06
    a73a:	9f 83       	std	Y+7, r25	; 0x07
    a73c:	e3 cf       	rjmp	.-58     	; 0xa704 <fputc+0x18>
    a73e:	e8 85       	ldd	r30, Y+8	; 0x08
    a740:	f9 85       	ldd	r31, Y+9	; 0x09
    a742:	81 2f       	mov	r24, r17
    a744:	19 95       	eicall
    a746:	89 2b       	or	r24, r25
    a748:	a1 f3       	breq	.-24     	; 0xa732 <fputc+0x46>
    a74a:	da cf       	rjmp	.-76     	; 0xa700 <fputc+0x14>

0000a74c <__ultoa_invert>:
    a74c:	fa 01       	movw	r30, r20
    a74e:	aa 27       	eor	r26, r26
    a750:	28 30       	cpi	r18, 0x08	; 8
    a752:	51 f1       	breq	.+84     	; 0xa7a8 <__ultoa_invert+0x5c>
    a754:	20 31       	cpi	r18, 0x10	; 16
    a756:	81 f1       	breq	.+96     	; 0xa7b8 <__ultoa_invert+0x6c>
    a758:	e8 94       	clt
    a75a:	6f 93       	push	r22
    a75c:	6e 7f       	andi	r22, 0xFE	; 254
    a75e:	6e 5f       	subi	r22, 0xFE	; 254
    a760:	7f 4f       	sbci	r23, 0xFF	; 255
    a762:	8f 4f       	sbci	r24, 0xFF	; 255
    a764:	9f 4f       	sbci	r25, 0xFF	; 255
    a766:	af 4f       	sbci	r26, 0xFF	; 255
    a768:	b1 e0       	ldi	r27, 0x01	; 1
    a76a:	3e d0       	rcall	.+124    	; 0xa7e8 <__ultoa_invert+0x9c>
    a76c:	b4 e0       	ldi	r27, 0x04	; 4
    a76e:	3c d0       	rcall	.+120    	; 0xa7e8 <__ultoa_invert+0x9c>
    a770:	67 0f       	add	r22, r23
    a772:	78 1f       	adc	r23, r24
    a774:	89 1f       	adc	r24, r25
    a776:	9a 1f       	adc	r25, r26
    a778:	a1 1d       	adc	r26, r1
    a77a:	68 0f       	add	r22, r24
    a77c:	79 1f       	adc	r23, r25
    a77e:	8a 1f       	adc	r24, r26
    a780:	91 1d       	adc	r25, r1
    a782:	a1 1d       	adc	r26, r1
    a784:	6a 0f       	add	r22, r26
    a786:	71 1d       	adc	r23, r1
    a788:	81 1d       	adc	r24, r1
    a78a:	91 1d       	adc	r25, r1
    a78c:	a1 1d       	adc	r26, r1
    a78e:	20 d0       	rcall	.+64     	; 0xa7d0 <__ultoa_invert+0x84>
    a790:	09 f4       	brne	.+2      	; 0xa794 <__ultoa_invert+0x48>
    a792:	68 94       	set
    a794:	3f 91       	pop	r19
    a796:	2a e0       	ldi	r18, 0x0A	; 10
    a798:	26 9f       	mul	r18, r22
    a79a:	11 24       	eor	r1, r1
    a79c:	30 19       	sub	r19, r0
    a79e:	30 5d       	subi	r19, 0xD0	; 208
    a7a0:	31 93       	st	Z+, r19
    a7a2:	de f6       	brtc	.-74     	; 0xa75a <__ultoa_invert+0xe>
    a7a4:	cf 01       	movw	r24, r30
    a7a6:	08 95       	ret
    a7a8:	46 2f       	mov	r20, r22
    a7aa:	47 70       	andi	r20, 0x07	; 7
    a7ac:	40 5d       	subi	r20, 0xD0	; 208
    a7ae:	41 93       	st	Z+, r20
    a7b0:	b3 e0       	ldi	r27, 0x03	; 3
    a7b2:	0f d0       	rcall	.+30     	; 0xa7d2 <__ultoa_invert+0x86>
    a7b4:	c9 f7       	brne	.-14     	; 0xa7a8 <__ultoa_invert+0x5c>
    a7b6:	f6 cf       	rjmp	.-20     	; 0xa7a4 <__ultoa_invert+0x58>
    a7b8:	46 2f       	mov	r20, r22
    a7ba:	4f 70       	andi	r20, 0x0F	; 15
    a7bc:	40 5d       	subi	r20, 0xD0	; 208
    a7be:	4a 33       	cpi	r20, 0x3A	; 58
    a7c0:	18 f0       	brcs	.+6      	; 0xa7c8 <__ultoa_invert+0x7c>
    a7c2:	49 5d       	subi	r20, 0xD9	; 217
    a7c4:	31 fd       	sbrc	r19, 1
    a7c6:	40 52       	subi	r20, 0x20	; 32
    a7c8:	41 93       	st	Z+, r20
    a7ca:	02 d0       	rcall	.+4      	; 0xa7d0 <__ultoa_invert+0x84>
    a7cc:	a9 f7       	brne	.-22     	; 0xa7b8 <__ultoa_invert+0x6c>
    a7ce:	ea cf       	rjmp	.-44     	; 0xa7a4 <__ultoa_invert+0x58>
    a7d0:	b4 e0       	ldi	r27, 0x04	; 4
    a7d2:	a6 95       	lsr	r26
    a7d4:	97 95       	ror	r25
    a7d6:	87 95       	ror	r24
    a7d8:	77 95       	ror	r23
    a7da:	67 95       	ror	r22
    a7dc:	ba 95       	dec	r27
    a7de:	c9 f7       	brne	.-14     	; 0xa7d2 <__ultoa_invert+0x86>
    a7e0:	00 97       	sbiw	r24, 0x00	; 0
    a7e2:	61 05       	cpc	r22, r1
    a7e4:	71 05       	cpc	r23, r1
    a7e6:	08 95       	ret
    a7e8:	9b 01       	movw	r18, r22
    a7ea:	ac 01       	movw	r20, r24
    a7ec:	0a 2e       	mov	r0, r26
    a7ee:	06 94       	lsr	r0
    a7f0:	57 95       	ror	r21
    a7f2:	47 95       	ror	r20
    a7f4:	37 95       	ror	r19
    a7f6:	27 95       	ror	r18
    a7f8:	ba 95       	dec	r27
    a7fa:	c9 f7       	brne	.-14     	; 0xa7ee <__ultoa_invert+0xa2>
    a7fc:	62 0f       	add	r22, r18
    a7fe:	73 1f       	adc	r23, r19
    a800:	84 1f       	adc	r24, r20
    a802:	95 1f       	adc	r25, r21
    a804:	a0 1d       	adc	r26, r0
    a806:	08 95       	ret

0000a808 <_exit>:
    a808:	f8 94       	cli

0000a80a <__stop_program>:
    a80a:	ff cf       	rjmp	.-2      	; 0xa80a <__stop_program>
